
ec.exe:     file format elf32-avr

Sections:
Idx Name          Size      VMA       LMA       File off  Algn
  0 .data         00000122  00800100  00002adc  00002b70  2**0
                  CONTENTS, ALLOC, LOAD, DATA
  1 .text         00002adc  00000000  00000000  00000094  2**1
                  CONTENTS, ALLOC, LOAD, READONLY, CODE
  2 .bss          00001100  00800222  00800222  00002c92  2**0
                  ALLOC
  3 .stab         00002bb0  00000000  00000000  00002c94  2**2
                  CONTENTS, READONLY, DEBUGGING
  4 .stabstr      0000100d  00000000  00000000  00005844  2**0
                  CONTENTS, READONLY, DEBUGGING

Disassembly of section .text:

00000000 <__vectors>:
       0:	0c 94 46 00 	jmp	0x8c	; 0x8c <__ctors_end>
       4:	0c 94 65 00 	jmp	0xca	; 0xca <__bad_interrupt>
       8:	0c 94 65 00 	jmp	0xca	; 0xca <__bad_interrupt>
       c:	0c 94 65 00 	jmp	0xca	; 0xca <__bad_interrupt>
      10:	0c 94 65 00 	jmp	0xca	; 0xca <__bad_interrupt>
      14:	0c 94 65 00 	jmp	0xca	; 0xca <__bad_interrupt>
      18:	0c 94 65 00 	jmp	0xca	; 0xca <__bad_interrupt>
      1c:	0c 94 65 00 	jmp	0xca	; 0xca <__bad_interrupt>
      20:	0c 94 65 00 	jmp	0xca	; 0xca <__bad_interrupt>
      24:	0c 94 65 00 	jmp	0xca	; 0xca <__bad_interrupt>
      28:	0c 94 65 00 	jmp	0xca	; 0xca <__bad_interrupt>
      2c:	0c 94 65 00 	jmp	0xca	; 0xca <__bad_interrupt>
      30:	0c 94 65 00 	jmp	0xca	; 0xca <__bad_interrupt>
      34:	0c 94 65 00 	jmp	0xca	; 0xca <__bad_interrupt>
      38:	0c 94 65 00 	jmp	0xca	; 0xca <__bad_interrupt>
      3c:	0c 94 65 00 	jmp	0xca	; 0xca <__bad_interrupt>
      40:	0c 94 65 00 	jmp	0xca	; 0xca <__bad_interrupt>
      44:	0c 94 65 00 	jmp	0xca	; 0xca <__bad_interrupt>
      48:	0c 94 65 00 	jmp	0xca	; 0xca <__bad_interrupt>
      4c:	0c 94 65 00 	jmp	0xca	; 0xca <__bad_interrupt>
      50:	0c 94 65 00 	jmp	0xca	; 0xca <__bad_interrupt>
      54:	0c 94 65 00 	jmp	0xca	; 0xca <__bad_interrupt>
      58:	0c 94 65 00 	jmp	0xca	; 0xca <__bad_interrupt>
      5c:	0c 94 65 00 	jmp	0xca	; 0xca <__bad_interrupt>
      60:	0c 94 65 00 	jmp	0xca	; 0xca <__bad_interrupt>
      64:	0c 94 65 00 	jmp	0xca	; 0xca <__bad_interrupt>
      68:	0c 94 65 00 	jmp	0xca	; 0xca <__bad_interrupt>
      6c:	0c 94 65 00 	jmp	0xca	; 0xca <__bad_interrupt>
      70:	0c 94 65 00 	jmp	0xca	; 0xca <__bad_interrupt>
      74:	0c 94 65 00 	jmp	0xca	; 0xca <__bad_interrupt>
      78:	0c 94 65 00 	jmp	0xca	; 0xca <__bad_interrupt>
      7c:	0c 94 65 00 	jmp	0xca	; 0xca <__bad_interrupt>
      80:	0c 94 65 00 	jmp	0xca	; 0xca <__bad_interrupt>
      84:	0c 94 65 00 	jmp	0xca	; 0xca <__bad_interrupt>
      88:	0c 94 65 00 	jmp	0xca	; 0xca <__bad_interrupt>

0000008c <__ctors_end>:
      8c:	11 24       	eor	r1, r1
      8e:	1f be       	out	0x3f, r1	; 63
      90:	cf ef       	ldi	r28, 0xFF	; 255
      92:	d0 e1       	ldi	r29, 0x10	; 16
      94:	de bf       	out	0x3e, r29	; 62
      96:	cd bf       	out	0x3d, r28	; 61

00000098 <__do_copy_data>:
      98:	12 e0       	ldi	r17, 0x02	; 2
      9a:	a0 e0       	ldi	r26, 0x00	; 0
      9c:	b1 e0       	ldi	r27, 0x01	; 1
      9e:	ec ed       	ldi	r30, 0xDC	; 220
      a0:	fa e2       	ldi	r31, 0x2A	; 42
      a2:	00 e0       	ldi	r16, 0x00	; 0
      a4:	0b bf       	out	0x3b, r16	; 59
      a6:	02 c0       	rjmp	.+4      	; 0xac <__do_copy_data+0x14>
      a8:	07 90       	elpm	r0, Z+
      aa:	0d 92       	st	X+, r0
      ac:	a2 32       	cpi	r26, 0x22	; 34
      ae:	b1 07       	cpc	r27, r17
      b0:	d9 f7       	brne	.-10     	; 0xa8 <__do_copy_data+0x10>

000000b2 <__do_clear_bss>:
      b2:	13 e1       	ldi	r17, 0x13	; 19
      b4:	a2 e2       	ldi	r26, 0x22	; 34
      b6:	b2 e0       	ldi	r27, 0x02	; 2
      b8:	01 c0       	rjmp	.+2      	; 0xbc <.do_clear_bss_start>

000000ba <.do_clear_bss_loop>:
      ba:	1d 92       	st	X+, r1

000000bc <.do_clear_bss_start>:
      bc:	a2 32       	cpi	r26, 0x22	; 34
      be:	b1 07       	cpc	r27, r17
      c0:	e1 f7       	brne	.-8      	; 0xba <.do_clear_bss_loop>
      c2:	0e 94 03 04 	call	0x806	; 0x806 <main>
      c6:	0c 94 6c 15 	jmp	0x2ad8	; 0x2ad8 <_exit>

000000ca <__bad_interrupt>:
      ca:	0c 94 00 00 	jmp	0	; 0x0 <__vectors>

000000ce <ec_thread_3>:
      ce:	ef 92       	push	r14
      d0:	ff 92       	push	r15
      d2:	0f 93       	push	r16
      d4:	1f 93       	push	r17
      d6:	fc 01       	movw	r30, r24
      d8:	00 97       	sbiw	r24, 0x00	; 0
      da:	09 f0       	breq	.+2      	; 0xde <ec_thread_3+0x10>
      dc:	09 94       	ijmp
      de:	80 e0       	ldi	r24, 0x00	; 0
      e0:	91 e0       	ldi	r25, 0x01	; 1
      e2:	90 93 47 0a 	sts	0x0A47, r25
      e6:	80 93 46 0a 	sts	0x0A46, r24
      ea:	87 e0       	ldi	r24, 0x07	; 7
      ec:	91 e0       	ldi	r25, 0x01	; 1
      ee:	90 93 4b 0a 	sts	0x0A4B, r25
      f2:	80 93 4a 0a 	sts	0x0A4A, r24
      f6:	23 e1       	ldi	r18, 0x13	; 19
      f8:	31 e0       	ldi	r19, 0x01	; 1
      fa:	30 93 4d 0a 	sts	0x0A4D, r19
      fe:	20 93 4c 0a 	sts	0x0A4C, r18
     102:	24 e6       	ldi	r18, 0x64	; 100
     104:	30 e0       	ldi	r19, 0x00	; 0
     106:	30 93 49 0a 	sts	0x0A49, r19
     10a:	20 93 48 0a 	sts	0x0A48, r18
     10e:	22 e5       	ldi	r18, 0x52	; 82
     110:	31 e0       	ldi	r19, 0x01	; 1
     112:	30 93 27 06 	sts	0x0627, r19
     116:	20 93 26 06 	sts	0x0626, r18
     11a:	61 e0       	ldi	r22, 0x01	; 1
     11c:	70 e0       	ldi	r23, 0x00	; 0
     11e:	0e 94 b3 09 	call	0x1366	; 0x1366 <os_flash_open>
     122:	90 93 4f 0a 	sts	0x0A4F, r25
     126:	80 93 4e 0a 	sts	0x0A4E, r24
     12a:	80 91 4c 0a 	lds	r24, 0x0A4C
     12e:	90 91 4d 0a 	lds	r25, 0x0A4D
     132:	61 e0       	ldi	r22, 0x01	; 1
     134:	70 e0       	ldi	r23, 0x00	; 0
     136:	0e 94 b3 09 	call	0x1366	; 0x1366 <os_flash_open>
     13a:	90 93 51 0a 	sts	0x0A51, r25
     13e:	80 93 50 0a 	sts	0x0A50, r24
     142:	80 91 46 0a 	lds	r24, 0x0A46
     146:	90 91 47 0a 	lds	r25, 0x0A47
     14a:	0e 94 1c 06 	call	0xc38	; 0xc38 <os_connect>
     14e:	90 93 5f 0a 	sts	0x0A5F, r25
     152:	80 93 5e 0a 	sts	0x0A5E, r24
     156:	0e 94 06 0a 	call	0x140c	; 0x140c <os_now>
     15a:	60 93 5a 0a 	sts	0x0A5A, r22
     15e:	70 93 5b 0a 	sts	0x0A5B, r23
     162:	80 93 5c 0a 	sts	0x0A5C, r24
     166:	90 93 5d 0a 	sts	0x0A5D, r25
     16a:	80 91 48 0a 	lds	r24, 0x0A48
     16e:	90 91 49 0a 	lds	r25, 0x0A49
     172:	a0 e0       	ldi	r26, 0x00	; 0
     174:	b0 e0       	ldi	r27, 0x00	; 0
     176:	20 91 5a 0a 	lds	r18, 0x0A5A
     17a:	30 91 5b 0a 	lds	r19, 0x0A5B
     17e:	40 91 5c 0a 	lds	r20, 0x0A5C
     182:	50 91 5d 0a 	lds	r21, 0x0A5D
     186:	82 0f       	add	r24, r18
     188:	93 1f       	adc	r25, r19
     18a:	a4 1f       	adc	r26, r20
     18c:	b5 1f       	adc	r27, r21
     18e:	80 93 2c 06 	sts	0x062C, r24
     192:	90 93 2d 06 	sts	0x062D, r25
     196:	a0 93 2e 06 	sts	0x062E, r26
     19a:	b0 93 2f 06 	sts	0x062F, r27
     19e:	8e ed       	ldi	r24, 0xDE	; 222
     1a0:	90 e0       	ldi	r25, 0x00	; 0
     1a2:	90 93 29 06 	sts	0x0629, r25
     1a6:	80 93 28 06 	sts	0x0628, r24
     1aa:	88 e2       	ldi	r24, 0x28	; 40
     1ac:	96 e0       	ldi	r25, 0x06	; 6
     1ae:	0e 94 e7 05 	call	0xbce	; 0xbce <tc_sleep>
     1b2:	1f 91       	pop	r17
     1b4:	0f 91       	pop	r16
     1b6:	ff 90       	pop	r15
     1b8:	ef 90       	pop	r14
     1ba:	08 95       	ret
     1bc:	80 91 48 0a 	lds	r24, 0x0A48
     1c0:	90 91 49 0a 	lds	r25, 0x0A49
     1c4:	a0 e0       	ldi	r26, 0x00	; 0
     1c6:	b0 e0       	ldi	r27, 0x00	; 0
     1c8:	20 91 5a 0a 	lds	r18, 0x0A5A
     1cc:	30 91 5b 0a 	lds	r19, 0x0A5B
     1d0:	40 91 5c 0a 	lds	r20, 0x0A5C
     1d4:	50 91 5d 0a 	lds	r21, 0x0A5D
     1d8:	82 0f       	add	r24, r18
     1da:	93 1f       	adc	r25, r19
     1dc:	a4 1f       	adc	r26, r20
     1de:	b5 1f       	adc	r27, r21
     1e0:	80 93 5a 0a 	sts	0x0A5A, r24
     1e4:	90 93 5b 0a 	sts	0x0A5B, r25
     1e8:	a0 93 5c 0a 	sts	0x0A5C, r26
     1ec:	b0 93 5d 0a 	sts	0x0A5D, r27
     1f0:	26 e5       	ldi	r18, 0x56	; 86
     1f2:	3a e0       	ldi	r19, 0x0A	; 10
     1f4:	8f ef       	ldi	r24, 0xFF	; 255
     1f6:	9f ef       	ldi	r25, 0xFF	; 255
     1f8:	af ef       	ldi	r26, 0xFF	; 255
     1fa:	bf e7       	ldi	r27, 0x7F	; 127
     1fc:	80 93 56 0a 	sts	0x0A56, r24
     200:	90 93 57 0a 	sts	0x0A57, r25
     204:	a0 93 58 0a 	sts	0x0A58, r26
     208:	b0 93 59 0a 	sts	0x0A59, r27
     20c:	8f ef       	ldi	r24, 0xFF	; 255
     20e:	9f ef       	ldi	r25, 0xFF	; 255
     210:	af ef       	ldi	r26, 0xFF	; 255
     212:	bf ef       	ldi	r27, 0xFF	; 255
     214:	80 93 52 0a 	sts	0x0A52, r24
     218:	90 93 53 0a 	sts	0x0A53, r25
     21c:	a0 93 54 0a 	sts	0x0A54, r26
     220:	b0 93 55 0a 	sts	0x0A55, r27
     224:	80 91 4e 0a 	lds	r24, 0x0A4E
     228:	90 91 4f 0a 	lds	r25, 0x0A4F
     22c:	90 93 3b 0a 	sts	0x0A3B, r25
     230:	80 93 3a 0a 	sts	0x0A3A, r24
     234:	30 93 3f 0a 	sts	0x0A3F, r19
     238:	20 93 3e 0a 	sts	0x0A3E, r18
     23c:	24 50       	subi	r18, 0x04	; 4
     23e:	30 40       	sbci	r19, 0x00	; 0
     240:	30 93 3d 0a 	sts	0x0A3D, r19
     244:	20 93 3c 0a 	sts	0x0A3C, r18
     248:	85 e5       	ldi	r24, 0x55	; 85
     24a:	92 e0       	ldi	r25, 0x02	; 2
     24c:	90 93 29 06 	sts	0x0629, r25
     250:	80 93 28 06 	sts	0x0628, r24
     254:	80 91 3a 0a 	lds	r24, 0x0A3A
     258:	90 91 3b 0a 	lds	r25, 0x0A3B
     25c:	90 93 33 06 	sts	0x0633, r25
     260:	80 93 32 06 	sts	0x0632, r24
     264:	86 e3       	ldi	r24, 0x36	; 54
     266:	96 e0       	ldi	r25, 0x06	; 6
     268:	90 93 2f 06 	sts	0x062F, r25
     26c:	80 93 2e 06 	sts	0x062E, r24
     270:	20 e0       	ldi	r18, 0x00	; 0
     272:	34 e0       	ldi	r19, 0x04	; 4
     274:	30 93 31 06 	sts	0x0631, r19
     278:	20 93 30 06 	sts	0x0630, r18
     27c:	28 e3       	ldi	r18, 0x38	; 56
     27e:	3a e0       	ldi	r19, 0x0A	; 10
     280:	30 93 35 06 	sts	0x0635, r19
     284:	20 93 34 06 	sts	0x0634, r18
     288:	24 e6       	ldi	r18, 0x64	; 100
     28a:	31 e0       	ldi	r19, 0x01	; 1
     28c:	30 93 2b 06 	sts	0x062B, r19
     290:	20 93 2a 06 	sts	0x062A, r18
     294:	0c 97       	sbiw	r24, 0x0c	; 12
     296:	0e 94 8a 05 	call	0xb14	; 0xb14 <tc_flash_read>
     29a:	1f 91       	pop	r17
     29c:	0f 91       	pop	r16
     29e:	ff 90       	pop	r15
     2a0:	ef 90       	pop	r14
     2a2:	08 95       	ret
     2a4:	0e 94 84 11 	call	0x2308	; 0x2308 <abort>
     2a8:	80 91 2c 06 	lds	r24, 0x062C
     2ac:	90 91 2d 06 	lds	r25, 0x062D
     2b0:	90 93 35 06 	sts	0x0635, r25
     2b4:	80 93 34 06 	sts	0x0634, r24
     2b8:	89 2b       	or	r24, r25
     2ba:	09 f0       	breq	.+2      	; 0x2be <ec_thread_3+0x1f0>
     2bc:	10 c1       	rjmp	.+544    	; 0x4de <ec_thread_3+0x410>
     2be:	e0 91 28 06 	lds	r30, 0x0628
     2c2:	f0 91 29 06 	lds	r31, 0x0629
     2c6:	09 94       	ijmp
     2c8:	80 91 2c 06 	lds	r24, 0x062C
     2cc:	90 91 2d 06 	lds	r25, 0x062D
     2d0:	90 93 41 0a 	sts	0x0A41, r25
     2d4:	80 93 40 0a 	sts	0x0A40, r24
     2d8:	89 2b       	or	r24, r25
     2da:	21 f7       	brne	.-56     	; 0x2a4 <ec_thread_3+0x1d6>
     2dc:	20 91 38 0a 	lds	r18, 0x0A38
     2e0:	30 91 39 0a 	lds	r19, 0x0A39
     2e4:	c9 01       	movw	r24, r18
     2e6:	83 70       	andi	r24, 0x03	; 3
     2e8:	90 70       	andi	r25, 0x00	; 0
     2ea:	89 2b       	or	r24, r25
     2ec:	d9 f6       	brne	.-74     	; 0x2a4 <ec_thread_3+0x1d6>
     2ee:	20 50       	subi	r18, 0x00	; 0
     2f0:	34 40       	sbci	r19, 0x04	; 4
     2f2:	c0 f6       	brcc	.-80     	; 0x2a4 <ec_thread_3+0x1d6>
     2f4:	80 91 3a 0a 	lds	r24, 0x0A3A
     2f8:	90 91 3b 0a 	lds	r25, 0x0A3B
     2fc:	60 e0       	ldi	r22, 0x00	; 0
     2fe:	70 e0       	ldi	r23, 0x00	; 0
     300:	0e 94 2a 06 	call	0xc54	; 0xc54 <os_flash_seek>
     304:	90 93 41 0a 	sts	0x0A41, r25
     308:	80 93 40 0a 	sts	0x0A40, r24
     30c:	89 2b       	or	r24, r25
     30e:	51 f6       	brne	.-108    	; 0x2a4 <ec_thread_3+0x1d6>
     310:	10 92 37 0a 	sts	0x0A37, r1
     314:	10 92 36 0a 	sts	0x0A36, r1
     318:	80 91 38 0a 	lds	r24, 0x0A38
     31c:	90 91 39 0a 	lds	r25, 0x0A39
     320:	96 95       	lsr	r25
     322:	87 95       	ror	r24
     324:	96 95       	lsr	r25
     326:	87 95       	ror	r24
     328:	89 2b       	or	r24, r25
     32a:	09 f4       	brne	.+2      	; 0x32e <ec_thread_3+0x260>
     32c:	58 c0       	rjmp	.+176    	; 0x3de <ec_thread_3+0x310>
     32e:	e0 e0       	ldi	r30, 0x00	; 0
     330:	f0 e0       	ldi	r31, 0x00	; 0
     332:	ee 0f       	add	r30, r30
     334:	ff 1f       	adc	r31, r31
     336:	ee 0f       	add	r30, r30
     338:	ff 1f       	adc	r31, r31
     33a:	ea 5c       	subi	r30, 0xCA	; 202
     33c:	f9 4f       	sbci	r31, 0xF9	; 249
     33e:	20 81       	ld	r18, Z
     340:	31 81       	ldd	r19, Z+1	; 0x01
     342:	42 81       	ldd	r20, Z+2	; 0x02
     344:	53 81       	ldd	r21, Z+3	; 0x03
     346:	20 93 42 0a 	sts	0x0A42, r18
     34a:	30 93 43 0a 	sts	0x0A43, r19
     34e:	40 93 44 0a 	sts	0x0A44, r20
     352:	50 93 45 0a 	sts	0x0A45, r21
     356:	c9 01       	movw	r24, r18
     358:	da 01       	movw	r26, r20
     35a:	9c 01       	movw	r18, r24
     35c:	ad 01       	movw	r20, r26
     35e:	e0 91 3e 0a 	lds	r30, 0x0A3E
     362:	f0 91 3f 0a 	lds	r31, 0x0A3F
     366:	80 81       	ld	r24, Z
     368:	91 81       	ldd	r25, Z+1	; 0x01
     36a:	a2 81       	ldd	r26, Z+2	; 0x02
     36c:	b3 81       	ldd	r27, Z+3	; 0x03
     36e:	28 17       	cp	r18, r24
     370:	39 07       	cpc	r19, r25
     372:	4a 07       	cpc	r20, r26
     374:	5b 07       	cpc	r21, r27
     376:	64 f4       	brge	.+24     	; 0x390 <ec_thread_3+0x2c2>
     378:	20 83       	st	Z, r18
     37a:	31 83       	std	Z+1, r19	; 0x01
     37c:	42 83       	std	Z+2, r20	; 0x02
     37e:	53 83       	std	Z+3, r21	; 0x03
     380:	20 91 42 0a 	lds	r18, 0x0A42
     384:	30 91 43 0a 	lds	r19, 0x0A43
     388:	40 91 44 0a 	lds	r20, 0x0A44
     38c:	50 91 45 0a 	lds	r21, 0x0A45
     390:	e0 91 3c 0a 	lds	r30, 0x0A3C
     394:	f0 91 3d 0a 	lds	r31, 0x0A3D
     398:	80 81       	ld	r24, Z
     39a:	91 81       	ldd	r25, Z+1	; 0x01
     39c:	a2 81       	ldd	r26, Z+2	; 0x02
     39e:	b3 81       	ldd	r27, Z+3	; 0x03
     3a0:	82 17       	cp	r24, r18
     3a2:	93 07       	cpc	r25, r19
     3a4:	a4 07       	cpc	r26, r20
     3a6:	b5 07       	cpc	r27, r21
     3a8:	24 f4       	brge	.+8      	; 0x3b2 <ec_thread_3+0x2e4>
     3aa:	20 83       	st	Z, r18
     3ac:	31 83       	std	Z+1, r19	; 0x01
     3ae:	42 83       	std	Z+2, r20	; 0x02
     3b0:	53 83       	std	Z+3, r21	; 0x03
     3b2:	80 91 36 0a 	lds	r24, 0x0A36
     3b6:	90 91 37 0a 	lds	r25, 0x0A37
     3ba:	01 96       	adiw	r24, 0x01	; 1
     3bc:	90 93 37 0a 	sts	0x0A37, r25
     3c0:	80 93 36 0a 	sts	0x0A36, r24
     3c4:	fc 01       	movw	r30, r24
     3c6:	80 91 38 0a 	lds	r24, 0x0A38
     3ca:	90 91 39 0a 	lds	r25, 0x0A39
     3ce:	96 95       	lsr	r25
     3d0:	87 95       	ror	r24
     3d2:	96 95       	lsr	r25
     3d4:	87 95       	ror	r24
     3d6:	e8 17       	cp	r30, r24
     3d8:	f9 07       	cpc	r31, r25
     3da:	08 f4       	brcc	.+2      	; 0x3de <ec_thread_3+0x310>
     3dc:	aa cf       	rjmp	.-172    	; 0x332 <ec_thread_3+0x264>
     3de:	e0 91 28 06 	lds	r30, 0x0628
     3e2:	f0 91 29 06 	lds	r31, 0x0629
     3e6:	09 94       	ijmp
     3e8:	80 91 5e 0a 	lds	r24, 0x0A5E
     3ec:	90 91 5f 0a 	lds	r25, 0x0A5F
     3f0:	90 93 47 06 	sts	0x0647, r25
     3f4:	80 93 46 06 	sts	0x0646, r24
     3f8:	e0 90 56 0a 	lds	r14, 0x0A56
     3fc:	f0 90 57 0a 	lds	r15, 0x0A57
     400:	00 91 58 0a 	lds	r16, 0x0A58
     404:	10 91 59 0a 	lds	r17, 0x0A59
     408:	e0 92 3a 06 	sts	0x063A, r14
     40c:	f0 92 3b 06 	sts	0x063B, r15
     410:	00 93 3c 06 	sts	0x063C, r16
     414:	10 93 3d 06 	sts	0x063D, r17
     418:	20 91 52 0a 	lds	r18, 0x0A52
     41c:	30 91 53 0a 	lds	r19, 0x0A53
     420:	40 91 54 0a 	lds	r20, 0x0A54
     424:	50 91 55 0a 	lds	r21, 0x0A55
     428:	20 93 36 06 	sts	0x0636, r18
     42c:	30 93 37 06 	sts	0x0637, r19
     430:	40 93 38 06 	sts	0x0638, r20
     434:	50 93 39 06 	sts	0x0639, r21
     438:	85 eb       	ldi	r24, 0xB5	; 181
     43a:	90 e0       	ldi	r25, 0x00	; 0
     43c:	90 93 29 06 	sts	0x0629, r25
     440:	80 93 28 06 	sts	0x0628, r24
     444:	6e e3       	ldi	r22, 0x3E	; 62
     446:	76 e0       	ldi	r23, 0x06	; 6
     448:	e0 92 3e 06 	sts	0x063E, r14
     44c:	f0 92 3f 06 	sts	0x063F, r15
     450:	00 93 40 06 	sts	0x0640, r16
     454:	10 93 41 06 	sts	0x0641, r17
     458:	20 93 42 06 	sts	0x0642, r18
     45c:	30 93 43 06 	sts	0x0643, r19
     460:	40 93 44 06 	sts	0x0644, r20
     464:	50 93 45 06 	sts	0x0645, r21
     468:	80 91 46 06 	lds	r24, 0x0646
     46c:	90 91 47 06 	lds	r25, 0x0647
     470:	90 93 31 06 	sts	0x0631, r25
     474:	80 93 30 06 	sts	0x0630, r24
     478:	70 93 2f 06 	sts	0x062F, r23
     47c:	60 93 2e 06 	sts	0x062E, r22
     480:	88 e0       	ldi	r24, 0x08	; 8
     482:	90 e0       	ldi	r25, 0x00	; 0
     484:	90 93 33 06 	sts	0x0633, r25
     488:	80 93 32 06 	sts	0x0632, r24
     48c:	84 e5       	ldi	r24, 0x54	; 84
     48e:	91 e0       	ldi	r25, 0x01	; 1
     490:	90 93 2b 06 	sts	0x062B, r25
     494:	80 93 2a 06 	sts	0x062A, r24
     498:	cb 01       	movw	r24, r22
     49a:	44 97       	sbiw	r24, 0x14	; 20
     49c:	0e 94 a9 05 	call	0xb52	; 0xb52 <tc_send>
     4a0:	1f 91       	pop	r17
     4a2:	0f 91       	pop	r16
     4a4:	ff 90       	pop	r15
     4a6:	ef 90       	pop	r14
     4a8:	08 95       	ret
     4aa:	80 91 50 0a 	lds	r24, 0x0A50
     4ae:	90 91 51 0a 	lds	r25, 0x0A51
     4b2:	90 93 3b 0a 	sts	0x0A3B, r25
     4b6:	80 93 3a 0a 	sts	0x0A3A, r24
     4ba:	86 e5       	ldi	r24, 0x56	; 86
     4bc:	9a e0       	ldi	r25, 0x0A	; 10
     4be:	90 93 3f 0a 	sts	0x0A3F, r25
     4c2:	80 93 3e 0a 	sts	0x0A3E, r24
     4c6:	04 97       	sbiw	r24, 0x04	; 4
     4c8:	90 93 3d 0a 	sts	0x0A3D, r25
     4cc:	80 93 3c 0a 	sts	0x0A3C, r24
     4d0:	84 ef       	ldi	r24, 0xF4	; 244
     4d2:	91 e0       	ldi	r25, 0x01	; 1
     4d4:	90 93 29 06 	sts	0x0629, r25
     4d8:	80 93 28 06 	sts	0x0628, r24
     4dc:	bb ce       	rjmp	.-650    	; 0x254 <ec_thread_3+0x186>
     4de:	6e e3       	ldi	r22, 0x3E	; 62
     4e0:	76 e0       	ldi	r23, 0x06	; 6
     4e2:	c2 cf       	rjmp	.-124    	; 0x468 <ec_thread_3+0x39a>

000004e4 <ec_thread_2>:
     4e4:	fc 01       	movw	r30, r24
     4e6:	00 97       	sbiw	r24, 0x00	; 0
     4e8:	09 f0       	breq	.+2      	; 0x4ec <ec_thread_2+0x8>
     4ea:	09 94       	ijmp
     4ec:	8e e1       	ldi	r24, 0x1E	; 30
     4ee:	91 e0       	ldi	r25, 0x01	; 1
     4f0:	90 93 81 0a 	sts	0x0A81, r25
     4f4:	80 93 80 0a 	sts	0x0A80, r24
     4f8:	27 e0       	ldi	r18, 0x07	; 7
     4fa:	31 e0       	ldi	r19, 0x01	; 1
     4fc:	30 93 85 0a 	sts	0x0A85, r19
     500:	20 93 84 0a 	sts	0x0A84, r18
     504:	2d eb       	ldi	r18, 0xBD	; 189
     506:	32 e0       	ldi	r19, 0x02	; 2
     508:	30 93 61 0a 	sts	0x0A61, r19
     50c:	20 93 60 0a 	sts	0x0A60, r18
     510:	0e 94 0e 06 	call	0xc1c	; 0xc1c <os_listen>
     514:	90 93 8b 0a 	sts	0x0A8B, r25
     518:	80 93 8a 0a 	sts	0x0A8A, r24
     51c:	80 91 84 0a 	lds	r24, 0x0A84
     520:	90 91 85 0a 	lds	r25, 0x0A85
     524:	62 e0       	ldi	r22, 0x02	; 2
     526:	70 e0       	ldi	r23, 0x00	; 0
     528:	0e 94 b3 09 	call	0x1366	; 0x1366 <os_flash_open>
     52c:	90 93 89 0a 	sts	0x0A89, r25
     530:	80 93 88 0a 	sts	0x0A88, r24
     534:	80 91 8a 0a 	lds	r24, 0x0A8A
     538:	90 91 8b 0a 	lds	r25, 0x0A8B
     53c:	90 93 6b 0a 	sts	0x0A6B, r25
     540:	80 93 6a 0a 	sts	0x0A6A, r24
     544:	86 e7       	ldi	r24, 0x76	; 118
     546:	9a e0       	ldi	r25, 0x0A	; 10
     548:	90 93 67 0a 	sts	0x0A67, r25
     54c:	80 93 66 0a 	sts	0x0A66, r24
     550:	2a e0       	ldi	r18, 0x0A	; 10
     552:	30 e0       	ldi	r19, 0x00	; 0
     554:	30 93 69 0a 	sts	0x0A69, r19
     558:	20 93 68 0a 	sts	0x0A68, r18
     55c:	40 96       	adiw	r24, 0x10	; 16
     55e:	90 93 6d 0a 	sts	0x0A6D, r25
     562:	80 93 6c 0a 	sts	0x0A6C, r24
     566:	2f eb       	ldi	r18, 0xBF	; 191
     568:	32 e0       	ldi	r19, 0x02	; 2
     56a:	30 93 63 0a 	sts	0x0A63, r19
     56e:	20 93 62 0a 	sts	0x0A62, r18
     572:	84 97       	sbiw	r24, 0x24	; 36
     574:	0e 94 c8 05 	call	0xb90	; 0xb90 <tc_receive>
     578:	08 95       	ret
     57a:	0e 94 84 11 	call	0x2308	; 0x2308 <abort>
     57e:	80 91 64 0a 	lds	r24, 0x0A64
     582:	90 91 65 0a 	lds	r25, 0x0A65
     586:	90 93 83 0a 	sts	0x0A83, r25
     58a:	80 93 82 0a 	sts	0x0A82, r24
     58e:	89 2b       	or	r24, r25
     590:	89 f6       	brne	.-94     	; 0x534 <ec_thread_2+0x50>
     592:	20 91 86 0a 	lds	r18, 0x0A86
     596:	30 91 87 0a 	lds	r19, 0x0A87
     59a:	2c 7f       	andi	r18, 0xFC	; 252
     59c:	30 93 87 0a 	sts	0x0A87, r19
     5a0:	20 93 86 0a 	sts	0x0A86, r18
     5a4:	80 91 88 0a 	lds	r24, 0x0A88
     5a8:	90 91 89 0a 	lds	r25, 0x0A89
     5ac:	90 93 75 0a 	sts	0x0A75, r25
     5b0:	80 93 74 0a 	sts	0x0A74, r24
     5b4:	86 e7       	ldi	r24, 0x76	; 118
     5b6:	9a e0       	ldi	r25, 0x0A	; 10
     5b8:	90 93 6f 0a 	sts	0x0A6F, r25
     5bc:	80 93 6e 0a 	sts	0x0A6E, r24
     5c0:	30 93 73 0a 	sts	0x0A73, r19
     5c4:	20 93 72 0a 	sts	0x0A72, r18
     5c8:	8a e9       	ldi	r24, 0x9A	; 154
     5ca:	92 e0       	ldi	r25, 0x02	; 2
     5cc:	90 93 63 0a 	sts	0x0A63, r25
     5d0:	80 93 62 0a 	sts	0x0A62, r24
     5d4:	80 91 74 0a 	lds	r24, 0x0A74
     5d8:	90 91 75 0a 	lds	r25, 0x0A75
     5dc:	90 93 6b 0a 	sts	0x0A6B, r25
     5e0:	80 93 6a 0a 	sts	0x0A6A, r24
     5e4:	80 91 6e 0a 	lds	r24, 0x0A6E
     5e8:	90 91 6f 0a 	lds	r25, 0x0A6F
     5ec:	90 93 69 0a 	sts	0x0A69, r25
     5f0:	80 93 68 0a 	sts	0x0A68, r24
     5f4:	80 91 72 0a 	lds	r24, 0x0A72
     5f8:	90 91 73 0a 	lds	r25, 0x0A73
     5fc:	90 93 6d 0a 	sts	0x0A6D, r25
     600:	80 93 6c 0a 	sts	0x0A6C, r24
     604:	8d e0       	ldi	r24, 0x0D	; 13
     606:	93 e0       	ldi	r25, 0x03	; 3
     608:	90 93 65 0a 	sts	0x0A65, r25
     60c:	80 93 64 0a 	sts	0x0A64, r24
     610:	84 e6       	ldi	r24, 0x64	; 100
     612:	9a e0       	ldi	r25, 0x0A	; 10
     614:	0e 94 6b 05 	call	0xad6	; 0xad6 <tc_flash_write>
     618:	08 95       	ret
     61a:	80 91 66 0a 	lds	r24, 0x0A66
     61e:	90 91 67 0a 	lds	r25, 0x0A67
     622:	90 93 71 0a 	sts	0x0A71, r25
     626:	80 93 70 0a 	sts	0x0A70, r24
     62a:	89 2b       	or	r24, r25
     62c:	99 f6       	brne	.-90     	; 0x5d4 <ec_thread_2+0xf0>
     62e:	e0 91 62 0a 	lds	r30, 0x0A62
     632:	f0 91 63 0a 	lds	r31, 0x0A63
     636:	09 94       	ijmp

00000638 <ec_thread_1>:
     638:	fc 01       	movw	r30, r24
     63a:	00 97       	sbiw	r24, 0x00	; 0
     63c:	09 f0       	breq	.+2      	; 0x640 <ec_thread_1+0x8>
     63e:	09 94       	ijmp
     640:	84 e2       	ldi	r24, 0x24	; 36
     642:	91 e0       	ldi	r25, 0x01	; 1
     644:	90 93 a3 0a 	sts	0x0AA3, r25
     648:	80 93 a2 0a 	sts	0x0AA2, r24
     64c:	23 e1       	ldi	r18, 0x13	; 19
     64e:	31 e0       	ldi	r19, 0x01	; 1
     650:	30 93 a9 0a 	sts	0x0AA9, r19
     654:	20 93 a8 0a 	sts	0x0AA8, r18
     658:	22 e3       	ldi	r18, 0x32	; 50
     65a:	30 e0       	ldi	r19, 0x00	; 0
     65c:	30 93 a5 0a 	sts	0x0AA5, r19
     660:	20 93 a4 0a 	sts	0x0AA4, r18
     664:	21 e0       	ldi	r18, 0x01	; 1
     666:	34 e0       	ldi	r19, 0x04	; 4
     668:	30 93 8d 0a 	sts	0x0A8D, r19
     66c:	20 93 8c 0a 	sts	0x0A8C, r18
     670:	0e 94 2d 06 	call	0xc5a	; 0xc5a <os_sensor_open>
     674:	90 93 b1 0a 	sts	0x0AB1, r25
     678:	80 93 b0 0a 	sts	0x0AB0, r24
     67c:	80 91 a8 0a 	lds	r24, 0x0AA8
     680:	90 91 a9 0a 	lds	r25, 0x0AA9
     684:	62 e0       	ldi	r22, 0x02	; 2
     686:	70 e0       	ldi	r23, 0x00	; 0
     688:	0e 94 b3 09 	call	0x1366	; 0x1366 <os_flash_open>
     68c:	90 93 ab 0a 	sts	0x0AAB, r25
     690:	80 93 aa 0a 	sts	0x0AAA, r24
     694:	0e 94 06 0a 	call	0x140c	; 0x140c <os_now>
     698:	60 93 ac 0a 	sts	0x0AAC, r22
     69c:	70 93 ad 0a 	sts	0x0AAD, r23
     6a0:	80 93 ae 0a 	sts	0x0AAE, r24
     6a4:	90 93 af 0a 	sts	0x0AAF, r25
     6a8:	80 91 a4 0a 	lds	r24, 0x0AA4
     6ac:	90 91 a5 0a 	lds	r25, 0x0AA5
     6b0:	a0 e0       	ldi	r26, 0x00	; 0
     6b2:	b0 e0       	ldi	r27, 0x00	; 0
     6b4:	20 91 ac 0a 	lds	r18, 0x0AAC
     6b8:	30 91 ad 0a 	lds	r19, 0x0AAD
     6bc:	40 91 ae 0a 	lds	r20, 0x0AAE
     6c0:	50 91 af 0a 	lds	r21, 0x0AAF
     6c4:	82 0f       	add	r24, r18
     6c6:	93 1f       	adc	r25, r19
     6c8:	a4 1f       	adc	r26, r20
     6ca:	b5 1f       	adc	r27, r21
     6cc:	80 93 92 0a 	sts	0x0A92, r24
     6d0:	90 93 93 0a 	sts	0x0A93, r25
     6d4:	a0 93 94 0a 	sts	0x0A94, r26
     6d8:	b0 93 95 0a 	sts	0x0A95, r27
     6dc:	89 e7       	ldi	r24, 0x79	; 121
     6de:	93 e0       	ldi	r25, 0x03	; 3
     6e0:	90 93 8f 0a 	sts	0x0A8F, r25
     6e4:	80 93 8e 0a 	sts	0x0A8E, r24
     6e8:	8e e8       	ldi	r24, 0x8E	; 142
     6ea:	9a e0       	ldi	r25, 0x0A	; 10
     6ec:	0e 94 e7 05 	call	0xbce	; 0xbce <tc_sleep>
     6f0:	08 95       	ret
     6f2:	80 91 a4 0a 	lds	r24, 0x0AA4
     6f6:	90 91 a5 0a 	lds	r25, 0x0AA5
     6fa:	a0 e0       	ldi	r26, 0x00	; 0
     6fc:	b0 e0       	ldi	r27, 0x00	; 0
     6fe:	20 91 ac 0a 	lds	r18, 0x0AAC
     702:	30 91 ad 0a 	lds	r19, 0x0AAD
     706:	40 91 ae 0a 	lds	r20, 0x0AAE
     70a:	50 91 af 0a 	lds	r21, 0x0AAF
     70e:	82 0f       	add	r24, r18
     710:	93 1f       	adc	r25, r19
     712:	a4 1f       	adc	r26, r20
     714:	b5 1f       	adc	r27, r21
     716:	80 93 ac 0a 	sts	0x0AAC, r24
     71a:	90 93 ad 0a 	sts	0x0AAD, r25
     71e:	a0 93 ae 0a 	sts	0x0AAE, r26
     722:	b0 93 af 0a 	sts	0x0AAF, r27
     726:	80 91 b0 0a 	lds	r24, 0x0AB0
     72a:	90 91 b1 0a 	lds	r25, 0x0AB1
     72e:	90 93 93 0a 	sts	0x0A93, r25
     732:	80 93 92 0a 	sts	0x0A92, r24
     736:	82 eb       	ldi	r24, 0xB2	; 178
     738:	9a e0       	ldi	r25, 0x0A	; 10
     73a:	90 93 95 0a 	sts	0x0A95, r25
     73e:	80 93 94 0a 	sts	0x0A94, r24
     742:	2b ea       	ldi	r18, 0xAB	; 171
     744:	33 e0       	ldi	r19, 0x03	; 3
     746:	30 93 8f 0a 	sts	0x0A8F, r19
     74a:	20 93 8e 0a 	sts	0x0A8E, r18
     74e:	84 97       	sbiw	r24, 0x24	; 36
     750:	0e 94 31 04 	call	0x862	; 0x862 <tc_sensor_read>
     754:	08 95       	ret
     756:	80 91 90 0a 	lds	r24, 0x0A90
     75a:	90 91 91 0a 	lds	r25, 0x0A91
     75e:	90 93 a7 0a 	sts	0x0AA7, r25
     762:	80 93 a6 0a 	sts	0x0AA6, r24
     766:	89 2b       	or	r24, r25
     768:	f1 f6       	brne	.-68     	; 0x726 <ec_thread_1+0xee>
     76a:	80 91 aa 0a 	lds	r24, 0x0AAA
     76e:	90 91 ab 0a 	lds	r25, 0x0AAB
     772:	90 93 a1 0a 	sts	0x0AA1, r25
     776:	80 93 a0 0a 	sts	0x0AA0, r24
     77a:	82 eb       	ldi	r24, 0xB2	; 178
     77c:	9a e0       	ldi	r25, 0x0A	; 10
     77e:	90 93 9b 0a 	sts	0x0A9B, r25
     782:	80 93 9a 0a 	sts	0x0A9A, r24
     786:	84 e0       	ldi	r24, 0x04	; 4
     788:	90 e0       	ldi	r25, 0x00	; 0
     78a:	90 93 9f 0a 	sts	0x0A9F, r25
     78e:	80 93 9e 0a 	sts	0x0A9E, r24
     792:	84 e5       	ldi	r24, 0x54	; 84
     794:	93 e0       	ldi	r25, 0x03	; 3
     796:	90 93 8f 0a 	sts	0x0A8F, r25
     79a:	80 93 8e 0a 	sts	0x0A8E, r24
     79e:	80 91 a0 0a 	lds	r24, 0x0AA0
     7a2:	90 91 a1 0a 	lds	r25, 0x0AA1
     7a6:	90 93 97 0a 	sts	0x0A97, r25
     7aa:	80 93 96 0a 	sts	0x0A96, r24
     7ae:	80 91 9a 0a 	lds	r24, 0x0A9A
     7b2:	90 91 9b 0a 	lds	r25, 0x0A9B
     7b6:	90 93 95 0a 	sts	0x0A95, r25
     7ba:	80 93 94 0a 	sts	0x0A94, r24
     7be:	80 91 9e 0a 	lds	r24, 0x0A9E
     7c2:	90 91 9f 0a 	lds	r25, 0x0A9F
     7c6:	90 93 99 0a 	sts	0x0A99, r25
     7ca:	80 93 98 0a 	sts	0x0A98, r24
     7ce:	82 ef       	ldi	r24, 0xF2	; 242
     7d0:	93 e0       	ldi	r25, 0x03	; 3
     7d2:	90 93 91 0a 	sts	0x0A91, r25
     7d6:	80 93 90 0a 	sts	0x0A90, r24
     7da:	80 e9       	ldi	r24, 0x90	; 144
     7dc:	9a e0       	ldi	r25, 0x0A	; 10
     7de:	0e 94 6b 05 	call	0xad6	; 0xad6 <tc_flash_write>
     7e2:	08 95       	ret
     7e4:	80 91 92 0a 	lds	r24, 0x0A92
     7e8:	90 91 93 0a 	lds	r25, 0x0A93
     7ec:	90 93 9d 0a 	sts	0x0A9D, r25
     7f0:	80 93 9c 0a 	sts	0x0A9C, r24
     7f4:	89 2b       	or	r24, r25
     7f6:	99 f6       	brne	.-90     	; 0x79e <ec_thread_1+0x166>
     7f8:	e0 91 8e 0a 	lds	r30, 0x0A8E
     7fc:	f0 91 8f 0a 	lds	r31, 0x0A8F
     800:	09 94       	ijmp
     802:	0e 94 84 11 	call	0x2308	; 0x2308 <abort>

00000806 <main>:
     806:	83 e0       	ldi	r24, 0x03	; 3
     808:	90 e0       	ldi	r25, 0x00	; 0
     80a:	0e 94 03 06 	call	0xc06	; 0xc06 <pal_init>
     80e:	8c e1       	ldi	r24, 0x1C	; 28
     810:	93 e0       	ldi	r25, 0x03	; 3
     812:	0e 94 18 04 	call	0x830	; 0x830 <pal_start_thread>
     816:	82 e7       	ldi	r24, 0x72	; 114
     818:	92 e0       	ldi	r25, 0x02	; 2
     81a:	0e 94 18 04 	call	0x830	; 0x830 <pal_start_thread>
     81e:	87 e6       	ldi	r24, 0x67	; 103
     820:	90 e0       	ldi	r25, 0x00	; 0
     822:	0e 94 18 04 	call	0x830	; 0x830 <pal_start_thread>
     826:	0e 94 00 06 	call	0xc00	; 0xc00 <pal_run>
     82a:	80 e0       	ldi	r24, 0x00	; 0
     82c:	90 e0       	ldi	r25, 0x00	; 0
     82e:	08 95       	ret

00000830 <pal_start_thread>:
     830:	9c 01       	movw	r18, r24
     832:	80 91 2b 01 	lds	r24, 0x012B
     836:	90 91 2c 01 	lds	r25, 0x012C
     83a:	01 96       	adiw	r24, 0x01	; 1
     83c:	90 93 2c 01 	sts	0x012C, r25
     840:	80 93 2b 01 	sts	0x012B, r24
     844:	88 0f       	add	r24, r24
     846:	99 1f       	adc	r25, r25
     848:	e0 91 22 02 	lds	r30, 0x0222
     84c:	f0 91 23 02 	lds	r31, 0x0223
     850:	e8 0f       	add	r30, r24
     852:	f9 1f       	adc	r31, r25
     854:	31 83       	std	Z+1, r19	; 0x01
     856:	20 83       	st	Z, r18
     858:	80 e0       	ldi	r24, 0x00	; 0
     85a:	90 e0       	ldi	r25, 0x00	; 0
     85c:	f9 01       	movw	r30, r18
     85e:	09 95       	icall
     860:	08 95       	ret

00000862 <tc_sensor_read>:
     862:	0f 93       	push	r16
     864:	1f 93       	push	r17
     866:	8c 01       	movw	r16, r24
     868:	84 e0       	ldi	r24, 0x04	; 4
     86a:	90 e0       	ldi	r25, 0x00	; 0
     86c:	0e 94 14 10 	call	0x2028	; 0x2028 <malloc>
     870:	fc 01       	movw	r30, r24
     872:	11 83       	std	Z+1, r17	; 0x01
     874:	00 83       	st	Z, r16
     876:	d8 01       	movw	r26, r16
     878:	14 96       	adiw	r26, 0x04	; 4
     87a:	4d 91       	ld	r20, X+
     87c:	5c 91       	ld	r21, X
     87e:	15 97       	sbiw	r26, 0x05	; 5
     880:	88 e4       	ldi	r24, 0x48	; 72
     882:	94 e0       	ldi	r25, 0x04	; 4
     884:	bf 01       	movw	r22, r30
     886:	0e 94 3b 06 	call	0xc76	; 0xc76 <os_sensor_read>
     88a:	1f 91       	pop	r17
     88c:	0f 91       	pop	r16
     88e:	08 95       	ret

00000890 <sensor_read_cb>:
     890:	ef 92       	push	r14
     892:	ff 92       	push	r15
     894:	0f 93       	push	r16
     896:	1f 93       	push	r17
     898:	cf 93       	push	r28
     89a:	df 93       	push	r29
     89c:	7b 01       	movw	r14, r22
     89e:	fc 01       	movw	r30, r24
     8a0:	00 81       	ld	r16, Z
     8a2:	11 81       	ldd	r17, Z+1	; 0x01
     8a4:	e8 01       	movw	r28, r16
     8a6:	ae 81       	ldd	r26, Y+6	; 0x06
     8a8:	bf 81       	ldd	r27, Y+7	; 0x07
     8aa:	2d 93       	st	X+, r18
     8ac:	3d 93       	st	X+, r19
     8ae:	4d 93       	st	X+, r20
     8b0:	5c 93       	st	X, r21
     8b2:	13 97       	sbiw	r26, 0x03	; 3
     8b4:	82 81       	ldd	r24, Z+2	; 0x02
     8b6:	93 81       	ldd	r25, Z+3	; 0x03
     8b8:	90 93 2c 01 	sts	0x012C, r25
     8bc:	80 93 2b 01 	sts	0x012B, r24
     8c0:	cf 01       	movw	r24, r30
     8c2:	0e 94 c1 10 	call	0x2182	; 0x2182 <free>
     8c6:	fb 82       	std	Y+3, r15	; 0x03
     8c8:	ea 82       	std	Y+2, r14	; 0x02
     8ca:	80 91 2b 01 	lds	r24, 0x012B
     8ce:	90 91 2c 01 	lds	r25, 0x012C
     8d2:	88 0f       	add	r24, r24
     8d4:	99 1f       	adc	r25, r25
     8d6:	e0 91 22 02 	lds	r30, 0x0222
     8da:	f0 91 23 02 	lds	r31, 0x0223
     8de:	e8 0f       	add	r30, r24
     8e0:	f9 1f       	adc	r31, r25
     8e2:	01 90       	ld	r0, Z+
     8e4:	f0 81       	ld	r31, Z
     8e6:	e0 2d       	mov	r30, r0
     8e8:	88 81       	ld	r24, Y
     8ea:	99 81       	ldd	r25, Y+1	; 0x01
     8ec:	09 95       	icall
     8ee:	df 91       	pop	r29
     8f0:	cf 91       	pop	r28
     8f2:	1f 91       	pop	r17
     8f4:	0f 91       	pop	r16
     8f6:	ff 90       	pop	r15
     8f8:	ef 90       	pop	r14
     8fa:	08 95       	ret

000008fc <flash_write_cb>:
     8fc:	ef 92       	push	r14
     8fe:	ff 92       	push	r15
     900:	0f 93       	push	r16
     902:	1f 93       	push	r17
     904:	7b 01       	movw	r14, r22
     906:	fc 01       	movw	r30, r24
     908:	00 81       	ld	r16, Z
     90a:	11 81       	ldd	r17, Z+1	; 0x01
     90c:	82 81       	ldd	r24, Z+2	; 0x02
     90e:	93 81       	ldd	r25, Z+3	; 0x03
     910:	90 93 2c 01 	sts	0x012C, r25
     914:	80 93 2b 01 	sts	0x012B, r24
     918:	cf 01       	movw	r24, r30
     91a:	0e 94 c1 10 	call	0x2182	; 0x2182 <free>
     91e:	d8 01       	movw	r26, r16
     920:	13 96       	adiw	r26, 0x03	; 3
     922:	fc 92       	st	X, r15
     924:	ee 92       	st	-X, r14
     926:	12 97       	sbiw	r26, 0x02	; 2
     928:	80 91 2b 01 	lds	r24, 0x012B
     92c:	90 91 2c 01 	lds	r25, 0x012C
     930:	88 0f       	add	r24, r24
     932:	99 1f       	adc	r25, r25
     934:	e0 91 22 02 	lds	r30, 0x0222
     938:	f0 91 23 02 	lds	r31, 0x0223
     93c:	e8 0f       	add	r30, r24
     93e:	f9 1f       	adc	r31, r25
     940:	01 90       	ld	r0, Z+
     942:	f0 81       	ld	r31, Z
     944:	e0 2d       	mov	r30, r0
     946:	8d 91       	ld	r24, X+
     948:	9c 91       	ld	r25, X
     94a:	09 95       	icall
     94c:	1f 91       	pop	r17
     94e:	0f 91       	pop	r16
     950:	ff 90       	pop	r15
     952:	ef 90       	pop	r14
     954:	08 95       	ret

00000956 <flash_read_cb>:
     956:	ef 92       	push	r14
     958:	ff 92       	push	r15
     95a:	0f 93       	push	r16
     95c:	1f 93       	push	r17
     95e:	cf 93       	push	r28
     960:	df 93       	push	r29
     962:	7b 01       	movw	r14, r22
     964:	fc 01       	movw	r30, r24
     966:	00 81       	ld	r16, Z
     968:	11 81       	ldd	r17, Z+1	; 0x01
     96a:	e8 01       	movw	r28, r16
     96c:	aa 85       	ldd	r26, Y+10	; 0x0a
     96e:	bb 85       	ldd	r27, Y+11	; 0x0b
     970:	4d 93       	st	X+, r20
     972:	5c 93       	st	X, r21
     974:	82 81       	ldd	r24, Z+2	; 0x02
     976:	93 81       	ldd	r25, Z+3	; 0x03
     978:	90 93 2c 01 	sts	0x012C, r25
     97c:	80 93 2b 01 	sts	0x012B, r24
     980:	cf 01       	movw	r24, r30
     982:	0e 94 c1 10 	call	0x2182	; 0x2182 <free>
     986:	fb 82       	std	Y+3, r15	; 0x03
     988:	ea 82       	std	Y+2, r14	; 0x02
     98a:	80 91 2b 01 	lds	r24, 0x012B
     98e:	90 91 2c 01 	lds	r25, 0x012C
     992:	88 0f       	add	r24, r24
     994:	99 1f       	adc	r25, r25
     996:	e0 91 22 02 	lds	r30, 0x0222
     99a:	f0 91 23 02 	lds	r31, 0x0223
     99e:	e8 0f       	add	r30, r24
     9a0:	f9 1f       	adc	r31, r25
     9a2:	01 90       	ld	r0, Z+
     9a4:	f0 81       	ld	r31, Z
     9a6:	e0 2d       	mov	r30, r0
     9a8:	88 81       	ld	r24, Y
     9aa:	99 81       	ldd	r25, Y+1	; 0x01
     9ac:	09 95       	icall
     9ae:	df 91       	pop	r29
     9b0:	cf 91       	pop	r28
     9b2:	1f 91       	pop	r17
     9b4:	0f 91       	pop	r16
     9b6:	ff 90       	pop	r15
     9b8:	ef 90       	pop	r14
     9ba:	08 95       	ret

000009bc <send_cb>:
     9bc:	ef 92       	push	r14
     9be:	ff 92       	push	r15
     9c0:	0f 93       	push	r16
     9c2:	1f 93       	push	r17
     9c4:	7b 01       	movw	r14, r22
     9c6:	fc 01       	movw	r30, r24
     9c8:	00 81       	ld	r16, Z
     9ca:	11 81       	ldd	r17, Z+1	; 0x01
     9cc:	82 81       	ldd	r24, Z+2	; 0x02
     9ce:	93 81       	ldd	r25, Z+3	; 0x03
     9d0:	90 93 2c 01 	sts	0x012C, r25
     9d4:	80 93 2b 01 	sts	0x012B, r24
     9d8:	cf 01       	movw	r24, r30
     9da:	0e 94 c1 10 	call	0x2182	; 0x2182 <free>
     9de:	d8 01       	movw	r26, r16
     9e0:	13 96       	adiw	r26, 0x03	; 3
     9e2:	fc 92       	st	X, r15
     9e4:	ee 92       	st	-X, r14
     9e6:	12 97       	sbiw	r26, 0x02	; 2
     9e8:	80 91 2b 01 	lds	r24, 0x012B
     9ec:	90 91 2c 01 	lds	r25, 0x012C
     9f0:	88 0f       	add	r24, r24
     9f2:	99 1f       	adc	r25, r25
     9f4:	e0 91 22 02 	lds	r30, 0x0222
     9f8:	f0 91 23 02 	lds	r31, 0x0223
     9fc:	e8 0f       	add	r30, r24
     9fe:	f9 1f       	adc	r31, r25
     a00:	01 90       	ld	r0, Z+
     a02:	f0 81       	ld	r31, Z
     a04:	e0 2d       	mov	r30, r0
     a06:	8d 91       	ld	r24, X+
     a08:	9c 91       	ld	r25, X
     a0a:	09 95       	icall
     a0c:	1f 91       	pop	r17
     a0e:	0f 91       	pop	r16
     a10:	ff 90       	pop	r15
     a12:	ef 90       	pop	r14
     a14:	08 95       	ret

00000a16 <receive_cb>:
     a16:	ef 92       	push	r14
     a18:	ff 92       	push	r15
     a1a:	0f 93       	push	r16
     a1c:	1f 93       	push	r17
     a1e:	cf 93       	push	r28
     a20:	df 93       	push	r29
     a22:	7b 01       	movw	r14, r22
     a24:	fc 01       	movw	r30, r24
     a26:	00 81       	ld	r16, Z
     a28:	11 81       	ldd	r17, Z+1	; 0x01
     a2a:	e8 01       	movw	r28, r16
     a2c:	aa 85       	ldd	r26, Y+10	; 0x0a
     a2e:	bb 85       	ldd	r27, Y+11	; 0x0b
     a30:	4d 93       	st	X+, r20
     a32:	5c 93       	st	X, r21
     a34:	82 81       	ldd	r24, Z+2	; 0x02
     a36:	93 81       	ldd	r25, Z+3	; 0x03
     a38:	90 93 2c 01 	sts	0x012C, r25
     a3c:	80 93 2b 01 	sts	0x012B, r24
     a40:	cf 01       	movw	r24, r30
     a42:	0e 94 c1 10 	call	0x2182	; 0x2182 <free>
     a46:	fb 82       	std	Y+3, r15	; 0x03
     a48:	ea 82       	std	Y+2, r14	; 0x02
     a4a:	80 91 2b 01 	lds	r24, 0x012B
     a4e:	90 91 2c 01 	lds	r25, 0x012C
     a52:	88 0f       	add	r24, r24
     a54:	99 1f       	adc	r25, r25
     a56:	e0 91 22 02 	lds	r30, 0x0222
     a5a:	f0 91 23 02 	lds	r31, 0x0223
     a5e:	e8 0f       	add	r30, r24
     a60:	f9 1f       	adc	r31, r25
     a62:	01 90       	ld	r0, Z+
     a64:	f0 81       	ld	r31, Z
     a66:	e0 2d       	mov	r30, r0
     a68:	88 81       	ld	r24, Y
     a6a:	99 81       	ldd	r25, Y+1	; 0x01
     a6c:	09 95       	icall
     a6e:	df 91       	pop	r29
     a70:	cf 91       	pop	r28
     a72:	1f 91       	pop	r17
     a74:	0f 91       	pop	r16
     a76:	ff 90       	pop	r15
     a78:	ef 90       	pop	r14
     a7a:	08 95       	ret

00000a7c <sleep_cb>:
     a7c:	ef 92       	push	r14
     a7e:	ff 92       	push	r15
     a80:	0f 93       	push	r16
     a82:	1f 93       	push	r17
     a84:	7b 01       	movw	r14, r22
     a86:	fc 01       	movw	r30, r24
     a88:	00 81       	ld	r16, Z
     a8a:	11 81       	ldd	r17, Z+1	; 0x01
     a8c:	82 81       	ldd	r24, Z+2	; 0x02
     a8e:	93 81       	ldd	r25, Z+3	; 0x03
     a90:	90 93 2c 01 	sts	0x012C, r25
     a94:	80 93 2b 01 	sts	0x012B, r24
     a98:	cf 01       	movw	r24, r30
     a9a:	0e 94 c1 10 	call	0x2182	; 0x2182 <free>
     a9e:	d8 01       	movw	r26, r16
     aa0:	13 96       	adiw	r26, 0x03	; 3
     aa2:	fc 92       	st	X, r15
     aa4:	ee 92       	st	-X, r14
     aa6:	12 97       	sbiw	r26, 0x02	; 2
     aa8:	80 91 2b 01 	lds	r24, 0x012B
     aac:	90 91 2c 01 	lds	r25, 0x012C
     ab0:	88 0f       	add	r24, r24
     ab2:	99 1f       	adc	r25, r25
     ab4:	e0 91 22 02 	lds	r30, 0x0222
     ab8:	f0 91 23 02 	lds	r31, 0x0223
     abc:	e8 0f       	add	r30, r24
     abe:	f9 1f       	adc	r31, r25
     ac0:	01 90       	ld	r0, Z+
     ac2:	f0 81       	ld	r31, Z
     ac4:	e0 2d       	mov	r30, r0
     ac6:	8d 91       	ld	r24, X+
     ac8:	9c 91       	ld	r25, X
     aca:	09 95       	icall
     acc:	1f 91       	pop	r17
     ace:	0f 91       	pop	r16
     ad0:	ff 90       	pop	r15
     ad2:	ef 90       	pop	r14
     ad4:	08 95       	ret

00000ad6 <tc_flash_write>:
     ad6:	0f 93       	push	r16
     ad8:	1f 93       	push	r17
     ada:	8c 01       	movw	r16, r24
     adc:	84 e0       	ldi	r24, 0x04	; 4
     ade:	90 e0       	ldi	r25, 0x00	; 0
     ae0:	0e 94 14 10 	call	0x2028	; 0x2028 <malloc>
     ae4:	fc 01       	movw	r30, r24
     ae6:	11 83       	std	Z+1, r17	; 0x01
     ae8:	00 83       	st	Z, r16
     aea:	d8 01       	movw	r26, r16
     aec:	16 96       	adiw	r26, 0x06	; 6
     aee:	4d 91       	ld	r20, X+
     af0:	5c 91       	ld	r21, X
     af2:	17 97       	sbiw	r26, 0x07	; 7
     af4:	14 96       	adiw	r26, 0x04	; 4
     af6:	2d 91       	ld	r18, X+
     af8:	3c 91       	ld	r19, X
     afa:	15 97       	sbiw	r26, 0x05	; 5
     afc:	18 96       	adiw	r26, 0x08	; 8
     afe:	0d 91       	ld	r16, X+
     b00:	1c 91       	ld	r17, X
     b02:	19 97       	sbiw	r26, 0x09	; 9
     b04:	8e e7       	ldi	r24, 0x7E	; 126
     b06:	94 e0       	ldi	r25, 0x04	; 4
     b08:	bf 01       	movw	r22, r30
     b0a:	0e 94 61 07 	call	0xec2	; 0xec2 <os_flash_write>
     b0e:	1f 91       	pop	r17
     b10:	0f 91       	pop	r16
     b12:	08 95       	ret

00000b14 <tc_flash_read>:
     b14:	0f 93       	push	r16
     b16:	1f 93       	push	r17
     b18:	8c 01       	movw	r16, r24
     b1a:	84 e0       	ldi	r24, 0x04	; 4
     b1c:	90 e0       	ldi	r25, 0x00	; 0
     b1e:	0e 94 14 10 	call	0x2028	; 0x2028 <malloc>
     b22:	fc 01       	movw	r30, r24
     b24:	11 83       	std	Z+1, r17	; 0x01
     b26:	00 83       	st	Z, r16
     b28:	d8 01       	movw	r26, r16
     b2a:	18 96       	adiw	r26, 0x08	; 8
     b2c:	4d 91       	ld	r20, X+
     b2e:	5c 91       	ld	r21, X
     b30:	19 97       	sbiw	r26, 0x09	; 9
     b32:	14 96       	adiw	r26, 0x04	; 4
     b34:	2d 91       	ld	r18, X+
     b36:	3c 91       	ld	r19, X
     b38:	15 97       	sbiw	r26, 0x05	; 5
     b3a:	16 96       	adiw	r26, 0x06	; 6
     b3c:	0d 91       	ld	r16, X+
     b3e:	1c 91       	ld	r17, X
     b40:	17 97       	sbiw	r26, 0x07	; 7
     b42:	8b ea       	ldi	r24, 0xAB	; 171
     b44:	94 e0       	ldi	r25, 0x04	; 4
     b46:	bf 01       	movw	r22, r30
     b48:	0e 94 07 08 	call	0x100e	; 0x100e <os_flash_read>
     b4c:	1f 91       	pop	r17
     b4e:	0f 91       	pop	r16
     b50:	08 95       	ret

00000b52 <tc_send>:
     b52:	0f 93       	push	r16
     b54:	1f 93       	push	r17
     b56:	8c 01       	movw	r16, r24
     b58:	84 e0       	ldi	r24, 0x04	; 4
     b5a:	90 e0       	ldi	r25, 0x00	; 0
     b5c:	0e 94 14 10 	call	0x2028	; 0x2028 <malloc>
     b60:	fc 01       	movw	r30, r24
     b62:	11 83       	std	Z+1, r17	; 0x01
     b64:	00 83       	st	Z, r16
     b66:	d8 01       	movw	r26, r16
     b68:	16 96       	adiw	r26, 0x06	; 6
     b6a:	4d 91       	ld	r20, X+
     b6c:	5c 91       	ld	r21, X
     b6e:	17 97       	sbiw	r26, 0x07	; 7
     b70:	14 96       	adiw	r26, 0x04	; 4
     b72:	2d 91       	ld	r18, X+
     b74:	3c 91       	ld	r19, X
     b76:	15 97       	sbiw	r26, 0x05	; 5
     b78:	18 96       	adiw	r26, 0x08	; 8
     b7a:	0d 91       	ld	r16, X+
     b7c:	1c 91       	ld	r17, X
     b7e:	19 97       	sbiw	r26, 0x09	; 9
     b80:	8e ed       	ldi	r24, 0xDE	; 222
     b82:	94 e0       	ldi	r25, 0x04	; 4
     b84:	bf 01       	movw	r22, r30
     b86:	0e 94 b7 08 	call	0x116e	; 0x116e <os_send>
     b8a:	1f 91       	pop	r17
     b8c:	0f 91       	pop	r16
     b8e:	08 95       	ret

00000b90 <tc_receive>:
     b90:	0f 93       	push	r16
     b92:	1f 93       	push	r17
     b94:	8c 01       	movw	r16, r24
     b96:	84 e0       	ldi	r24, 0x04	; 4
     b98:	90 e0       	ldi	r25, 0x00	; 0
     b9a:	0e 94 14 10 	call	0x2028	; 0x2028 <malloc>
     b9e:	fc 01       	movw	r30, r24
     ba0:	11 83       	std	Z+1, r17	; 0x01
     ba2:	00 83       	st	Z, r16
     ba4:	d8 01       	movw	r26, r16
     ba6:	18 96       	adiw	r26, 0x08	; 8
     ba8:	4d 91       	ld	r20, X+
     baa:	5c 91       	ld	r21, X
     bac:	19 97       	sbiw	r26, 0x09	; 9
     bae:	14 96       	adiw	r26, 0x04	; 4
     bb0:	2d 91       	ld	r18, X+
     bb2:	3c 91       	ld	r19, X
     bb4:	15 97       	sbiw	r26, 0x05	; 5
     bb6:	16 96       	adiw	r26, 0x06	; 6
     bb8:	0d 91       	ld	r16, X+
     bba:	1c 91       	ld	r17, X
     bbc:	17 97       	sbiw	r26, 0x07	; 7
     bbe:	8b e0       	ldi	r24, 0x0B	; 11
     bc0:	95 e0       	ldi	r25, 0x05	; 5
     bc2:	bf 01       	movw	r22, r30
     bc4:	0e 94 27 09 	call	0x124e	; 0x124e <os_receive>
     bc8:	1f 91       	pop	r17
     bca:	0f 91       	pop	r16
     bcc:	08 95       	ret

00000bce <tc_sleep>:
     bce:	0f 93       	push	r16
     bd0:	1f 93       	push	r17
     bd2:	8c 01       	movw	r16, r24
     bd4:	84 e0       	ldi	r24, 0x04	; 4
     bd6:	90 e0       	ldi	r25, 0x00	; 0
     bd8:	0e 94 14 10 	call	0x2028	; 0x2028 <malloc>
     bdc:	fc 01       	movw	r30, r24
     bde:	11 83       	std	Z+1, r17	; 0x01
     be0:	00 83       	st	Z, r16
     be2:	d8 01       	movw	r26, r16
     be4:	14 96       	adiw	r26, 0x04	; 4
     be6:	2d 91       	ld	r18, X+
     be8:	3d 91       	ld	r19, X+
     bea:	4d 91       	ld	r20, X+
     bec:	5c 91       	ld	r21, X
     bee:	17 97       	sbiw	r26, 0x07	; 7
     bf0:	8e e3       	ldi	r24, 0x3E	; 62
     bf2:	95 e0       	ldi	r25, 0x05	; 5
     bf4:	bf 01       	movw	r22, r30
     bf6:	0e 94 b2 06 	call	0xd64	; 0xd64 <os_sleep>
     bfa:	1f 91       	pop	r17
     bfc:	0f 91       	pop	r16
     bfe:	08 95       	ret

00000c00 <pal_run>:
     c00:	0e 94 09 0a 	call	0x1412	; 0x1412 <os_run>
     c04:	08 95       	ret

00000c06 <pal_init>:
     c06:	88 0f       	add	r24, r24
     c08:	99 1f       	adc	r25, r25
     c0a:	0e 94 14 10 	call	0x2028	; 0x2028 <malloc>
     c0e:	80 93 22 02 	sts	0x0222, r24
     c12:	90 93 23 02 	sts	0x0223, r25
     c16:	0e 94 0c 0a 	call	0x1418	; 0x1418 <os_init>
     c1a:	08 95       	ret

00000c1c <os_listen>:
     c1c:	20 91 b6 0a 	lds	r18, 0x0AB6
     c20:	30 91 b7 0a 	lds	r19, 0x0AB7
     c24:	2f 5f       	subi	r18, 0xFF	; 255
     c26:	3f 4f       	sbci	r19, 0xFF	; 255
     c28:	30 93 b7 0a 	sts	0x0AB7, r19
     c2c:	20 93 b6 0a 	sts	0x0AB6, r18
     c30:	21 50       	subi	r18, 0x01	; 1
     c32:	30 40       	sbci	r19, 0x00	; 0
     c34:	c9 01       	movw	r24, r18
     c36:	08 95       	ret

00000c38 <os_connect>:
     c38:	20 91 b6 0a 	lds	r18, 0x0AB6
     c3c:	30 91 b7 0a 	lds	r19, 0x0AB7
     c40:	2f 5f       	subi	r18, 0xFF	; 255
     c42:	3f 4f       	sbci	r19, 0xFF	; 255
     c44:	30 93 b7 0a 	sts	0x0AB7, r19
     c48:	20 93 b6 0a 	sts	0x0AB6, r18
     c4c:	21 50       	subi	r18, 0x01	; 1
     c4e:	30 40       	sbci	r19, 0x00	; 0
     c50:	c9 01       	movw	r24, r18
     c52:	08 95       	ret

00000c54 <os_flash_seek>:
     c54:	80 e0       	ldi	r24, 0x00	; 0
     c56:	90 e0       	ldi	r25, 0x00	; 0
     c58:	08 95       	ret

00000c5a <os_sensor_open>:
     c5a:	20 91 b6 0a 	lds	r18, 0x0AB6
     c5e:	30 91 b7 0a 	lds	r19, 0x0AB7
     c62:	2f 5f       	subi	r18, 0xFF	; 255
     c64:	3f 4f       	sbci	r19, 0xFF	; 255
     c66:	30 93 b7 0a 	sts	0x0AB7, r19
     c6a:	20 93 b6 0a 	sts	0x0AB6, r18
     c6e:	21 50       	subi	r18, 0x01	; 1
     c70:	30 40       	sbci	r19, 0x00	; 0
     c72:	c9 01       	movw	r24, r18
     c74:	08 95       	ret

00000c76 <os_sensor_read>:
     c76:	af 92       	push	r10
     c78:	bf 92       	push	r11
     c7a:	cf 92       	push	r12
     c7c:	df 92       	push	r13
     c7e:	ef 92       	push	r14
     c80:	ff 92       	push	r15
     c82:	0f 93       	push	r16
     c84:	1f 93       	push	r17
     c86:	cf 93       	push	r28
     c88:	df 93       	push	r29
     c8a:	7c 01       	movw	r14, r24
     c8c:	6b 01       	movw	r12, r22
     c8e:	5a 01       	movw	r10, r20
     c90:	8c e0       	ldi	r24, 0x0C	; 12
     c92:	90 e0       	ldi	r25, 0x00	; 0
     c94:	0e 94 14 10 	call	0x2028	; 0x2028 <malloc>
     c98:	8c 01       	movw	r16, r24
     c9a:	dc 01       	movw	r26, r24
     c9c:	13 96       	adiw	r26, 0x03	; 3
     c9e:	fc 92       	st	X, r15
     ca0:	ee 92       	st	-X, r14
     ca2:	12 97       	sbiw	r26, 0x02	; 2
     ca4:	15 96       	adiw	r26, 0x05	; 5
     ca6:	dc 92       	st	X, r13
     ca8:	ce 92       	st	-X, r12
     caa:	14 97       	sbiw	r26, 0x04	; 4
     cac:	0e 94 55 0f 	call	0x1eaa	; 0x1eaa <random_error>
     cb0:	e8 01       	movw	r28, r16
     cb2:	9f 83       	std	Y+7, r25	; 0x07
     cb4:	8e 83       	std	Y+6, r24	; 0x06
     cb6:	84 e6       	ldi	r24, 0x64	; 100
     cb8:	90 e0       	ldi	r25, 0x00	; 0
     cba:	0e 94 27 0f 	call	0x1e4e	; 0x1e4e <random_integer>
     cbe:	aa 27       	eor	r26, r26
     cc0:	97 fd       	sbrc	r25, 7
     cc2:	a0 95       	com	r26
     cc4:	ba 2f       	mov	r27, r26
     cc6:	f8 01       	movw	r30, r16
     cc8:	80 87       	std	Z+8, r24	; 0x08
     cca:	91 87       	std	Z+9, r25	; 0x09
     ccc:	a2 87       	std	Z+10, r26	; 0x0a
     cce:	b3 87       	std	Z+11, r27	; 0x0b
     cd0:	81 e0       	ldi	r24, 0x01	; 1
     cd2:	90 e0       	ldi	r25, 0x00	; 0
     cd4:	63 e0       	ldi	r22, 0x03	; 3
     cd6:	70 e0       	ldi	r23, 0x00	; 0
     cd8:	0e 94 b0 0f 	call	0x1f60	; 0x1f60 <random_integer_range>
     cdc:	6c 01       	movw	r12, r24
     cde:	8d b7       	in	r24, 0x3d	; 61
     ce0:	9e b7       	in	r25, 0x3e	; 62
     ce2:	0a 97       	sbiw	r24, 0x0a	; 10
     ce4:	0f b6       	in	r0, 0x3f	; 63
     ce6:	f8 94       	cli
     ce8:	9e bf       	out	0x3e, r25	; 62
     cea:	0f be       	out	0x3f, r0	; 63
     cec:	8d bf       	out	0x3d, r24	; 61
     cee:	ed b7       	in	r30, 0x3d	; 61
     cf0:	fe b7       	in	r31, 0x3e	; 62
     cf2:	31 96       	adiw	r30, 0x01	; 1
     cf4:	8d e2       	ldi	r24, 0x2D	; 45
     cf6:	91 e0       	ldi	r25, 0x01	; 1
     cf8:	ad b7       	in	r26, 0x3d	; 61
     cfa:	be b7       	in	r27, 0x3e	; 62
     cfc:	12 96       	adiw	r26, 0x02	; 2
     cfe:	9c 93       	st	X, r25
     d00:	8e 93       	st	-X, r24
     d02:	11 97       	sbiw	r26, 0x01	; 1
     d04:	89 e3       	ldi	r24, 0x39	; 57
     d06:	91 e0       	ldi	r25, 0x01	; 1
     d08:	93 83       	std	Z+3, r25	; 0x03
     d0a:	82 83       	std	Z+2, r24	; 0x02
     d0c:	b5 82       	std	Z+5, r11	; 0x05
     d0e:	a4 82       	std	Z+4, r10	; 0x04
     d10:	88 85       	ldd	r24, Y+8	; 0x08
     d12:	99 85       	ldd	r25, Y+9	; 0x09
     d14:	aa 85       	ldd	r26, Y+10	; 0x0a
     d16:	bb 85       	ldd	r27, Y+11	; 0x0b
     d18:	86 83       	std	Z+6, r24	; 0x06
     d1a:	97 83       	std	Z+7, r25	; 0x07
     d1c:	a0 87       	std	Z+8, r26	; 0x08
     d1e:	b1 87       	std	Z+9, r27	; 0x09
     d20:	0e 94 4b 0b 	call	0x1696	; 0x1696 <logger_syscall>
     d24:	99 83       	std	Y+1, r25	; 0x01
     d26:	88 83       	st	Y, r24
     d28:	ed b7       	in	r30, 0x3d	; 61
     d2a:	fe b7       	in	r31, 0x3e	; 62
     d2c:	3a 96       	adiw	r30, 0x0a	; 10
     d2e:	0f b6       	in	r0, 0x3f	; 63
     d30:	f8 94       	cli
     d32:	fe bf       	out	0x3e, r31	; 62
     d34:	0f be       	out	0x3f, r0	; 63
     d36:	ed bf       	out	0x3d, r30	; 61
     d38:	ee 24       	eor	r14, r14
     d3a:	d7 fc       	sbrc	r13, 7
     d3c:	e0 94       	com	r14
     d3e:	fe 2c       	mov	r15, r14
     d40:	c7 01       	movw	r24, r14
     d42:	b6 01       	movw	r22, r12
     d44:	4d e0       	ldi	r20, 0x0D	; 13
     d46:	57 e0       	ldi	r21, 0x07	; 7
     d48:	98 01       	movw	r18, r16
     d4a:	0e 94 b8 0e 	call	0x1d70	; 0x1d70 <dispatcher_enqueue>
     d4e:	df 91       	pop	r29
     d50:	cf 91       	pop	r28
     d52:	1f 91       	pop	r17
     d54:	0f 91       	pop	r16
     d56:	ff 90       	pop	r15
     d58:	ef 90       	pop	r14
     d5a:	df 90       	pop	r13
     d5c:	cf 90       	pop	r12
     d5e:	bf 90       	pop	r11
     d60:	af 90       	pop	r10
     d62:	08 95       	ret

00000d64 <os_sleep>:
     d64:	8f 92       	push	r8
     d66:	9f 92       	push	r9
     d68:	af 92       	push	r10
     d6a:	bf 92       	push	r11
     d6c:	cf 92       	push	r12
     d6e:	df 92       	push	r13
     d70:	ef 92       	push	r14
     d72:	ff 92       	push	r15
     d74:	0f 93       	push	r16
     d76:	1f 93       	push	r17
     d78:	5c 01       	movw	r10, r24
     d7a:	4b 01       	movw	r8, r22
     d7c:	69 01       	movw	r12, r18
     d7e:	7a 01       	movw	r14, r20
     d80:	88 e0       	ldi	r24, 0x08	; 8
     d82:	90 e0       	ldi	r25, 0x00	; 0
     d84:	0e 94 14 10 	call	0x2028	; 0x2028 <malloc>
     d88:	8c 01       	movw	r16, r24
     d8a:	dc 01       	movw	r26, r24
     d8c:	13 96       	adiw	r26, 0x03	; 3
     d8e:	bc 92       	st	X, r11
     d90:	ae 92       	st	-X, r10
     d92:	12 97       	sbiw	r26, 0x02	; 2
     d94:	15 96       	adiw	r26, 0x05	; 5
     d96:	9c 92       	st	X, r9
     d98:	8e 92       	st	-X, r8
     d9a:	14 97       	sbiw	r26, 0x04	; 4
     d9c:	0e 94 55 0f 	call	0x1eaa	; 0x1eaa <random_error>
     da0:	f8 01       	movw	r30, r16
     da2:	97 83       	std	Z+7, r25	; 0x07
     da4:	86 83       	std	Z+6, r24	; 0x06
     da6:	8d b7       	in	r24, 0x3d	; 61
     da8:	9e b7       	in	r25, 0x3e	; 62
     daa:	08 97       	sbiw	r24, 0x08	; 8
     dac:	0f b6       	in	r0, 0x3f	; 63
     dae:	f8 94       	cli
     db0:	9e bf       	out	0x3e, r25	; 62
     db2:	0f be       	out	0x3f, r0	; 63
     db4:	8d bf       	out	0x3d, r24	; 61
     db6:	ed b7       	in	r30, 0x3d	; 61
     db8:	fe b7       	in	r31, 0x3e	; 62
     dba:	31 96       	adiw	r30, 0x01	; 1
     dbc:	80 e4       	ldi	r24, 0x40	; 64
     dbe:	91 e0       	ldi	r25, 0x01	; 1
     dc0:	ad b7       	in	r26, 0x3d	; 61
     dc2:	be b7       	in	r27, 0x3e	; 62
     dc4:	12 96       	adiw	r26, 0x02	; 2
     dc6:	9c 93       	st	X, r25
     dc8:	8e 93       	st	-X, r24
     dca:	11 97       	sbiw	r26, 0x01	; 1
     dcc:	86 e4       	ldi	r24, 0x46	; 70
     dce:	91 e0       	ldi	r25, 0x01	; 1
     dd0:	93 83       	std	Z+3, r25	; 0x03
     dd2:	82 83       	std	Z+2, r24	; 0x02
     dd4:	c4 82       	std	Z+4, r12	; 0x04
     dd6:	d5 82       	std	Z+5, r13	; 0x05
     dd8:	e6 82       	std	Z+6, r14	; 0x06
     dda:	f7 82       	std	Z+7, r15	; 0x07
     ddc:	0e 94 4b 0b 	call	0x1696	; 0x1696 <logger_syscall>
     de0:	f8 01       	movw	r30, r16
     de2:	91 83       	std	Z+1, r25	; 0x01
     de4:	80 83       	st	Z, r24
     de6:	8d b7       	in	r24, 0x3d	; 61
     de8:	9e b7       	in	r25, 0x3e	; 62
     dea:	08 96       	adiw	r24, 0x08	; 8
     dec:	0f b6       	in	r0, 0x3f	; 63
     dee:	f8 94       	cli
     df0:	9e bf       	out	0x3e, r25	; 62
     df2:	0f be       	out	0x3f, r0	; 63
     df4:	8d bf       	out	0x3d, r24	; 61
     df6:	c7 01       	movw	r24, r14
     df8:	b6 01       	movw	r22, r12
     dfa:	4b e2       	ldi	r20, 0x2B	; 43
     dfc:	57 e0       	ldi	r21, 0x07	; 7
     dfe:	98 01       	movw	r18, r16
     e00:	0e 94 b8 0e 	call	0x1d70	; 0x1d70 <dispatcher_enqueue>
     e04:	1f 91       	pop	r17
     e06:	0f 91       	pop	r16
     e08:	ff 90       	pop	r15
     e0a:	ef 90       	pop	r14
     e0c:	df 90       	pop	r13
     e0e:	cf 90       	pop	r12
     e10:	bf 90       	pop	r11
     e12:	af 90       	pop	r10
     e14:	9f 90       	pop	r9
     e16:	8f 90       	pop	r8
     e18:	08 95       	ret

00000e1a <cb_sensor_read>:
     e1a:	0f 93       	push	r16
     e1c:	1f 93       	push	r17
     e1e:	8c 01       	movw	r16, r24
     e20:	dc 01       	movw	r26, r24
     e22:	8d 91       	ld	r24, X+
     e24:	9c 91       	ld	r25, X
     e26:	0e 94 c0 0a 	call	0x1580	; 0x1580 <logger_syscall_return>
     e2a:	f8 01       	movw	r30, r16
     e2c:	66 81       	ldd	r22, Z+6	; 0x06
     e2e:	77 81       	ldd	r23, Z+7	; 0x07
     e30:	20 85       	ldd	r18, Z+8	; 0x08
     e32:	31 85       	ldd	r19, Z+9	; 0x09
     e34:	42 85       	ldd	r20, Z+10	; 0x0a
     e36:	53 85       	ldd	r21, Z+11	; 0x0b
     e38:	02 80       	ldd	r0, Z+2	; 0x02
     e3a:	f3 81       	ldd	r31, Z+3	; 0x03
     e3c:	e0 2d       	mov	r30, r0
     e3e:	d8 01       	movw	r26, r16
     e40:	14 96       	adiw	r26, 0x04	; 4
     e42:	8d 91       	ld	r24, X+
     e44:	9c 91       	ld	r25, X
     e46:	15 97       	sbiw	r26, 0x05	; 5
     e48:	09 95       	icall
     e4a:	c8 01       	movw	r24, r16
     e4c:	0e 94 c1 10 	call	0x2182	; 0x2182 <free>
     e50:	1f 91       	pop	r17
     e52:	0f 91       	pop	r16
     e54:	08 95       	ret

00000e56 <cb_default>:
     e56:	0f 93       	push	r16
     e58:	1f 93       	push	r17
     e5a:	8c 01       	movw	r16, r24
     e5c:	dc 01       	movw	r26, r24
     e5e:	8d 91       	ld	r24, X+
     e60:	9c 91       	ld	r25, X
     e62:	0e 94 c0 0a 	call	0x1580	; 0x1580 <logger_syscall_return>
     e66:	f8 01       	movw	r30, r16
     e68:	66 81       	ldd	r22, Z+6	; 0x06
     e6a:	77 81       	ldd	r23, Z+7	; 0x07
     e6c:	02 80       	ldd	r0, Z+2	; 0x02
     e6e:	f3 81       	ldd	r31, Z+3	; 0x03
     e70:	e0 2d       	mov	r30, r0
     e72:	d8 01       	movw	r26, r16
     e74:	14 96       	adiw	r26, 0x04	; 4
     e76:	8d 91       	ld	r24, X+
     e78:	9c 91       	ld	r25, X
     e7a:	15 97       	sbiw	r26, 0x05	; 5
     e7c:	09 95       	icall
     e7e:	c8 01       	movw	r24, r16
     e80:	0e 94 c1 10 	call	0x2182	; 0x2182 <free>
     e84:	1f 91       	pop	r17
     e86:	0f 91       	pop	r16
     e88:	08 95       	ret

00000e8a <cb_receive>:
     e8a:	0f 93       	push	r16
     e8c:	1f 93       	push	r17
     e8e:	8c 01       	movw	r16, r24
     e90:	dc 01       	movw	r26, r24
     e92:	8d 91       	ld	r24, X+
     e94:	9c 91       	ld	r25, X
     e96:	0e 94 c0 0a 	call	0x1580	; 0x1580 <logger_syscall_return>
     e9a:	f8 01       	movw	r30, r16
     e9c:	66 81       	ldd	r22, Z+6	; 0x06
     e9e:	77 81       	ldd	r23, Z+7	; 0x07
     ea0:	40 85       	ldd	r20, Z+8	; 0x08
     ea2:	51 85       	ldd	r21, Z+9	; 0x09
     ea4:	02 80       	ldd	r0, Z+2	; 0x02
     ea6:	f3 81       	ldd	r31, Z+3	; 0x03
     ea8:	e0 2d       	mov	r30, r0
     eaa:	d8 01       	movw	r26, r16
     eac:	14 96       	adiw	r26, 0x04	; 4
     eae:	8d 91       	ld	r24, X+
     eb0:	9c 91       	ld	r25, X
     eb2:	15 97       	sbiw	r26, 0x05	; 5
     eb4:	09 95       	icall
     eb6:	c8 01       	movw	r24, r16
     eb8:	0e 94 c1 10 	call	0x2182	; 0x2182 <free>
     ebc:	1f 91       	pop	r17
     ebe:	0f 91       	pop	r16
     ec0:	08 95       	ret

00000ec2 <os_flash_write>:
     ec2:	4f 92       	push	r4
     ec4:	5f 92       	push	r5
     ec6:	6f 92       	push	r6
     ec8:	7f 92       	push	r7
     eca:	8f 92       	push	r8
     ecc:	9f 92       	push	r9
     ece:	af 92       	push	r10
     ed0:	bf 92       	push	r11
     ed2:	cf 92       	push	r12
     ed4:	df 92       	push	r13
     ed6:	ef 92       	push	r14
     ed8:	ff 92       	push	r15
     eda:	0f 93       	push	r16
     edc:	1f 93       	push	r17
     ede:	cf 93       	push	r28
     ee0:	df 93       	push	r29
     ee2:	4c 01       	movw	r8, r24
     ee4:	3b 01       	movw	r6, r22
     ee6:	5a 01       	movw	r10, r20
     ee8:	52 2e       	mov	r5, r18
     eea:	43 2e       	mov	r4, r19
     eec:	68 01       	movw	r12, r16
     eee:	80 91 bc 12 	lds	r24, 0x12BC
     ef2:	90 91 bd 12 	lds	r25, 0x12BD
     ef6:	48 17       	cp	r20, r24
     ef8:	59 07       	cpc	r21, r25
     efa:	0c f0       	brlt	.+2      	; 0xefe <os_flash_write+0x3c>
     efc:	86 c0       	rjmp	.+268    	; 0x100a <os_flash_write+0x148>
     efe:	82 e0       	ldi	r24, 0x02	; 2
     f00:	94 e0       	ldi	r25, 0x04	; 4
     f02:	48 9f       	mul	r20, r24
     f04:	70 01       	movw	r14, r0
     f06:	49 9f       	mul	r20, r25
     f08:	f0 0c       	add	r15, r0
     f0a:	58 9f       	mul	r21, r24
     f0c:	f0 0c       	add	r15, r0
     f0e:	11 24       	eor	r1, r1
     f10:	87 01       	movw	r16, r14
     f12:	08 54       	subi	r16, 0x48	; 72
     f14:	11 4f       	sbci	r17, 0xF1	; 241
     f16:	d8 01       	movw	r26, r16
     f18:	8d 91       	ld	r24, X+
     f1a:	9c 91       	ld	r25, X
     f1c:	8c 0d       	add	r24, r12
     f1e:	9d 1d       	adc	r25, r13
     f20:	80 50       	subi	r24, 0x00	; 0
     f22:	94 40       	sbci	r25, 0x04	; 4
     f24:	08 f0       	brcs	.+2      	; 0xf28 <os_flash_write+0x66>
     f26:	71 c0       	rjmp	.+226    	; 0x100a <os_flash_write+0x148>
     f28:	88 e0       	ldi	r24, 0x08	; 8
     f2a:	90 e0       	ldi	r25, 0x00	; 0
     f2c:	0e 94 14 10 	call	0x2028	; 0x2028 <malloc>
     f30:	ec 01       	movw	r28, r24
     f32:	9b 82       	std	Y+3, r9	; 0x03
     f34:	8a 82       	std	Y+2, r8	; 0x02
     f36:	7d 82       	std	Y+5, r7	; 0x05
     f38:	6c 82       	std	Y+4, r6	; 0x04
     f3a:	0e 94 55 0f 	call	0x1eaa	; 0x1eaa <random_error>
     f3e:	9f 83       	std	Y+7, r25	; 0x07
     f40:	8e 83       	std	Y+6, r24	; 0x06
     f42:	89 2b       	or	r24, r25
     f44:	a9 f4       	brne	.+42     	; 0xf70 <os_flash_write+0xae>
     f46:	f8 01       	movw	r30, r16
     f48:	20 81       	ld	r18, Z
     f4a:	31 81       	ldd	r19, Z+1	; 0x01
     f4c:	2e 0d       	add	r18, r14
     f4e:	3f 1d       	adc	r19, r15
     f50:	28 54       	subi	r18, 0x48	; 72
     f52:	35 4f       	sbci	r19, 0xF5	; 245
     f54:	c9 01       	movw	r24, r18
     f56:	65 2d       	mov	r22, r5
     f58:	74 2d       	mov	r23, r4
     f5a:	a6 01       	movw	r20, r12
     f5c:	0e 94 89 11 	call	0x2312	; 0x2312 <memcpy>
     f60:	d8 01       	movw	r26, r16
     f62:	8d 91       	ld	r24, X+
     f64:	9c 91       	ld	r25, X
     f66:	11 97       	sbiw	r26, 0x01	; 1
     f68:	8c 0d       	add	r24, r12
     f6a:	9d 1d       	adc	r25, r13
     f6c:	8d 93       	st	X+, r24
     f6e:	9c 93       	st	X, r25
     f70:	81 e0       	ldi	r24, 0x01	; 1
     f72:	90 e0       	ldi	r25, 0x00	; 0
     f74:	67 e0       	ldi	r22, 0x07	; 7
     f76:	70 e0       	ldi	r23, 0x00	; 0
     f78:	0e 94 b0 0f 	call	0x1f60	; 0x1f60 <random_integer_range>
     f7c:	7c 01       	movw	r14, r24
     f7e:	85 2d       	mov	r24, r5
     f80:	94 2d       	mov	r25, r4
     f82:	b6 01       	movw	r22, r12
     f84:	0e 94 23 0a 	call	0x1446	; 0x1446 <array>
     f88:	ed b7       	in	r30, 0x3d	; 61
     f8a:	fe b7       	in	r31, 0x3e	; 62
     f8c:	38 97       	sbiw	r30, 0x08	; 8
     f8e:	0f b6       	in	r0, 0x3f	; 63
     f90:	f8 94       	cli
     f92:	fe bf       	out	0x3e, r31	; 62
     f94:	0f be       	out	0x3f, r0	; 63
     f96:	ed bf       	out	0x3d, r30	; 61
     f98:	31 96       	adiw	r30, 0x01	; 1
     f9a:	29 e4       	ldi	r18, 0x49	; 73
     f9c:	31 e0       	ldi	r19, 0x01	; 1
     f9e:	ad b7       	in	r26, 0x3d	; 61
     fa0:	be b7       	in	r27, 0x3e	; 62
     fa2:	12 96       	adiw	r26, 0x02	; 2
     fa4:	3c 93       	st	X, r19
     fa6:	2e 93       	st	-X, r18
     fa8:	11 97       	sbiw	r26, 0x01	; 1
     faa:	25 e5       	ldi	r18, 0x55	; 85
     fac:	31 e0       	ldi	r19, 0x01	; 1
     fae:	33 83       	std	Z+3, r19	; 0x03
     fb0:	22 83       	std	Z+2, r18	; 0x02
     fb2:	b5 82       	std	Z+5, r11	; 0x05
     fb4:	a4 82       	std	Z+4, r10	; 0x04
     fb6:	97 83       	std	Z+7, r25	; 0x07
     fb8:	86 83       	std	Z+6, r24	; 0x06
     fba:	0e 94 4b 0b 	call	0x1696	; 0x1696 <logger_syscall>
     fbe:	99 83       	std	Y+1, r25	; 0x01
     fc0:	88 83       	st	Y, r24
     fc2:	ed b7       	in	r30, 0x3d	; 61
     fc4:	fe b7       	in	r31, 0x3e	; 62
     fc6:	38 96       	adiw	r30, 0x08	; 8
     fc8:	0f b6       	in	r0, 0x3f	; 63
     fca:	f8 94       	cli
     fcc:	fe bf       	out	0x3e, r31	; 62
     fce:	0f be       	out	0x3f, r0	; 63
     fd0:	ed bf       	out	0x3d, r30	; 61
     fd2:	00 27       	eor	r16, r16
     fd4:	f7 fc       	sbrc	r15, 7
     fd6:	00 95       	com	r16
     fd8:	10 2f       	mov	r17, r16
     fda:	c8 01       	movw	r24, r16
     fdc:	b7 01       	movw	r22, r14
     fde:	4b e2       	ldi	r20, 0x2B	; 43
     fe0:	57 e0       	ldi	r21, 0x07	; 7
     fe2:	9e 01       	movw	r18, r28
     fe4:	0e 94 b8 0e 	call	0x1d70	; 0x1d70 <dispatcher_enqueue>
     fe8:	df 91       	pop	r29
     fea:	cf 91       	pop	r28
     fec:	1f 91       	pop	r17
     fee:	0f 91       	pop	r16
     ff0:	ff 90       	pop	r15
     ff2:	ef 90       	pop	r14
     ff4:	df 90       	pop	r13
     ff6:	cf 90       	pop	r12
     ff8:	bf 90       	pop	r11
     ffa:	af 90       	pop	r10
     ffc:	9f 90       	pop	r9
     ffe:	8f 90       	pop	r8
    1000:	7f 90       	pop	r7
    1002:	6f 90       	pop	r6
    1004:	5f 90       	pop	r5
    1006:	4f 90       	pop	r4
    1008:	08 95       	ret
    100a:	0e 94 84 11 	call	0x2308	; 0x2308 <abort>

0000100e <os_flash_read>:
    100e:	4f 92       	push	r4
    1010:	5f 92       	push	r5
    1012:	6f 92       	push	r6
    1014:	7f 92       	push	r7
    1016:	8f 92       	push	r8
    1018:	9f 92       	push	r9
    101a:	af 92       	push	r10
    101c:	bf 92       	push	r11
    101e:	cf 92       	push	r12
    1020:	df 92       	push	r13
    1022:	ef 92       	push	r14
    1024:	ff 92       	push	r15
    1026:	0f 93       	push	r16
    1028:	1f 93       	push	r17
    102a:	cf 93       	push	r28
    102c:	df 93       	push	r29
    102e:	6c 01       	movw	r12, r24
    1030:	4b 01       	movw	r8, r22
    1032:	5a 01       	movw	r10, r20
    1034:	52 2e       	mov	r5, r18
    1036:	43 2e       	mov	r4, r19
    1038:	38 01       	movw	r6, r16
    103a:	80 91 bc 12 	lds	r24, 0x12BC
    103e:	90 91 bd 12 	lds	r25, 0x12BD
    1042:	48 17       	cp	r20, r24
    1044:	59 07       	cpc	r21, r25
    1046:	0c f0       	brlt	.+2      	; 0x104a <os_flash_read+0x3c>
    1048:	90 c0       	rjmp	.+288    	; 0x116a <__stack+0x6b>
    104a:	82 e0       	ldi	r24, 0x02	; 2
    104c:	94 e0       	ldi	r25, 0x04	; 4
    104e:	48 9f       	mul	r20, r24
    1050:	e0 01       	movw	r28, r0
    1052:	49 9f       	mul	r20, r25
    1054:	d0 0d       	add	r29, r0
    1056:	58 9f       	mul	r21, r24
    1058:	d0 0d       	add	r29, r0
    105a:	11 24       	eor	r1, r1
    105c:	c8 54       	subi	r28, 0x48	; 72
    105e:	d5 4f       	sbci	r29, 0xF5	; 245
    1060:	e1 2c       	mov	r14, r1
    1062:	84 e0       	ldi	r24, 0x04	; 4
    1064:	f8 2e       	mov	r15, r24
    1066:	ec 0e       	add	r14, r28
    1068:	fd 1e       	adc	r15, r29
    106a:	d7 01       	movw	r26, r14
    106c:	8d 91       	ld	r24, X+
    106e:	9c 91       	ld	r25, X
    1070:	08 17       	cp	r16, r24
    1072:	19 07       	cpc	r17, r25
    1074:	08 f4       	brcc	.+2      	; 0x1078 <os_flash_read+0x6a>
    1076:	79 c0       	rjmp	.+242    	; 0x116a <__stack+0x6b>
    1078:	8a e0       	ldi	r24, 0x0A	; 10
    107a:	90 e0       	ldi	r25, 0x00	; 0
    107c:	0e 94 14 10 	call	0x2028	; 0x2028 <malloc>
    1080:	8c 01       	movw	r16, r24
    1082:	fc 01       	movw	r30, r24
    1084:	d3 82       	std	Z+3, r13	; 0x03
    1086:	c2 82       	std	Z+2, r12	; 0x02
    1088:	95 82       	std	Z+5, r9	; 0x05
    108a:	84 82       	std	Z+4, r8	; 0x04
    108c:	17 82       	std	Z+7, r1	; 0x07
    108e:	16 82       	std	Z+6, r1	; 0x06
    1090:	d7 01       	movw	r26, r14
    1092:	4d 91       	ld	r20, X+
    1094:	5c 91       	ld	r21, X
    1096:	85 2d       	mov	r24, r5
    1098:	94 2d       	mov	r25, r4
    109a:	be 01       	movw	r22, r28
    109c:	0e 94 89 11 	call	0x2312	; 0x2312 <memcpy>
    10a0:	f7 01       	movw	r30, r14
    10a2:	80 81       	ld	r24, Z
    10a4:	91 81       	ldd	r25, Z+1	; 0x01
    10a6:	d8 01       	movw	r26, r16
    10a8:	19 96       	adiw	r26, 0x09	; 9
    10aa:	9c 93       	st	X, r25
    10ac:	8e 93       	st	-X, r24
    10ae:	18 97       	sbiw	r26, 0x08	; 8
    10b0:	11 82       	std	Z+1, r1	; 0x01
    10b2:	10 82       	st	Z, r1
    10b4:	81 e0       	ldi	r24, 0x01	; 1
    10b6:	90 e0       	ldi	r25, 0x00	; 0
    10b8:	6a e0       	ldi	r22, 0x0A	; 10
    10ba:	70 e0       	ldi	r23, 0x00	; 0
    10bc:	0e 94 b0 0f 	call	0x1f60	; 0x1f60 <random_integer_range>
    10c0:	6c 01       	movw	r12, r24
    10c2:	f8 01       	movw	r30, r16
    10c4:	60 85       	ldd	r22, Z+8	; 0x08
    10c6:	71 85       	ldd	r23, Z+9	; 0x09
    10c8:	85 2d       	mov	r24, r5
    10ca:	94 2d       	mov	r25, r4
    10cc:	0e 94 23 0a 	call	0x1446	; 0x1446 <array>
    10d0:	2d b7       	in	r18, 0x3d	; 61
    10d2:	3e b7       	in	r19, 0x3e	; 62
    10d4:	2c 50       	subi	r18, 0x0C	; 12
    10d6:	30 40       	sbci	r19, 0x00	; 0
    10d8:	0f b6       	in	r0, 0x3f	; 63
    10da:	f8 94       	cli
    10dc:	3e bf       	out	0x3e, r19	; 62
    10de:	0f be       	out	0x3f, r0	; 63
    10e0:	2d bf       	out	0x3d, r18	; 61
    10e2:	ed b7       	in	r30, 0x3d	; 61
    10e4:	fe b7       	in	r31, 0x3e	; 62
    10e6:	31 96       	adiw	r30, 0x01	; 1
    10e8:	2c e5       	ldi	r18, 0x5C	; 92
    10ea:	31 e0       	ldi	r19, 0x01	; 1
    10ec:	ad b7       	in	r26, 0x3d	; 61
    10ee:	be b7       	in	r27, 0x3e	; 62
    10f0:	12 96       	adiw	r26, 0x02	; 2
    10f2:	3c 93       	st	X, r19
    10f4:	2e 93       	st	-X, r18
    10f6:	11 97       	sbiw	r26, 0x01	; 1
    10f8:	27 e6       	ldi	r18, 0x67	; 103
    10fa:	31 e0       	ldi	r19, 0x01	; 1
    10fc:	33 83       	std	Z+3, r19	; 0x03
    10fe:	22 83       	std	Z+2, r18	; 0x02
    1100:	b5 82       	std	Z+5, r11	; 0x05
    1102:	a4 82       	std	Z+4, r10	; 0x04
    1104:	93 01       	movw	r18, r6
    1106:	40 e0       	ldi	r20, 0x00	; 0
    1108:	50 e0       	ldi	r21, 0x00	; 0
    110a:	26 83       	std	Z+6, r18	; 0x06
    110c:	37 83       	std	Z+7, r19	; 0x07
    110e:	40 87       	std	Z+8, r20	; 0x08
    1110:	51 87       	std	Z+9, r21	; 0x09
    1112:	93 87       	std	Z+11, r25	; 0x0b
    1114:	82 87       	std	Z+10, r24	; 0x0a
    1116:	0e 94 4b 0b 	call	0x1696	; 0x1696 <logger_syscall>
    111a:	f8 01       	movw	r30, r16
    111c:	91 83       	std	Z+1, r25	; 0x01
    111e:	80 83       	st	Z, r24
    1120:	2d b7       	in	r18, 0x3d	; 61
    1122:	3e b7       	in	r19, 0x3e	; 62
    1124:	24 5f       	subi	r18, 0xF4	; 244
    1126:	3f 4f       	sbci	r19, 0xFF	; 255
    1128:	0f b6       	in	r0, 0x3f	; 63
    112a:	f8 94       	cli
    112c:	3e bf       	out	0x3e, r19	; 62
    112e:	0f be       	out	0x3f, r0	; 63
    1130:	2d bf       	out	0x3d, r18	; 61
    1132:	ee 24       	eor	r14, r14
    1134:	d7 fc       	sbrc	r13, 7
    1136:	e0 94       	com	r14
    1138:	fe 2c       	mov	r15, r14
    113a:	c7 01       	movw	r24, r14
    113c:	b6 01       	movw	r22, r12
    113e:	45 e4       	ldi	r20, 0x45	; 69
    1140:	57 e0       	ldi	r21, 0x07	; 7
    1142:	98 01       	movw	r18, r16
    1144:	0e 94 b8 0e 	call	0x1d70	; 0x1d70 <dispatcher_enqueue>
    1148:	df 91       	pop	r29
    114a:	cf 91       	pop	r28
    114c:	1f 91       	pop	r17
    114e:	0f 91       	pop	r16
    1150:	ff 90       	pop	r15
    1152:	ef 90       	pop	r14
    1154:	df 90       	pop	r13
    1156:	cf 90       	pop	r12
    1158:	bf 90       	pop	r11
    115a:	af 90       	pop	r10
    115c:	9f 90       	pop	r9
    115e:	8f 90       	pop	r8
    1160:	7f 90       	pop	r7
    1162:	6f 90       	pop	r6
    1164:	5f 90       	pop	r5
    1166:	4f 90       	pop	r4
    1168:	08 95       	ret
    116a:	0e 94 84 11 	call	0x2308	; 0x2308 <abort>

0000116e <os_send>:
    116e:	6f 92       	push	r6
    1170:	7f 92       	push	r7
    1172:	8f 92       	push	r8
    1174:	9f 92       	push	r9
    1176:	af 92       	push	r10
    1178:	bf 92       	push	r11
    117a:	cf 92       	push	r12
    117c:	df 92       	push	r13
    117e:	ef 92       	push	r14
    1180:	ff 92       	push	r15
    1182:	0f 93       	push	r16
    1184:	1f 93       	push	r17
    1186:	6c 01       	movw	r12, r24
    1188:	5b 01       	movw	r10, r22
    118a:	3a 01       	movw	r6, r20
    118c:	49 01       	movw	r8, r18
    118e:	88 e0       	ldi	r24, 0x08	; 8
    1190:	90 e0       	ldi	r25, 0x00	; 0
    1192:	0e 94 14 10 	call	0x2028	; 0x2028 <malloc>
    1196:	7c 01       	movw	r14, r24
    1198:	dc 01       	movw	r26, r24
    119a:	13 96       	adiw	r26, 0x03	; 3
    119c:	dc 92       	st	X, r13
    119e:	ce 92       	st	-X, r12
    11a0:	12 97       	sbiw	r26, 0x02	; 2
    11a2:	15 96       	adiw	r26, 0x05	; 5
    11a4:	bc 92       	st	X, r11
    11a6:	ae 92       	st	-X, r10
    11a8:	14 97       	sbiw	r26, 0x04	; 4
    11aa:	0e 94 55 0f 	call	0x1eaa	; 0x1eaa <random_error>
    11ae:	f7 01       	movw	r30, r14
    11b0:	97 83       	std	Z+7, r25	; 0x07
    11b2:	86 83       	std	Z+6, r24	; 0x06
    11b4:	81 e0       	ldi	r24, 0x01	; 1
    11b6:	90 e0       	ldi	r25, 0x00	; 0
    11b8:	65 e0       	ldi	r22, 0x05	; 5
    11ba:	70 e0       	ldi	r23, 0x00	; 0
    11bc:	0e 94 b0 0f 	call	0x1f60	; 0x1f60 <random_integer_range>
    11c0:	5c 01       	movw	r10, r24
    11c2:	c4 01       	movw	r24, r8
    11c4:	b8 01       	movw	r22, r16
    11c6:	0e 94 23 0a 	call	0x1446	; 0x1446 <array>
    11ca:	2d b7       	in	r18, 0x3d	; 61
    11cc:	3e b7       	in	r19, 0x3e	; 62
    11ce:	28 50       	subi	r18, 0x08	; 8
    11d0:	30 40       	sbci	r19, 0x00	; 0
    11d2:	0f b6       	in	r0, 0x3f	; 63
    11d4:	f8 94       	cli
    11d6:	3e bf       	out	0x3e, r19	; 62
    11d8:	0f be       	out	0x3f, r0	; 63
    11da:	2d bf       	out	0x3d, r18	; 61
    11dc:	ed b7       	in	r30, 0x3d	; 61
    11de:	fe b7       	in	r31, 0x3e	; 62
    11e0:	31 96       	adiw	r30, 0x01	; 1
    11e2:	23 e7       	ldi	r18, 0x73	; 115
    11e4:	31 e0       	ldi	r19, 0x01	; 1
    11e6:	ad b7       	in	r26, 0x3d	; 61
    11e8:	be b7       	in	r27, 0x3e	; 62
    11ea:	12 96       	adiw	r26, 0x02	; 2
    11ec:	3c 93       	st	X, r19
    11ee:	2e 93       	st	-X, r18
    11f0:	11 97       	sbiw	r26, 0x01	; 1
    11f2:	25 e5       	ldi	r18, 0x55	; 85
    11f4:	31 e0       	ldi	r19, 0x01	; 1
    11f6:	33 83       	std	Z+3, r19	; 0x03
    11f8:	22 83       	std	Z+2, r18	; 0x02
    11fa:	75 82       	std	Z+5, r7	; 0x05
    11fc:	64 82       	std	Z+4, r6	; 0x04
    11fe:	97 83       	std	Z+7, r25	; 0x07
    1200:	86 83       	std	Z+6, r24	; 0x06
    1202:	0e 94 4b 0b 	call	0x1696	; 0x1696 <logger_syscall>
    1206:	f7 01       	movw	r30, r14
    1208:	91 83       	std	Z+1, r25	; 0x01
    120a:	80 83       	st	Z, r24
    120c:	2d b7       	in	r18, 0x3d	; 61
    120e:	3e b7       	in	r19, 0x3e	; 62
    1210:	28 5f       	subi	r18, 0xF8	; 248
    1212:	3f 4f       	sbci	r19, 0xFF	; 255
    1214:	0f b6       	in	r0, 0x3f	; 63
    1216:	f8 94       	cli
    1218:	3e bf       	out	0x3e, r19	; 62
    121a:	0f be       	out	0x3f, r0	; 63
    121c:	2d bf       	out	0x3d, r18	; 61
    121e:	cc 24       	eor	r12, r12
    1220:	b7 fc       	sbrc	r11, 7
    1222:	c0 94       	com	r12
    1224:	dc 2c       	mov	r13, r12
    1226:	c6 01       	movw	r24, r12
    1228:	b5 01       	movw	r22, r10
    122a:	4b e2       	ldi	r20, 0x2B	; 43
    122c:	57 e0       	ldi	r21, 0x07	; 7
    122e:	97 01       	movw	r18, r14
    1230:	0e 94 b8 0e 	call	0x1d70	; 0x1d70 <dispatcher_enqueue>
    1234:	1f 91       	pop	r17
    1236:	0f 91       	pop	r16
    1238:	ff 90       	pop	r15
    123a:	ef 90       	pop	r14
    123c:	df 90       	pop	r13
    123e:	cf 90       	pop	r12
    1240:	bf 90       	pop	r11
    1242:	af 90       	pop	r10
    1244:	9f 90       	pop	r9
    1246:	8f 90       	pop	r8
    1248:	7f 90       	pop	r7
    124a:	6f 90       	pop	r6
    124c:	08 95       	ret

0000124e <os_receive>:
    124e:	4f 92       	push	r4
    1250:	5f 92       	push	r5
    1252:	6f 92       	push	r6
    1254:	7f 92       	push	r7
    1256:	8f 92       	push	r8
    1258:	9f 92       	push	r9
    125a:	af 92       	push	r10
    125c:	bf 92       	push	r11
    125e:	cf 92       	push	r12
    1260:	df 92       	push	r13
    1262:	ef 92       	push	r14
    1264:	ff 92       	push	r15
    1266:	0f 93       	push	r16
    1268:	1f 93       	push	r17
    126a:	7c 01       	movw	r14, r24
    126c:	6b 01       	movw	r12, r22
    126e:	2a 01       	movw	r4, r20
    1270:	39 01       	movw	r6, r18
    1272:	48 01       	movw	r8, r16
    1274:	8a e0       	ldi	r24, 0x0A	; 10
    1276:	90 e0       	ldi	r25, 0x00	; 0
    1278:	0e 94 14 10 	call	0x2028	; 0x2028 <malloc>
    127c:	8c 01       	movw	r16, r24
    127e:	dc 01       	movw	r26, r24
    1280:	13 96       	adiw	r26, 0x03	; 3
    1282:	fc 92       	st	X, r15
    1284:	ee 92       	st	-X, r14
    1286:	12 97       	sbiw	r26, 0x02	; 2
    1288:	15 96       	adiw	r26, 0x05	; 5
    128a:	dc 92       	st	X, r13
    128c:	ce 92       	st	-X, r12
    128e:	14 97       	sbiw	r26, 0x04	; 4
    1290:	0e 94 55 0f 	call	0x1eaa	; 0x1eaa <random_error>
    1294:	f8 01       	movw	r30, r16
    1296:	97 83       	std	Z+7, r25	; 0x07
    1298:	86 83       	std	Z+6, r24	; 0x06
    129a:	81 e0       	ldi	r24, 0x01	; 1
    129c:	90 e0       	ldi	r25, 0x00	; 0
    129e:	b4 01       	movw	r22, r8
    12a0:	0e 94 b0 0f 	call	0x1f60	; 0x1f60 <random_integer_range>
    12a4:	bc 01       	movw	r22, r24
    12a6:	d8 01       	movw	r26, r16
    12a8:	18 96       	adiw	r26, 0x08	; 8
    12aa:	8c 93       	st	X, r24
    12ac:	18 97       	sbiw	r26, 0x08	; 8
    12ae:	19 96       	adiw	r26, 0x09	; 9
    12b0:	7c 93       	st	X, r23
    12b2:	c3 01       	movw	r24, r6
    12b4:	0e 94 81 0f 	call	0x1f02	; 0x1f02 <random_string>
    12b8:	8a e0       	ldi	r24, 0x0A	; 10
    12ba:	90 e0       	ldi	r25, 0x00	; 0
    12bc:	68 ee       	ldi	r22, 0xE8	; 232
    12be:	73 e0       	ldi	r23, 0x03	; 3
    12c0:	0e 94 b0 0f 	call	0x1f60	; 0x1f60 <random_integer_range>
    12c4:	6c 01       	movw	r12, r24
    12c6:	f8 01       	movw	r30, r16
    12c8:	60 85       	ldd	r22, Z+8	; 0x08
    12ca:	71 85       	ldd	r23, Z+9	; 0x09
    12cc:	c3 01       	movw	r24, r6
    12ce:	0e 94 23 0a 	call	0x1446	; 0x1446 <array>
    12d2:	2d b7       	in	r18, 0x3d	; 61
    12d4:	3e b7       	in	r19, 0x3e	; 62
    12d6:	2c 50       	subi	r18, 0x0C	; 12
    12d8:	30 40       	sbci	r19, 0x00	; 0
    12da:	0f b6       	in	r0, 0x3f	; 63
    12dc:	f8 94       	cli
    12de:	3e bf       	out	0x3e, r19	; 62
    12e0:	0f be       	out	0x3f, r0	; 63
    12e2:	2d bf       	out	0x3d, r18	; 61
    12e4:	ed b7       	in	r30, 0x3d	; 61
    12e6:	fe b7       	in	r31, 0x3e	; 62
    12e8:	31 96       	adiw	r30, 0x01	; 1
    12ea:	28 e7       	ldi	r18, 0x78	; 120
    12ec:	31 e0       	ldi	r19, 0x01	; 1
    12ee:	ad b7       	in	r26, 0x3d	; 61
    12f0:	be b7       	in	r27, 0x3e	; 62
    12f2:	12 96       	adiw	r26, 0x02	; 2
    12f4:	3c 93       	st	X, r19
    12f6:	2e 93       	st	-X, r18
    12f8:	11 97       	sbiw	r26, 0x01	; 1
    12fa:	27 e6       	ldi	r18, 0x67	; 103
    12fc:	31 e0       	ldi	r19, 0x01	; 1
    12fe:	33 83       	std	Z+3, r19	; 0x03
    1300:	22 83       	std	Z+2, r18	; 0x02
    1302:	55 82       	std	Z+5, r5	; 0x05
    1304:	44 82       	std	Z+4, r4	; 0x04
    1306:	aa 24       	eor	r10, r10
    1308:	bb 24       	eor	r11, r11
    130a:	86 82       	std	Z+6, r8	; 0x06
    130c:	97 82       	std	Z+7, r9	; 0x07
    130e:	a0 86       	std	Z+8, r10	; 0x08
    1310:	b1 86       	std	Z+9, r11	; 0x09
    1312:	93 87       	std	Z+11, r25	; 0x0b
    1314:	82 87       	std	Z+10, r24	; 0x0a
    1316:	0e 94 4b 0b 	call	0x1696	; 0x1696 <logger_syscall>
    131a:	f8 01       	movw	r30, r16
    131c:	91 83       	std	Z+1, r25	; 0x01
    131e:	80 83       	st	Z, r24
    1320:	2d b7       	in	r18, 0x3d	; 61
    1322:	3e b7       	in	r19, 0x3e	; 62
    1324:	24 5f       	subi	r18, 0xF4	; 244
    1326:	3f 4f       	sbci	r19, 0xFF	; 255
    1328:	0f b6       	in	r0, 0x3f	; 63
    132a:	f8 94       	cli
    132c:	3e bf       	out	0x3e, r19	; 62
    132e:	0f be       	out	0x3f, r0	; 63
    1330:	2d bf       	out	0x3d, r18	; 61
    1332:	ee 24       	eor	r14, r14
    1334:	d7 fc       	sbrc	r13, 7
    1336:	e0 94       	com	r14
    1338:	fe 2c       	mov	r15, r14
    133a:	c7 01       	movw	r24, r14
    133c:	b6 01       	movw	r22, r12
    133e:	45 e4       	ldi	r20, 0x45	; 69
    1340:	57 e0       	ldi	r21, 0x07	; 7
    1342:	98 01       	movw	r18, r16
    1344:	0e 94 b8 0e 	call	0x1d70	; 0x1d70 <dispatcher_enqueue>
    1348:	1f 91       	pop	r17
    134a:	0f 91       	pop	r16
    134c:	ff 90       	pop	r15
    134e:	ef 90       	pop	r14
    1350:	df 90       	pop	r13
    1352:	cf 90       	pop	r12
    1354:	bf 90       	pop	r11
    1356:	af 90       	pop	r10
    1358:	9f 90       	pop	r9
    135a:	8f 90       	pop	r8
    135c:	7f 90       	pop	r7
    135e:	6f 90       	pop	r6
    1360:	5f 90       	pop	r5
    1362:	4f 90       	pop	r4
    1364:	08 95       	ret

00001366 <os_flash_open>:
    1366:	cf 92       	push	r12
    1368:	df 92       	push	r13
    136a:	ef 92       	push	r14
    136c:	ff 92       	push	r15
    136e:	0f 93       	push	r16
    1370:	1f 93       	push	r17
    1372:	cf 93       	push	r28
    1374:	df 93       	push	r29
    1376:	6c 01       	movw	r12, r24
    1378:	e0 90 bc 12 	lds	r14, 0x12BC
    137c:	f0 90 bd 12 	lds	r15, 0x12BD
    1380:	1e 14       	cp	r1, r14
    1382:	1f 04       	cpc	r1, r15
    1384:	ac f4       	brge	.+42     	; 0x13b0 <os_flash_open+0x4a>
    1386:	0e eb       	ldi	r16, 0xBE	; 190
    1388:	12 e1       	ldi	r17, 0x12	; 18
    138a:	c0 e0       	ldi	r28, 0x00	; 0
    138c:	d0 e0       	ldi	r29, 0x00	; 0
    138e:	06 c0       	rjmp	.+12     	; 0x139c <os_flash_open+0x36>
    1390:	21 96       	adiw	r28, 0x01	; 1
    1392:	0e 5f       	subi	r16, 0xFE	; 254
    1394:	1f 4f       	sbci	r17, 0xFF	; 255
    1396:	ce 15       	cp	r28, r14
    1398:	df 05       	cpc	r29, r15
    139a:	54 f4       	brge	.+20     	; 0x13b0 <os_flash_open+0x4a>
    139c:	f8 01       	movw	r30, r16
    139e:	60 81       	ld	r22, Z
    13a0:	71 81       	ldd	r23, Z+1	; 0x01
    13a2:	c6 01       	movw	r24, r12
    13a4:	0e 94 92 11 	call	0x2324	; 0x2324 <strcmp>
    13a8:	00 97       	sbiw	r24, 0x00	; 0
    13aa:	91 f7       	brne	.-28     	; 0x1390 <os_flash_open+0x2a>
    13ac:	7e 01       	movw	r14, r28
    13ae:	22 c0       	rjmp	.+68     	; 0x13f4 <os_flash_open+0x8e>
    13b0:	f2 e0       	ldi	r31, 0x02	; 2
    13b2:	ef 16       	cp	r14, r31
    13b4:	f1 04       	cpc	r15, r1
    13b6:	44 f5       	brge	.+80     	; 0x1408 <os_flash_open+0xa2>
    13b8:	f7 01       	movw	r30, r14
    13ba:	ee 0f       	add	r30, r30
    13bc:	ff 1f       	adc	r31, r31
    13be:	e2 54       	subi	r30, 0x42	; 66
    13c0:	fd 4e       	sbci	r31, 0xED	; 237
    13c2:	d1 82       	std	Z+1, r13	; 0x01
    13c4:	c0 82       	st	Z, r12
    13c6:	82 e0       	ldi	r24, 0x02	; 2
    13c8:	94 e0       	ldi	r25, 0x04	; 4
    13ca:	e8 9e       	mul	r14, r24
    13cc:	f0 01       	movw	r30, r0
    13ce:	e9 9e       	mul	r14, r25
    13d0:	f0 0d       	add	r31, r0
    13d2:	f8 9e       	mul	r15, r24
    13d4:	f0 0d       	add	r31, r0
    13d6:	11 24       	eor	r1, r1
    13d8:	e8 54       	subi	r30, 0x48	; 72
    13da:	f1 4f       	sbci	r31, 0xF1	; 241
    13dc:	11 82       	std	Z+1, r1	; 0x01
    13de:	10 82       	st	Z, r1
    13e0:	08 94       	sec
    13e2:	e1 1c       	adc	r14, r1
    13e4:	f1 1c       	adc	r15, r1
    13e6:	f0 92 bd 12 	sts	0x12BD, r15
    13ea:	e0 92 bc 12 	sts	0x12BC, r14
    13ee:	08 94       	sec
    13f0:	e1 08       	sbc	r14, r1
    13f2:	f1 08       	sbc	r15, r1
    13f4:	c7 01       	movw	r24, r14
    13f6:	df 91       	pop	r29
    13f8:	cf 91       	pop	r28
    13fa:	1f 91       	pop	r17
    13fc:	0f 91       	pop	r16
    13fe:	ff 90       	pop	r15
    1400:	ef 90       	pop	r14
    1402:	df 90       	pop	r13
    1404:	cf 90       	pop	r12
    1406:	08 95       	ret
    1408:	0e 94 84 11 	call	0x2308	; 0x2308 <abort>

0000140c <os_now>:
    140c:	0e 94 a8 0d 	call	0x1b50	; 0x1b50 <dispatcher_now>
    1410:	08 95       	ret

00001412 <os_run>:
    1412:	0e 94 b1 0d 	call	0x1b62	; 0x1b62 <dispatcher_run>
    1416:	08 95       	ret

00001418 <os_init>:
    1418:	10 92 b7 0a 	sts	0x0AB7, r1
    141c:	10 92 b6 0a 	sts	0x0AB6, r1
    1420:	10 92 bd 12 	sts	0x12BD, r1
    1424:	10 92 bc 12 	sts	0x12BC, r1
    1428:	10 92 bf 12 	sts	0x12BF, r1
    142c:	10 92 be 12 	sts	0x12BE, r1
    1430:	10 92 c1 12 	sts	0x12C1, r1
    1434:	10 92 c0 12 	sts	0x12C0, r1
    1438:	0e 94 72 0d 	call	0x1ae4	; 0x1ae4 <logger_init>
    143c:	0e 94 0c 0f 	call	0x1e18	; 0x1e18 <dispatcher_init>
    1440:	0e 94 c6 0f 	call	0x1f8c	; 0x1f8c <random_init>
    1444:	08 95       	ret

00001446 <array>:
    1446:	6f 92       	push	r6
    1448:	7f 92       	push	r7
    144a:	8f 92       	push	r8
    144c:	9f 92       	push	r9
    144e:	af 92       	push	r10
    1450:	bf 92       	push	r11
    1452:	cf 92       	push	r12
    1454:	df 92       	push	r13
    1456:	ef 92       	push	r14
    1458:	ff 92       	push	r15
    145a:	0f 93       	push	r16
    145c:	1f 93       	push	r17
    145e:	cf 93       	push	r28
    1460:	df 93       	push	r29
    1462:	3c 01       	movw	r6, r24
    1464:	6b 01       	movw	r12, r22
    1466:	8d b7       	in	r24, 0x3d	; 61
    1468:	9e b7       	in	r25, 0x3e	; 62
    146a:	0a 97       	sbiw	r24, 0x0a	; 10
    146c:	0f b6       	in	r0, 0x3f	; 63
    146e:	f8 94       	cli
    1470:	9e bf       	out	0x3e, r25	; 62
    1472:	0f be       	out	0x3f, r0	; 63
    1474:	8d bf       	out	0x3d, r24	; 61
    1476:	ed b7       	in	r30, 0x3d	; 61
    1478:	fe b7       	in	r31, 0x3e	; 62
    147a:	31 96       	adiw	r30, 0x01	; 1
    147c:	84 e2       	ldi	r24, 0x24	; 36
    147e:	92 e0       	ldi	r25, 0x02	; 2
    1480:	ad b7       	in	r26, 0x3d	; 61
    1482:	be b7       	in	r27, 0x3e	; 62
    1484:	12 96       	adiw	r26, 0x02	; 2
    1486:	9c 93       	st	X, r25
    1488:	8e 93       	st	-X, r24
    148a:	11 97       	sbiw	r26, 0x01	; 1
    148c:	80 e0       	ldi	r24, 0x00	; 0
    148e:	94 e0       	ldi	r25, 0x04	; 4
    1490:	93 83       	std	Z+3, r25	; 0x03
    1492:	82 83       	std	Z+2, r24	; 0x02
    1494:	80 e8       	ldi	r24, 0x80	; 128
    1496:	91 e0       	ldi	r25, 0x01	; 1
    1498:	95 83       	std	Z+5, r25	; 0x05
    149a:	84 83       	std	Z+4, r24	; 0x04
    149c:	cb 01       	movw	r24, r22
    149e:	a0 e0       	ldi	r26, 0x00	; 0
    14a0:	b0 e0       	ldi	r27, 0x00	; 0
    14a2:	86 83       	std	Z+6, r24	; 0x06
    14a4:	97 83       	std	Z+7, r25	; 0x07
    14a6:	a0 87       	std	Z+8, r26	; 0x08
    14a8:	b1 87       	std	Z+9, r27	; 0x09
    14aa:	0e 94 9b 11 	call	0x2336	; 0x2336 <snprintf>
    14ae:	7c 01       	movw	r14, r24
    14b0:	ed b7       	in	r30, 0x3d	; 61
    14b2:	fe b7       	in	r31, 0x3e	; 62
    14b4:	3a 96       	adiw	r30, 0x0a	; 10
    14b6:	0f b6       	in	r0, 0x3f	; 63
    14b8:	f8 94       	cli
    14ba:	fe bf       	out	0x3e, r31	; 62
    14bc:	0f be       	out	0x3f, r0	; 63
    14be:	ed bf       	out	0x3d, r30	; 61
    14c0:	f4 e0       	ldi	r31, 0x04	; 4
    14c2:	80 30       	cpi	r24, 0x00	; 0
    14c4:	9f 07       	cpc	r25, r31
    14c6:	08 f0       	brcs	.+2      	; 0x14ca <array+0x84>
    14c8:	59 c0       	rjmp	.+178    	; 0x157c <array+0x136>
    14ca:	c1 14       	cp	r12, r1
    14cc:	d1 04       	cpc	r13, r1
    14ce:	09 f4       	brne	.+2      	; 0x14d2 <array+0x8c>
    14d0:	44 c0       	rjmp	.+136    	; 0x155a <array+0x114>
    14d2:	c0 e0       	ldi	r28, 0x00	; 0
    14d4:	d0 e0       	ldi	r29, 0x00	; 0
    14d6:	99 e8       	ldi	r25, 0x89	; 137
    14d8:	89 2e       	mov	r8, r25
    14da:	91 e0       	ldi	r25, 0x01	; 1
    14dc:	99 2e       	mov	r9, r25
    14de:	a1 2c       	mov	r10, r1
    14e0:	84 e0       	ldi	r24, 0x04	; 4
    14e2:	b8 2e       	mov	r11, r24
    14e4:	02 c0       	rjmp	.+4      	; 0x14ea <array+0xa4>
    14e6:	e2 0e       	add	r14, r18
    14e8:	f3 1e       	adc	r15, r19
    14ea:	85 01       	movw	r16, r10
    14ec:	0e 19       	sub	r16, r14
    14ee:	1f 09       	sbc	r17, r15
    14f0:	8d b7       	in	r24, 0x3d	; 61
    14f2:	9e b7       	in	r25, 0x3e	; 62
    14f4:	08 97       	sbiw	r24, 0x08	; 8
    14f6:	0f b6       	in	r0, 0x3f	; 63
    14f8:	f8 94       	cli
    14fa:	9e bf       	out	0x3e, r25	; 62
    14fc:	0f be       	out	0x3f, r0	; 63
    14fe:	8d bf       	out	0x3d, r24	; 61
    1500:	ad b7       	in	r26, 0x3d	; 61
    1502:	be b7       	in	r27, 0x3e	; 62
    1504:	11 96       	adiw	r26, 0x01	; 1
    1506:	c7 01       	movw	r24, r14
    1508:	8c 5d       	subi	r24, 0xDC	; 220
    150a:	9d 4f       	sbci	r25, 0xFD	; 253
    150c:	ed b7       	in	r30, 0x3d	; 61
    150e:	fe b7       	in	r31, 0x3e	; 62
    1510:	92 83       	std	Z+2, r25	; 0x02
    1512:	81 83       	std	Z+1, r24	; 0x01
    1514:	13 96       	adiw	r26, 0x03	; 3
    1516:	1c 93       	st	X, r17
    1518:	0e 93       	st	-X, r16
    151a:	12 97       	sbiw	r26, 0x02	; 2
    151c:	15 96       	adiw	r26, 0x05	; 5
    151e:	9c 92       	st	X, r9
    1520:	8e 92       	st	-X, r8
    1522:	14 97       	sbiw	r26, 0x04	; 4
    1524:	f3 01       	movw	r30, r6
    1526:	ec 0f       	add	r30, r28
    1528:	fd 1f       	adc	r31, r29
    152a:	80 81       	ld	r24, Z
    152c:	16 96       	adiw	r26, 0x06	; 6
    152e:	8c 93       	st	X, r24
    1530:	16 97       	sbiw	r26, 0x06	; 6
    1532:	17 96       	adiw	r26, 0x07	; 7
    1534:	1c 92       	st	X, r1
    1536:	0e 94 9b 11 	call	0x2336	; 0x2336 <snprintf>
    153a:	9c 01       	movw	r18, r24
    153c:	8d b7       	in	r24, 0x3d	; 61
    153e:	9e b7       	in	r25, 0x3e	; 62
    1540:	08 96       	adiw	r24, 0x08	; 8
    1542:	0f b6       	in	r0, 0x3f	; 63
    1544:	f8 94       	cli
    1546:	9e bf       	out	0x3e, r25	; 62
    1548:	0f be       	out	0x3f, r0	; 63
    154a:	8d bf       	out	0x3d, r24	; 61
    154c:	20 17       	cp	r18, r16
    154e:	31 07       	cpc	r19, r17
    1550:	a8 f4       	brcc	.+42     	; 0x157c <array+0x136>
    1552:	21 96       	adiw	r28, 0x01	; 1
    1554:	cc 15       	cp	r28, r12
    1556:	dd 05       	cpc	r29, r13
    1558:	30 f2       	brcs	.-116    	; 0x14e6 <array+0xa0>
    155a:	84 e2       	ldi	r24, 0x24	; 36
    155c:	92 e0       	ldi	r25, 0x02	; 2
    155e:	df 91       	pop	r29
    1560:	cf 91       	pop	r28
    1562:	1f 91       	pop	r17
    1564:	0f 91       	pop	r16
    1566:	ff 90       	pop	r15
    1568:	ef 90       	pop	r14
    156a:	df 90       	pop	r13
    156c:	cf 90       	pop	r12
    156e:	bf 90       	pop	r11
    1570:	af 90       	pop	r10
    1572:	9f 90       	pop	r9
    1574:	8f 90       	pop	r8
    1576:	7f 90       	pop	r7
    1578:	6f 90       	pop	r6
    157a:	08 95       	ret
    157c:	0e 94 84 11 	call	0x2308	; 0x2308 <abort>

00001580 <logger_syscall_return>:
    1580:	6f 92       	push	r6
    1582:	7f 92       	push	r7
    1584:	8f 92       	push	r8
    1586:	9f 92       	push	r9
    1588:	af 92       	push	r10
    158a:	bf 92       	push	r11
    158c:	cf 92       	push	r12
    158e:	df 92       	push	r13
    1590:	ef 92       	push	r14
    1592:	ff 92       	push	r15
    1594:	0f 93       	push	r16
    1596:	1f 93       	push	r17
    1598:	df 93       	push	r29
    159a:	cf 93       	push	r28
    159c:	cd b7       	in	r28, 0x3d	; 61
    159e:	de b7       	in	r29, 0x3e	; 62
    15a0:	4c 01       	movw	r8, r24
    15a2:	6d b6       	in	r6, 0x3d	; 61
    15a4:	7e b6       	in	r7, 0x3e	; 62
    15a6:	0e 94 a8 0d 	call	0x1b50	; 0x1b50 <dispatcher_now>
    15aa:	6b 01       	movw	r12, r22
    15ac:	7c 01       	movw	r14, r24
    15ae:	2d b7       	in	r18, 0x3d	; 61
    15b0:	3e b7       	in	r19, 0x3e	; 62
    15b2:	2c 50       	subi	r18, 0x0C	; 12
    15b4:	30 40       	sbci	r19, 0x00	; 0
    15b6:	0f b6       	in	r0, 0x3f	; 63
    15b8:	f8 94       	cli
    15ba:	3e bf       	out	0x3e, r19	; 62
    15bc:	0f be       	out	0x3f, r0	; 63
    15be:	2d bf       	out	0x3d, r18	; 61
    15c0:	ed b7       	in	r30, 0x3d	; 61
    15c2:	fe b7       	in	r31, 0x3e	; 62
    15c4:	31 96       	adiw	r30, 0x01	; 1
    15c6:	ad b7       	in	r26, 0x3d	; 61
    15c8:	be b7       	in	r27, 0x3e	; 62
    15ca:	12 96       	adiw	r26, 0x02	; 2
    15cc:	1c 92       	st	X, r1
    15ce:	1e 92       	st	-X, r1
    15d0:	11 97       	sbiw	r26, 0x01	; 1
    15d2:	13 82       	std	Z+3, r1	; 0x03
    15d4:	12 82       	std	Z+2, r1	; 0x02
    15d6:	2c e8       	ldi	r18, 0x8C	; 140
    15d8:	a2 2e       	mov	r10, r18
    15da:	21 e0       	ldi	r18, 0x01	; 1
    15dc:	b2 2e       	mov	r11, r18
    15de:	b5 82       	std	Z+5, r11	; 0x05
    15e0:	a4 82       	std	Z+4, r10	; 0x04
    15e2:	66 83       	std	Z+6, r22	; 0x06
    15e4:	77 83       	std	Z+7, r23	; 0x07
    15e6:	80 87       	std	Z+8, r24	; 0x08
    15e8:	91 87       	std	Z+9, r25	; 0x09
    15ea:	93 86       	std	Z+11, r9	; 0x0b
    15ec:	82 86       	std	Z+10, r8	; 0x0a
    15ee:	0e 94 9b 11 	call	0x2336	; 0x2336 <snprintf>
    15f2:	01 96       	adiw	r24, 0x01	; 1
    15f4:	2d b7       	in	r18, 0x3d	; 61
    15f6:	3e b7       	in	r19, 0x3e	; 62
    15f8:	24 5f       	subi	r18, 0xF4	; 244
    15fa:	3f 4f       	sbci	r19, 0xFF	; 255
    15fc:	0f b6       	in	r0, 0x3f	; 63
    15fe:	f8 94       	cli
    1600:	3e bf       	out	0x3e, r19	; 62
    1602:	0f be       	out	0x3f, r0	; 63
    1604:	2d bf       	out	0x3d, r18	; 61
    1606:	ad b7       	in	r26, 0x3d	; 61
    1608:	be b7       	in	r27, 0x3e	; 62
    160a:	a8 1b       	sub	r26, r24
    160c:	b9 0b       	sbc	r27, r25
    160e:	0f b6       	in	r0, 0x3f	; 63
    1610:	f8 94       	cli
    1612:	be bf       	out	0x3e, r27	; 62
    1614:	0f be       	out	0x3f, r0	; 63
    1616:	ad bf       	out	0x3d, r26	; 61
    1618:	0d b7       	in	r16, 0x3d	; 61
    161a:	1e b7       	in	r17, 0x3e	; 62
    161c:	0f 5f       	subi	r16, 0xFF	; 255
    161e:	1f 4f       	sbci	r17, 0xFF	; 255
    1620:	2d b7       	in	r18, 0x3d	; 61
    1622:	3e b7       	in	r19, 0x3e	; 62
    1624:	2a 50       	subi	r18, 0x0A	; 10
    1626:	30 40       	sbci	r19, 0x00	; 0
    1628:	0f b6       	in	r0, 0x3f	; 63
    162a:	f8 94       	cli
    162c:	3e bf       	out	0x3e, r19	; 62
    162e:	0f be       	out	0x3f, r0	; 63
    1630:	2d bf       	out	0x3d, r18	; 61
    1632:	ed b7       	in	r30, 0x3d	; 61
    1634:	fe b7       	in	r31, 0x3e	; 62
    1636:	31 96       	adiw	r30, 0x01	; 1
    1638:	ad b7       	in	r26, 0x3d	; 61
    163a:	be b7       	in	r27, 0x3e	; 62
    163c:	11 96       	adiw	r26, 0x01	; 1
    163e:	0c 93       	st	X, r16
    1640:	11 83       	std	Z+1, r17	; 0x01
    1642:	b3 82       	std	Z+3, r11	; 0x03
    1644:	a2 82       	std	Z+2, r10	; 0x02
    1646:	c4 82       	std	Z+4, r12	; 0x04
    1648:	d5 82       	std	Z+5, r13	; 0x05
    164a:	e6 82       	std	Z+6, r14	; 0x06
    164c:	f7 82       	std	Z+7, r15	; 0x07
    164e:	91 86       	std	Z+9, r9	; 0x09
    1650:	80 86       	std	Z+8, r8	; 0x08
    1652:	0e 94 d9 11 	call	0x23b2	; 0x23b2 <sprintf>
    1656:	2d b7       	in	r18, 0x3d	; 61
    1658:	3e b7       	in	r19, 0x3e	; 62
    165a:	26 5f       	subi	r18, 0xF6	; 246
    165c:	3f 4f       	sbci	r19, 0xFF	; 255
    165e:	0f b6       	in	r0, 0x3f	; 63
    1660:	f8 94       	cli
    1662:	3e bf       	out	0x3e, r19	; 62
    1664:	0f be       	out	0x3f, r0	; 63
    1666:	2d bf       	out	0x3d, r18	; 61
    1668:	c8 01       	movw	r24, r16
    166a:	0e 94 78 0d 	call	0x1af0	; 0x1af0 <logger_platform_trace>
    166e:	0f b6       	in	r0, 0x3f	; 63
    1670:	f8 94       	cli
    1672:	7e be       	out	0x3e, r7	; 62
    1674:	0f be       	out	0x3f, r0	; 63
    1676:	6d be       	out	0x3d, r6	; 61
    1678:	cf 91       	pop	r28
    167a:	df 91       	pop	r29
    167c:	1f 91       	pop	r17
    167e:	0f 91       	pop	r16
    1680:	ff 90       	pop	r15
    1682:	ef 90       	pop	r14
    1684:	df 90       	pop	r13
    1686:	cf 90       	pop	r12
    1688:	bf 90       	pop	r11
    168a:	af 90       	pop	r10
    168c:	9f 90       	pop	r9
    168e:	8f 90       	pop	r8
    1690:	7f 90       	pop	r7
    1692:	6f 90       	pop	r6
    1694:	08 95       	ret

00001696 <logger_syscall>:
    1696:	4f 92       	push	r4
    1698:	5f 92       	push	r5
    169a:	6f 92       	push	r6
    169c:	7f 92       	push	r7
    169e:	8f 92       	push	r8
    16a0:	9f 92       	push	r9
    16a2:	af 92       	push	r10
    16a4:	bf 92       	push	r11
    16a6:	cf 92       	push	r12
    16a8:	df 92       	push	r13
    16aa:	ef 92       	push	r14
    16ac:	ff 92       	push	r15
    16ae:	0f 93       	push	r16
    16b0:	1f 93       	push	r17
    16b2:	df 93       	push	r29
    16b4:	cf 93       	push	r28
    16b6:	cd b7       	in	r28, 0x3d	; 61
    16b8:	de b7       	in	r29, 0x3e	; 62
    16ba:	6b 88       	ldd	r6, Y+19	; 0x13
    16bc:	7c 88       	ldd	r7, Y+20	; 0x14
    16be:	cd 88       	ldd	r12, Y+21	; 0x15
    16c0:	de 88       	ldd	r13, Y+22	; 0x16
    16c2:	4d b6       	in	r4, 0x3d	; 61
    16c4:	5e b6       	in	r5, 0x3e	; 62
    16c6:	8e 01       	movw	r16, r28
    16c8:	09 5e       	subi	r16, 0xE9	; 233
    16ca:	1f 4f       	sbci	r17, 0xFF	; 255
    16cc:	0e 94 a8 0d 	call	0x1b50	; 0x1b50 <dispatcher_now>
    16d0:	4b 01       	movw	r8, r22
    16d2:	5c 01       	movw	r10, r24
    16d4:	80 e0       	ldi	r24, 0x00	; 0
    16d6:	90 e0       	ldi	r25, 0x00	; 0
    16d8:	60 e0       	ldi	r22, 0x00	; 0
    16da:	70 e0       	ldi	r23, 0x00	; 0
    16dc:	a6 01       	movw	r20, r12
    16de:	98 01       	movw	r18, r16
    16e0:	0e 94 0a 12 	call	0x2414	; 0x2414 <vsnprintf>
    16e4:	01 96       	adiw	r24, 0x01	; 1
    16e6:	2d b7       	in	r18, 0x3d	; 61
    16e8:	3e b7       	in	r19, 0x3e	; 62
    16ea:	28 1b       	sub	r18, r24
    16ec:	39 0b       	sbc	r19, r25
    16ee:	0f b6       	in	r0, 0x3f	; 63
    16f0:	f8 94       	cli
    16f2:	3e bf       	out	0x3e, r19	; 62
    16f4:	0f be       	out	0x3f, r0	; 63
    16f6:	2d bf       	out	0x3d, r18	; 61
    16f8:	ed b6       	in	r14, 0x3d	; 61
    16fa:	fe b6       	in	r15, 0x3e	; 62
    16fc:	08 94       	sec
    16fe:	e1 1c       	adc	r14, r1
    1700:	f1 1c       	adc	r15, r1
    1702:	c7 01       	movw	r24, r14
    1704:	b6 01       	movw	r22, r12
    1706:	a8 01       	movw	r20, r16
    1708:	0e 94 41 12 	call	0x2482	; 0x2482 <vsprintf>
    170c:	8d b7       	in	r24, 0x3d	; 61
    170e:	9e b7       	in	r25, 0x3e	; 62
    1710:	40 97       	sbiw	r24, 0x10	; 16
    1712:	0f b6       	in	r0, 0x3f	; 63
    1714:	f8 94       	cli
    1716:	9e bf       	out	0x3e, r25	; 62
    1718:	0f be       	out	0x3f, r0	; 63
    171a:	8d bf       	out	0x3d, r24	; 61
    171c:	ed b7       	in	r30, 0x3d	; 61
    171e:	fe b7       	in	r31, 0x3e	; 62
    1720:	31 96       	adiw	r30, 0x01	; 1
    1722:	ad b7       	in	r26, 0x3d	; 61
    1724:	be b7       	in	r27, 0x3e	; 62
    1726:	12 96       	adiw	r26, 0x02	; 2
    1728:	1c 92       	st	X, r1
    172a:	1e 92       	st	-X, r1
    172c:	11 97       	sbiw	r26, 0x01	; 1
    172e:	13 82       	std	Z+3, r1	; 0x03
    1730:	12 82       	std	Z+2, r1	; 0x02
    1732:	38 e9       	ldi	r19, 0x98	; 152
    1734:	c3 2e       	mov	r12, r19
    1736:	31 e0       	ldi	r19, 0x01	; 1
    1738:	d3 2e       	mov	r13, r19
    173a:	d5 82       	std	Z+5, r13	; 0x05
    173c:	c4 82       	std	Z+4, r12	; 0x04
    173e:	86 82       	std	Z+6, r8	; 0x06
    1740:	97 82       	std	Z+7, r9	; 0x07
    1742:	a0 86       	std	Z+8, r10	; 0x08
    1744:	b1 86       	std	Z+9, r11	; 0x09
    1746:	80 91 24 06 	lds	r24, 0x0624
    174a:	90 91 25 06 	lds	r25, 0x0625
    174e:	93 87       	std	Z+11, r25	; 0x0b
    1750:	82 87       	std	Z+10, r24	; 0x0a
    1752:	75 86       	std	Z+13, r7	; 0x0d
    1754:	64 86       	std	Z+12, r6	; 0x0c
    1756:	e6 86       	std	Z+14, r14	; 0x0e
    1758:	f7 86       	std	Z+15, r15	; 0x0f
    175a:	0e 94 9b 11 	call	0x2336	; 0x2336 <snprintf>
    175e:	01 96       	adiw	r24, 0x01	; 1
    1760:	2d b7       	in	r18, 0x3d	; 61
    1762:	3e b7       	in	r19, 0x3e	; 62
    1764:	20 5f       	subi	r18, 0xF0	; 240
    1766:	3f 4f       	sbci	r19, 0xFF	; 255
    1768:	0f b6       	in	r0, 0x3f	; 63
    176a:	f8 94       	cli
    176c:	3e bf       	out	0x3e, r19	; 62
    176e:	0f be       	out	0x3f, r0	; 63
    1770:	2d bf       	out	0x3d, r18	; 61
    1772:	ad b7       	in	r26, 0x3d	; 61
    1774:	be b7       	in	r27, 0x3e	; 62
    1776:	a8 1b       	sub	r26, r24
    1778:	b9 0b       	sbc	r27, r25
    177a:	0f b6       	in	r0, 0x3f	; 63
    177c:	f8 94       	cli
    177e:	be bf       	out	0x3e, r27	; 62
    1780:	0f be       	out	0x3f, r0	; 63
    1782:	ad bf       	out	0x3d, r26	; 61
    1784:	0d b7       	in	r16, 0x3d	; 61
    1786:	1e b7       	in	r17, 0x3e	; 62
    1788:	0f 5f       	subi	r16, 0xFF	; 255
    178a:	1f 4f       	sbci	r17, 0xFF	; 255
    178c:	2d b7       	in	r18, 0x3d	; 61
    178e:	3e b7       	in	r19, 0x3e	; 62
    1790:	2e 50       	subi	r18, 0x0E	; 14
    1792:	30 40       	sbci	r19, 0x00	; 0
    1794:	0f b6       	in	r0, 0x3f	; 63
    1796:	f8 94       	cli
    1798:	3e bf       	out	0x3e, r19	; 62
    179a:	0f be       	out	0x3f, r0	; 63
    179c:	2d bf       	out	0x3d, r18	; 61
    179e:	ed b7       	in	r30, 0x3d	; 61
    17a0:	fe b7       	in	r31, 0x3e	; 62
    17a2:	31 96       	adiw	r30, 0x01	; 1
    17a4:	ad b7       	in	r26, 0x3d	; 61
    17a6:	be b7       	in	r27, 0x3e	; 62
    17a8:	11 96       	adiw	r26, 0x01	; 1
    17aa:	0c 93       	st	X, r16
    17ac:	11 83       	std	Z+1, r17	; 0x01
    17ae:	d3 82       	std	Z+3, r13	; 0x03
    17b0:	c2 82       	std	Z+2, r12	; 0x02
    17b2:	84 82       	std	Z+4, r8	; 0x04
    17b4:	95 82       	std	Z+5, r9	; 0x05
    17b6:	a6 82       	std	Z+6, r10	; 0x06
    17b8:	b7 82       	std	Z+7, r11	; 0x07
    17ba:	80 91 24 06 	lds	r24, 0x0624
    17be:	90 91 25 06 	lds	r25, 0x0625
    17c2:	91 87       	std	Z+9, r25	; 0x09
    17c4:	80 87       	std	Z+8, r24	; 0x08
    17c6:	73 86       	std	Z+11, r7	; 0x0b
    17c8:	62 86       	std	Z+10, r6	; 0x0a
    17ca:	e4 86       	std	Z+12, r14	; 0x0c
    17cc:	f5 86       	std	Z+13, r15	; 0x0d
    17ce:	0e 94 d9 11 	call	0x23b2	; 0x23b2 <sprintf>
    17d2:	2d b7       	in	r18, 0x3d	; 61
    17d4:	3e b7       	in	r19, 0x3e	; 62
    17d6:	22 5f       	subi	r18, 0xF2	; 242
    17d8:	3f 4f       	sbci	r19, 0xFF	; 255
    17da:	0f b6       	in	r0, 0x3f	; 63
    17dc:	f8 94       	cli
    17de:	3e bf       	out	0x3e, r19	; 62
    17e0:	0f be       	out	0x3f, r0	; 63
    17e2:	2d bf       	out	0x3d, r18	; 61
    17e4:	c8 01       	movw	r24, r16
    17e6:	0e 94 78 0d 	call	0x1af0	; 0x1af0 <logger_platform_trace>
    17ea:	20 91 24 06 	lds	r18, 0x0624
    17ee:	30 91 25 06 	lds	r19, 0x0625
    17f2:	2f 5f       	subi	r18, 0xFF	; 255
    17f4:	3f 4f       	sbci	r19, 0xFF	; 255
    17f6:	30 93 25 06 	sts	0x0625, r19
    17fa:	20 93 24 06 	sts	0x0624, r18
    17fe:	21 50       	subi	r18, 0x01	; 1
    1800:	30 40       	sbci	r19, 0x00	; 0
    1802:	c9 01       	movw	r24, r18
    1804:	0f b6       	in	r0, 0x3f	; 63
    1806:	f8 94       	cli
    1808:	5e be       	out	0x3e, r5	; 62
    180a:	0f be       	out	0x3f, r0	; 63
    180c:	4d be       	out	0x3d, r4	; 61
    180e:	cf 91       	pop	r28
    1810:	df 91       	pop	r29
    1812:	1f 91       	pop	r17
    1814:	0f 91       	pop	r16
    1816:	ff 90       	pop	r15
    1818:	ef 90       	pop	r14
    181a:	df 90       	pop	r13
    181c:	cf 90       	pop	r12
    181e:	bf 90       	pop	r11
    1820:	af 90       	pop	r10
    1822:	9f 90       	pop	r9
    1824:	8f 90       	pop	r8
    1826:	7f 90       	pop	r7
    1828:	6f 90       	pop	r6
    182a:	5f 90       	pop	r5
    182c:	4f 90       	pop	r4
    182e:	08 95       	ret

00001830 <logger_log>:
    1830:	6f 92       	push	r6
    1832:	7f 92       	push	r7
    1834:	8f 92       	push	r8
    1836:	9f 92       	push	r9
    1838:	af 92       	push	r10
    183a:	bf 92       	push	r11
    183c:	cf 92       	push	r12
    183e:	df 92       	push	r13
    1840:	ef 92       	push	r14
    1842:	ff 92       	push	r15
    1844:	0f 93       	push	r16
    1846:	1f 93       	push	r17
    1848:	df 93       	push	r29
    184a:	cf 93       	push	r28
    184c:	cd b7       	in	r28, 0x3d	; 61
    184e:	de b7       	in	r29, 0x3e	; 62
    1850:	a9 88       	ldd	r10, Y+17	; 0x11
    1852:	ba 88       	ldd	r11, Y+18	; 0x12
    1854:	eb 88       	ldd	r14, Y+19	; 0x13
    1856:	fc 88       	ldd	r15, Y+20	; 0x14
    1858:	8d b6       	in	r8, 0x3d	; 61
    185a:	9e b6       	in	r9, 0x3e	; 62
    185c:	8e 01       	movw	r16, r28
    185e:	0b 5e       	subi	r16, 0xEB	; 235
    1860:	1f 4f       	sbci	r17, 0xFF	; 255
    1862:	80 e0       	ldi	r24, 0x00	; 0
    1864:	90 e0       	ldi	r25, 0x00	; 0
    1866:	60 e0       	ldi	r22, 0x00	; 0
    1868:	70 e0       	ldi	r23, 0x00	; 0
    186a:	a7 01       	movw	r20, r14
    186c:	98 01       	movw	r18, r16
    186e:	0e 94 0a 12 	call	0x2414	; 0x2414 <vsnprintf>
    1872:	01 96       	adiw	r24, 0x01	; 1
    1874:	2d b7       	in	r18, 0x3d	; 61
    1876:	3e b7       	in	r19, 0x3e	; 62
    1878:	28 1b       	sub	r18, r24
    187a:	39 0b       	sbc	r19, r25
    187c:	0f b6       	in	r0, 0x3f	; 63
    187e:	f8 94       	cli
    1880:	3e bf       	out	0x3e, r19	; 62
    1882:	0f be       	out	0x3f, r0	; 63
    1884:	2d bf       	out	0x3d, r18	; 61
    1886:	cd b6       	in	r12, 0x3d	; 61
    1888:	de b6       	in	r13, 0x3e	; 62
    188a:	08 94       	sec
    188c:	c1 1c       	adc	r12, r1
    188e:	d1 1c       	adc	r13, r1
    1890:	7c 2c       	mov	r7, r12
    1892:	6d 2c       	mov	r6, r13
    1894:	c6 01       	movw	r24, r12
    1896:	b7 01       	movw	r22, r14
    1898:	a8 01       	movw	r20, r16
    189a:	0e 94 41 12 	call	0x2482	; 0x2482 <vsprintf>
    189e:	31 e0       	ldi	r19, 0x01	; 1
    18a0:	a3 16       	cp	r10, r19
    18a2:	b1 04       	cpc	r11, r1
    18a4:	09 f4       	brne	.+2      	; 0x18a8 <logger_log+0x78>
    18a6:	bd c0       	rjmp	.+378    	; 0x1a22 <logger_log+0x1f2>
    18a8:	81 e0       	ldi	r24, 0x01	; 1
    18aa:	a8 16       	cp	r10, r24
    18ac:	b1 04       	cpc	r11, r1
    18ae:	08 f0       	brcs	.+2      	; 0x18b2 <logger_log+0x82>
    18b0:	70 c0       	rjmp	.+224    	; 0x1992 <logger_log+0x162>
    18b2:	2d b7       	in	r18, 0x3d	; 61
    18b4:	3e b7       	in	r19, 0x3e	; 62
    18b6:	2a 50       	subi	r18, 0x0A	; 10
    18b8:	30 40       	sbci	r19, 0x00	; 0
    18ba:	0f b6       	in	r0, 0x3f	; 63
    18bc:	f8 94       	cli
    18be:	3e bf       	out	0x3e, r19	; 62
    18c0:	0f be       	out	0x3f, r0	; 63
    18c2:	2d bf       	out	0x3d, r18	; 61
    18c4:	ed b7       	in	r30, 0x3d	; 61
    18c6:	fe b7       	in	r31, 0x3e	; 62
    18c8:	31 96       	adiw	r30, 0x01	; 1
    18ca:	ad b7       	in	r26, 0x3d	; 61
    18cc:	be b7       	in	r27, 0x3e	; 62
    18ce:	12 96       	adiw	r26, 0x02	; 2
    18d0:	1c 92       	st	X, r1
    18d2:	1e 92       	st	-X, r1
    18d4:	11 97       	sbiw	r26, 0x01	; 1
    18d6:	13 82       	std	Z+3, r1	; 0x03
    18d8:	12 82       	std	Z+2, r1	; 0x02
    18da:	5c ea       	ldi	r21, 0xAC	; 172
    18dc:	e5 2e       	mov	r14, r21
    18de:	51 e0       	ldi	r21, 0x01	; 1
    18e0:	f5 2e       	mov	r15, r21
    18e2:	f5 82       	std	Z+5, r15	; 0x05
    18e4:	e4 82       	std	Z+4, r14	; 0x04
    18e6:	00 ec       	ldi	r16, 0xC0	; 192
    18e8:	11 e0       	ldi	r17, 0x01	; 1
    18ea:	17 83       	std	Z+7, r17	; 0x07
    18ec:	06 83       	std	Z+6, r16	; 0x06
    18ee:	c0 86       	std	Z+8, r12	; 0x08
    18f0:	d1 86       	std	Z+9, r13	; 0x09
    18f2:	0e 94 9b 11 	call	0x2336	; 0x2336 <snprintf>
    18f6:	01 96       	adiw	r24, 0x01	; 1
    18f8:	2d b7       	in	r18, 0x3d	; 61
    18fa:	3e b7       	in	r19, 0x3e	; 62
    18fc:	26 5f       	subi	r18, 0xF6	; 246
    18fe:	3f 4f       	sbci	r19, 0xFF	; 255
    1900:	0f b6       	in	r0, 0x3f	; 63
    1902:	f8 94       	cli
    1904:	3e bf       	out	0x3e, r19	; 62
    1906:	0f be       	out	0x3f, r0	; 63
    1908:	2d bf       	out	0x3d, r18	; 61
    190a:	ad b7       	in	r26, 0x3d	; 61
    190c:	be b7       	in	r27, 0x3e	; 62
    190e:	a8 1b       	sub	r26, r24
    1910:	b9 0b       	sbc	r27, r25
    1912:	0f b6       	in	r0, 0x3f	; 63
    1914:	f8 94       	cli
    1916:	be bf       	out	0x3e, r27	; 62
    1918:	0f be       	out	0x3f, r0	; 63
    191a:	ad bf       	out	0x3d, r26	; 61
    191c:	8d b7       	in	r24, 0x3d	; 61
    191e:	9e b7       	in	r25, 0x3e	; 62
    1920:	01 96       	adiw	r24, 0x01	; 1
    1922:	6c 01       	movw	r12, r24
    1924:	c8 01       	movw	r24, r16
    1926:	ad b7       	in	r26, 0x3d	; 61
    1928:	be b7       	in	r27, 0x3e	; 62
    192a:	18 97       	sbiw	r26, 0x08	; 8
    192c:	0f b6       	in	r0, 0x3f	; 63
    192e:	f8 94       	cli
    1930:	be bf       	out	0x3e, r27	; 62
    1932:	0f be       	out	0x3f, r0	; 63
    1934:	ad bf       	out	0x3d, r26	; 61
    1936:	ed b7       	in	r30, 0x3d	; 61
    1938:	fe b7       	in	r31, 0x3e	; 62
    193a:	31 96       	adiw	r30, 0x01	; 1
    193c:	11 96       	adiw	r26, 0x01	; 1
    193e:	cc 92       	st	X, r12
    1940:	d1 82       	std	Z+1, r13	; 0x01
    1942:	f3 82       	std	Z+3, r15	; 0x03
    1944:	e2 82       	std	Z+2, r14	; 0x02
    1946:	95 83       	std	Z+5, r25	; 0x05
    1948:	84 83       	std	Z+4, r24	; 0x04
    194a:	76 82       	std	Z+6, r7	; 0x06
    194c:	67 82       	std	Z+7, r6	; 0x07
    194e:	0e 94 d9 11 	call	0x23b2	; 0x23b2 <sprintf>
    1952:	2d b7       	in	r18, 0x3d	; 61
    1954:	3e b7       	in	r19, 0x3e	; 62
    1956:	28 5f       	subi	r18, 0xF8	; 248
    1958:	3f 4f       	sbci	r19, 0xFF	; 255
    195a:	0f b6       	in	r0, 0x3f	; 63
    195c:	f8 94       	cli
    195e:	3e bf       	out	0x3e, r19	; 62
    1960:	0f be       	out	0x3f, r0	; 63
    1962:	2d bf       	out	0x3d, r18	; 61
    1964:	c6 01       	movw	r24, r12
    1966:	0e 94 79 0d 	call	0x1af2	; 0x1af2 <logger_platform_out>
    196a:	0f b6       	in	r0, 0x3f	; 63
    196c:	f8 94       	cli
    196e:	9e be       	out	0x3e, r9	; 62
    1970:	0f be       	out	0x3f, r0	; 63
    1972:	8d be       	out	0x3d, r8	; 61
    1974:	cf 91       	pop	r28
    1976:	df 91       	pop	r29
    1978:	1f 91       	pop	r17
    197a:	0f 91       	pop	r16
    197c:	ff 90       	pop	r15
    197e:	ef 90       	pop	r14
    1980:	df 90       	pop	r13
    1982:	cf 90       	pop	r12
    1984:	bf 90       	pop	r11
    1986:	af 90       	pop	r10
    1988:	9f 90       	pop	r9
    198a:	8f 90       	pop	r8
    198c:	7f 90       	pop	r7
    198e:	6f 90       	pop	r6
    1990:	08 95       	ret
    1992:	92 e0       	ldi	r25, 0x02	; 2
    1994:	a9 16       	cp	r10, r25
    1996:	b1 04       	cpc	r11, r1
    1998:	09 f4       	brne	.+2      	; 0x199c <logger_log+0x16c>
    199a:	60 c0       	rjmp	.+192    	; 0x1a5c <logger_log+0x22c>
    199c:	ad b7       	in	r26, 0x3d	; 61
    199e:	be b7       	in	r27, 0x3e	; 62
    19a0:	1a 97       	sbiw	r26, 0x0a	; 10
    19a2:	0f b6       	in	r0, 0x3f	; 63
    19a4:	f8 94       	cli
    19a6:	be bf       	out	0x3e, r27	; 62
    19a8:	0f be       	out	0x3f, r0	; 63
    19aa:	ad bf       	out	0x3d, r26	; 61
    19ac:	ed b7       	in	r30, 0x3d	; 61
    19ae:	fe b7       	in	r31, 0x3e	; 62
    19b0:	31 96       	adiw	r30, 0x01	; 1
    19b2:	12 96       	adiw	r26, 0x02	; 2
    19b4:	1c 92       	st	X, r1
    19b6:	1e 92       	st	-X, r1
    19b8:	11 97       	sbiw	r26, 0x01	; 1
    19ba:	13 82       	std	Z+3, r1	; 0x03
    19bc:	12 82       	std	Z+2, r1	; 0x02
    19be:	7c ea       	ldi	r23, 0xAC	; 172
    19c0:	e7 2e       	mov	r14, r23
    19c2:	71 e0       	ldi	r23, 0x01	; 1
    19c4:	f7 2e       	mov	r15, r23
    19c6:	f5 82       	std	Z+5, r15	; 0x05
    19c8:	e4 82       	std	Z+4, r14	; 0x04
    19ca:	04 eb       	ldi	r16, 0xB4	; 180
    19cc:	11 e0       	ldi	r17, 0x01	; 1
    19ce:	17 83       	std	Z+7, r17	; 0x07
    19d0:	06 83       	std	Z+6, r16	; 0x06
    19d2:	c0 86       	std	Z+8, r12	; 0x08
    19d4:	d1 86       	std	Z+9, r13	; 0x09
    19d6:	0e 94 9b 11 	call	0x2336	; 0x2336 <snprintf>
    19da:	01 96       	adiw	r24, 0x01	; 1
    19dc:	2d b7       	in	r18, 0x3d	; 61
    19de:	3e b7       	in	r19, 0x3e	; 62
    19e0:	26 5f       	subi	r18, 0xF6	; 246
    19e2:	3f 4f       	sbci	r19, 0xFF	; 255
    19e4:	0f b6       	in	r0, 0x3f	; 63
    19e6:	f8 94       	cli
    19e8:	3e bf       	out	0x3e, r19	; 62
    19ea:	0f be       	out	0x3f, r0	; 63
    19ec:	2d bf       	out	0x3d, r18	; 61
    19ee:	ad b7       	in	r26, 0x3d	; 61
    19f0:	be b7       	in	r27, 0x3e	; 62
    19f2:	a8 1b       	sub	r26, r24
    19f4:	b9 0b       	sbc	r27, r25
    19f6:	0f b6       	in	r0, 0x3f	; 63
    19f8:	f8 94       	cli
    19fa:	be bf       	out	0x3e, r27	; 62
    19fc:	0f be       	out	0x3f, r0	; 63
    19fe:	ad bf       	out	0x3d, r26	; 61
    1a00:	8d b7       	in	r24, 0x3d	; 61
    1a02:	9e b7       	in	r25, 0x3e	; 62
    1a04:	01 96       	adiw	r24, 0x01	; 1
    1a06:	6c 01       	movw	r12, r24
    1a08:	b1 e0       	ldi	r27, 0x01	; 1
    1a0a:	ab 16       	cp	r10, r27
    1a0c:	b1 04       	cpc	r11, r1
    1a0e:	09 f4       	brne	.+2      	; 0x1a12 <logger_log+0x1e2>
    1a10:	66 c0       	rjmp	.+204    	; 0x1ade <logger_log+0x2ae>
    1a12:	21 e0       	ldi	r18, 0x01	; 1
    1a14:	a2 16       	cp	r10, r18
    1a16:	b1 04       	cpc	r11, r1
    1a18:	08 f0       	brcs	.+2      	; 0x1a1c <logger_log+0x1ec>
    1a1a:	5b c0       	rjmp	.+182    	; 0x1ad2 <logger_log+0x2a2>
    1a1c:	80 ec       	ldi	r24, 0xC0	; 192
    1a1e:	91 e0       	ldi	r25, 0x01	; 1
    1a20:	82 cf       	rjmp	.-252    	; 0x1926 <logger_log+0xf6>
    1a22:	2d b7       	in	r18, 0x3d	; 61
    1a24:	3e b7       	in	r19, 0x3e	; 62
    1a26:	2a 50       	subi	r18, 0x0A	; 10
    1a28:	30 40       	sbci	r19, 0x00	; 0
    1a2a:	0f b6       	in	r0, 0x3f	; 63
    1a2c:	f8 94       	cli
    1a2e:	3e bf       	out	0x3e, r19	; 62
    1a30:	0f be       	out	0x3f, r0	; 63
    1a32:	2d bf       	out	0x3d, r18	; 61
    1a34:	ed b7       	in	r30, 0x3d	; 61
    1a36:	fe b7       	in	r31, 0x3e	; 62
    1a38:	31 96       	adiw	r30, 0x01	; 1
    1a3a:	ad b7       	in	r26, 0x3d	; 61
    1a3c:	be b7       	in	r27, 0x3e	; 62
    1a3e:	12 96       	adiw	r26, 0x02	; 2
    1a40:	1c 92       	st	X, r1
    1a42:	1e 92       	st	-X, r1
    1a44:	11 97       	sbiw	r26, 0x01	; 1
    1a46:	13 82       	std	Z+3, r1	; 0x03
    1a48:	12 82       	std	Z+2, r1	; 0x02
    1a4a:	4c ea       	ldi	r20, 0xAC	; 172
    1a4c:	e4 2e       	mov	r14, r20
    1a4e:	41 e0       	ldi	r20, 0x01	; 1
    1a50:	f4 2e       	mov	r15, r20
    1a52:	f5 82       	std	Z+5, r15	; 0x05
    1a54:	e4 82       	std	Z+4, r14	; 0x04
    1a56:	08 eb       	ldi	r16, 0xB8	; 184
    1a58:	11 e0       	ldi	r17, 0x01	; 1
    1a5a:	47 cf       	rjmp	.-370    	; 0x18ea <logger_log+0xba>
    1a5c:	8d b7       	in	r24, 0x3d	; 61
    1a5e:	9e b7       	in	r25, 0x3e	; 62
    1a60:	0a 97       	sbiw	r24, 0x0a	; 10
    1a62:	0f b6       	in	r0, 0x3f	; 63
    1a64:	f8 94       	cli
    1a66:	9e bf       	out	0x3e, r25	; 62
    1a68:	0f be       	out	0x3f, r0	; 63
    1a6a:	8d bf       	out	0x3d, r24	; 61
    1a6c:	ed b7       	in	r30, 0x3d	; 61
    1a6e:	fe b7       	in	r31, 0x3e	; 62
    1a70:	31 96       	adiw	r30, 0x01	; 1
    1a72:	ad b7       	in	r26, 0x3d	; 61
    1a74:	be b7       	in	r27, 0x3e	; 62
    1a76:	12 96       	adiw	r26, 0x02	; 2
    1a78:	1c 92       	st	X, r1
    1a7a:	1e 92       	st	-X, r1
    1a7c:	11 97       	sbiw	r26, 0x01	; 1
    1a7e:	13 82       	std	Z+3, r1	; 0x03
    1a80:	12 82       	std	Z+2, r1	; 0x02
    1a82:	6c ea       	ldi	r22, 0xAC	; 172
    1a84:	e6 2e       	mov	r14, r22
    1a86:	61 e0       	ldi	r22, 0x01	; 1
    1a88:	f6 2e       	mov	r15, r22
    1a8a:	f5 82       	std	Z+5, r15	; 0x05
    1a8c:	e4 82       	std	Z+4, r14	; 0x04
    1a8e:	85 ec       	ldi	r24, 0xC5	; 197
    1a90:	91 e0       	ldi	r25, 0x01	; 1
    1a92:	97 83       	std	Z+7, r25	; 0x07
    1a94:	86 83       	std	Z+6, r24	; 0x06
    1a96:	c0 86       	std	Z+8, r12	; 0x08
    1a98:	d1 86       	std	Z+9, r13	; 0x09
    1a9a:	0e 94 9b 11 	call	0x2336	; 0x2336 <snprintf>
    1a9e:	01 96       	adiw	r24, 0x01	; 1
    1aa0:	2d b7       	in	r18, 0x3d	; 61
    1aa2:	3e b7       	in	r19, 0x3e	; 62
    1aa4:	26 5f       	subi	r18, 0xF6	; 246
    1aa6:	3f 4f       	sbci	r19, 0xFF	; 255
    1aa8:	0f b6       	in	r0, 0x3f	; 63
    1aaa:	f8 94       	cli
    1aac:	3e bf       	out	0x3e, r19	; 62
    1aae:	0f be       	out	0x3f, r0	; 63
    1ab0:	2d bf       	out	0x3d, r18	; 61
    1ab2:	ad b7       	in	r26, 0x3d	; 61
    1ab4:	be b7       	in	r27, 0x3e	; 62
    1ab6:	a8 1b       	sub	r26, r24
    1ab8:	b9 0b       	sbc	r27, r25
    1aba:	0f b6       	in	r0, 0x3f	; 63
    1abc:	f8 94       	cli
    1abe:	be bf       	out	0x3e, r27	; 62
    1ac0:	0f be       	out	0x3f, r0	; 63
    1ac2:	ad bf       	out	0x3d, r26	; 61
    1ac4:	8d b7       	in	r24, 0x3d	; 61
    1ac6:	9e b7       	in	r25, 0x3e	; 62
    1ac8:	01 96       	adiw	r24, 0x01	; 1
    1aca:	6c 01       	movw	r12, r24
    1acc:	85 ec       	ldi	r24, 0xC5	; 197
    1ace:	91 e0       	ldi	r25, 0x01	; 1
    1ad0:	2a cf       	rjmp	.-428    	; 0x1926 <logger_log+0xf6>
    1ad2:	32 e0       	ldi	r19, 0x02	; 2
    1ad4:	a3 16       	cp	r10, r19
    1ad6:	b1 04       	cpc	r11, r1
    1ad8:	c9 f3       	breq	.-14     	; 0x1acc <logger_log+0x29c>
    1ada:	c8 01       	movw	r24, r16
    1adc:	24 cf       	rjmp	.-440    	; 0x1926 <logger_log+0xf6>
    1ade:	88 eb       	ldi	r24, 0xB8	; 184
    1ae0:	91 e0       	ldi	r25, 0x01	; 1
    1ae2:	21 cf       	rjmp	.-446    	; 0x1926 <logger_log+0xf6>

00001ae4 <logger_init>:
    1ae4:	0e 94 82 0d 	call	0x1b04	; 0x1b04 <settings_logger_file>
    1ae8:	0e 94 77 0d 	call	0x1aee	; 0x1aee <logger_platform_init>
    1aec:	08 95       	ret

00001aee <logger_platform_init>:
    1aee:	08 95       	ret

00001af0 <logger_platform_trace>:
    1af0:	08 95       	ret

00001af2 <logger_platform_out>:
    1af2:	08 95       	ret

00001af4 <settings_dispatcher_max_time>:
    1af4:	6f ef       	ldi	r22, 0xFF	; 255
    1af6:	7f ef       	ldi	r23, 0xFF	; 255
    1af8:	8f ef       	ldi	r24, 0xFF	; 255
    1afa:	9f ef       	ldi	r25, 0xFF	; 255
    1afc:	08 95       	ret

00001afe <settings_random_seed>:
    1afe:	80 e0       	ldi	r24, 0x00	; 0
    1b00:	90 e0       	ldi	r25, 0x00	; 0
    1b02:	08 95       	ret

00001b04 <settings_logger_file>:
    1b04:	8b ec       	ldi	r24, 0xCB	; 203
    1b06:	91 e0       	ldi	r25, 0x01	; 1
    1b08:	08 95       	ret

00001b0a <dispatcher_quit>:
    1b0a:	20 91 c2 12 	lds	r18, 0x12C2
    1b0e:	30 91 c3 12 	lds	r19, 0x12C3
    1b12:	40 91 c4 12 	lds	r20, 0x12C4
    1b16:	50 91 c5 12 	lds	r21, 0x12C5
    1b1a:	12 16       	cp	r1, r18
    1b1c:	13 06       	cpc	r1, r19
    1b1e:	14 06       	cpc	r1, r20
    1b20:	15 06       	cpc	r1, r21
    1b22:	9c f4       	brge	.+38     	; 0x1b4a <dispatcher_quit+0x40>
    1b24:	60 e0       	ldi	r22, 0x00	; 0
    1b26:	80 91 1a 13 	lds	r24, 0x131A
    1b2a:	90 91 1b 13 	lds	r25, 0x131B
    1b2e:	a0 91 1c 13 	lds	r26, 0x131C
    1b32:	b0 91 1d 13 	lds	r27, 0x131D
    1b36:	28 17       	cp	r18, r24
    1b38:	39 07       	cpc	r19, r25
    1b3a:	4a 07       	cpc	r20, r26
    1b3c:	5b 07       	cpc	r21, r27
    1b3e:	14 f0       	brlt	.+4      	; 0x1b44 <dispatcher_quit+0x3a>
    1b40:	86 2f       	mov	r24, r22
    1b42:	08 95       	ret
    1b44:	61 e0       	ldi	r22, 0x01	; 1
    1b46:	86 2f       	mov	r24, r22
    1b48:	08 95       	ret
    1b4a:	60 e0       	ldi	r22, 0x00	; 0
    1b4c:	86 2f       	mov	r24, r22
    1b4e:	08 95       	ret

00001b50 <dispatcher_now>:
    1b50:	60 91 1a 13 	lds	r22, 0x131A
    1b54:	70 91 1b 13 	lds	r23, 0x131B
    1b58:	80 91 1c 13 	lds	r24, 0x131C
    1b5c:	90 91 1d 13 	lds	r25, 0x131D
    1b60:	08 95       	ret

00001b62 <dispatcher_run>:
    1b62:	4f 92       	push	r4
    1b64:	5f 92       	push	r5
    1b66:	6f 92       	push	r6
    1b68:	7f 92       	push	r7
    1b6a:	8f 92       	push	r8
    1b6c:	9f 92       	push	r9
    1b6e:	af 92       	push	r10
    1b70:	bf 92       	push	r11
    1b72:	cf 92       	push	r12
    1b74:	df 92       	push	r13
    1b76:	ef 92       	push	r14
    1b78:	ff 92       	push	r15
    1b7a:	0f 93       	push	r16
    1b7c:	1f 93       	push	r17
    1b7e:	df 93       	push	r29
    1b80:	cf 93       	push	r28
    1b82:	cd b7       	in	r28, 0x3d	; 61
    1b84:	de b7       	in	r29, 0x3e	; 62
    1b86:	28 97       	sbiw	r28, 0x08	; 8
    1b88:	0f b6       	in	r0, 0x3f	; 63
    1b8a:	f8 94       	cli
    1b8c:	de bf       	out	0x3e, r29	; 62
    1b8e:	0f be       	out	0x3f, r0	; 63
    1b90:	cd bf       	out	0x3d, r28	; 61
    1b92:	00 d0       	rcall	.+0      	; 0x1b94 <dispatcher_run+0x32>
    1b94:	00 d0       	rcall	.+0      	; 0x1b96 <dispatcher_run+0x34>
    1b96:	ed b7       	in	r30, 0x3d	; 61
    1b98:	fe b7       	in	r31, 0x3e	; 62
    1b9a:	12 82       	std	Z+2, r1	; 0x02
    1b9c:	11 82       	std	Z+1, r1	; 0x01
    1b9e:	8c ec       	ldi	r24, 0xCC	; 204
    1ba0:	91 e0       	ldi	r25, 0x01	; 1
    1ba2:	94 83       	std	Z+4, r25	; 0x04
    1ba4:	83 83       	std	Z+3, r24	; 0x03
    1ba6:	0e 94 18 0c 	call	0x1830	; 0x1830 <logger_log>
    1baa:	0f 90       	pop	r0
    1bac:	0f 90       	pop	r0
    1bae:	0f 90       	pop	r0
    1bb0:	0f 90       	pop	r0
    1bb2:	2e 01       	movw	r4, r28
    1bb4:	08 94       	sec
    1bb6:	41 1c       	adc	r4, r1
    1bb8:	51 1c       	adc	r5, r1
    1bba:	20 91 c2 12 	lds	r18, 0x12C2
    1bbe:	30 91 c3 12 	lds	r19, 0x12C3
    1bc2:	40 91 c4 12 	lds	r20, 0x12C4
    1bc6:	50 91 c5 12 	lds	r21, 0x12C5
    1bca:	12 16       	cp	r1, r18
    1bcc:	13 06       	cpc	r1, r19
    1bce:	14 06       	cpc	r1, r20
    1bd0:	15 06       	cpc	r1, r21
    1bd2:	a4 f5       	brge	.+104    	; 0x1c3c <dispatcher_run+0xda>
    1bd4:	80 91 1a 13 	lds	r24, 0x131A
    1bd8:	90 91 1b 13 	lds	r25, 0x131B
    1bdc:	a0 91 1c 13 	lds	r26, 0x131C
    1be0:	b0 91 1d 13 	lds	r27, 0x131D
    1be4:	28 17       	cp	r18, r24
    1be6:	39 07       	cpc	r19, r25
    1be8:	4a 07       	cpc	r20, r26
    1bea:	5b 07       	cpc	r21, r27
    1bec:	3c f5       	brge	.+78     	; 0x1c3c <dispatcher_run+0xda>
    1bee:	00 d0       	rcall	.+0      	; 0x1bf0 <dispatcher_run+0x8e>
    1bf0:	00 d0       	rcall	.+0      	; 0x1bf2 <dispatcher_run+0x90>
    1bf2:	ed b7       	in	r30, 0x3d	; 61
    1bf4:	fe b7       	in	r31, 0x3e	; 62
    1bf6:	12 82       	std	Z+2, r1	; 0x02
    1bf8:	11 82       	std	Z+1, r1	; 0x01
    1bfa:	8f ed       	ldi	r24, 0xDF	; 223
    1bfc:	91 e0       	ldi	r25, 0x01	; 1
    1bfe:	94 83       	std	Z+4, r25	; 0x04
    1c00:	83 83       	std	Z+3, r24	; 0x03
    1c02:	0e 94 18 0c 	call	0x1830	; 0x1830 <logger_log>
    1c06:	0f 90       	pop	r0
    1c08:	0f 90       	pop	r0
    1c0a:	0f 90       	pop	r0
    1c0c:	0f 90       	pop	r0
    1c0e:	28 96       	adiw	r28, 0x08	; 8
    1c10:	0f b6       	in	r0, 0x3f	; 63
    1c12:	f8 94       	cli
    1c14:	de bf       	out	0x3e, r29	; 62
    1c16:	0f be       	out	0x3f, r0	; 63
    1c18:	cd bf       	out	0x3d, r28	; 61
    1c1a:	cf 91       	pop	r28
    1c1c:	df 91       	pop	r29
    1c1e:	1f 91       	pop	r17
    1c20:	0f 91       	pop	r16
    1c22:	ff 90       	pop	r15
    1c24:	ef 90       	pop	r14
    1c26:	df 90       	pop	r13
    1c28:	cf 90       	pop	r12
    1c2a:	bf 90       	pop	r11
    1c2c:	af 90       	pop	r10
    1c2e:	9f 90       	pop	r9
    1c30:	8f 90       	pop	r8
    1c32:	7f 90       	pop	r7
    1c34:	6f 90       	pop	r6
    1c36:	5f 90       	pop	r5
    1c38:	4f 90       	pop	r4
    1c3a:	08 95       	ret
    1c3c:	80 90 18 13 	lds	r8, 0x1318
    1c40:	90 90 19 13 	lds	r9, 0x1319
    1c44:	c0 90 16 13 	lds	r12, 0x1316
    1c48:	d0 90 17 13 	lds	r13, 0x1317
    1c4c:	8c 14       	cp	r8, r12
    1c4e:	9d 04       	cpc	r9, r13
    1c50:	09 f4       	brne	.+2      	; 0x1c54 <dispatcher_run+0xf2>
    1c52:	8c c0       	rjmp	.+280    	; 0x1d6c <dispatcher_run+0x20a>
    1c54:	c4 01       	movw	r24, r8
    1c56:	01 96       	adiw	r24, 0x01	; 1
    1c58:	6a e0       	ldi	r22, 0x0A	; 10
    1c5a:	70 e0       	ldi	r23, 0x00	; 0
    1c5c:	0e 94 ed 0f 	call	0x1fda	; 0x1fda <__divmodhi4>
    1c60:	5c 01       	movw	r10, r24
    1c62:	c8 16       	cp	r12, r24
    1c64:	d9 06       	cpc	r13, r25
    1c66:	09 f4       	brne	.+2      	; 0x1c6a <dispatcher_run+0x108>
    1c68:	71 c0       	rjmp	.+226    	; 0x1d4c <dispatcher_run+0x1ea>
    1c6a:	bc 01       	movw	r22, r24
    1c6c:	34 01       	movw	r6, r8
    1c6e:	74 01       	movw	r14, r8
    1c70:	ee 0c       	add	r14, r14
    1c72:	ff 1c       	adc	r15, r15
    1c74:	ee 0c       	add	r14, r14
    1c76:	ff 1c       	adc	r15, r15
    1c78:	ee 0c       	add	r14, r14
    1c7a:	ff 1c       	adc	r15, r15
    1c7c:	8b 01       	movw	r16, r22
    1c7e:	00 0f       	add	r16, r16
    1c80:	11 1f       	adc	r17, r17
    1c82:	00 0f       	add	r16, r16
    1c84:	11 1f       	adc	r17, r17
    1c86:	00 0f       	add	r16, r16
    1c88:	11 1f       	adc	r17, r17
    1c8a:	f8 01       	movw	r30, r16
    1c8c:	ea 53       	subi	r30, 0x3A	; 58
    1c8e:	fd 4e       	sbci	r31, 0xED	; 237
    1c90:	d7 01       	movw	r26, r14
    1c92:	aa 53       	subi	r26, 0x3A	; 58
    1c94:	bd 4e       	sbci	r27, 0xED	; 237
    1c96:	20 81       	ld	r18, Z
    1c98:	31 81       	ldd	r19, Z+1	; 0x01
    1c9a:	42 81       	ldd	r20, Z+2	; 0x02
    1c9c:	53 81       	ldd	r21, Z+3	; 0x03
    1c9e:	8d 91       	ld	r24, X+
    1ca0:	9d 91       	ld	r25, X+
    1ca2:	0d 90       	ld	r0, X+
    1ca4:	bc 91       	ld	r27, X
    1ca6:	a0 2d       	mov	r26, r0
    1ca8:	28 17       	cp	r18, r24
    1caa:	39 07       	cpc	r19, r25
    1cac:	4a 07       	cpc	r20, r26
    1cae:	5b 07       	cpc	r21, r27
    1cb0:	10 f4       	brcc	.+4      	; 0x1cb6 <dispatcher_run+0x154>
    1cb2:	3b 01       	movw	r6, r22
    1cb4:	78 01       	movw	r14, r16
    1cb6:	cb 01       	movw	r24, r22
    1cb8:	01 96       	adiw	r24, 0x01	; 1
    1cba:	6a e0       	ldi	r22, 0x0A	; 10
    1cbc:	70 e0       	ldi	r23, 0x00	; 0
    1cbe:	0e 94 ed 0f 	call	0x1fda	; 0x1fda <__divmodhi4>
    1cc2:	bc 01       	movw	r22, r24
    1cc4:	c8 16       	cp	r12, r24
    1cc6:	d9 06       	cpc	r13, r25
    1cc8:	c9 f6       	brne	.-78     	; 0x1c7c <dispatcher_run+0x11a>
    1cca:	d2 01       	movw	r26, r4
    1ccc:	f7 01       	movw	r30, r14
    1cce:	ea 53       	subi	r30, 0x3A	; 58
    1cd0:	fd 4e       	sbci	r31, 0xED	; 237
    1cd2:	88 e0       	ldi	r24, 0x08	; 8
    1cd4:	01 90       	ld	r0, Z+
    1cd6:	0d 92       	st	X+, r0
    1cd8:	81 50       	subi	r24, 0x01	; 1
    1cda:	e1 f7       	brne	.-8      	; 0x1cd4 <dispatcher_run+0x172>
    1cdc:	86 14       	cp	r8, r6
    1cde:	97 04       	cpc	r9, r7
    1ce0:	89 f0       	breq	.+34     	; 0x1d04 <dispatcher_run+0x1a2>
    1ce2:	f4 01       	movw	r30, r8
    1ce4:	ee 0f       	add	r30, r30
    1ce6:	ff 1f       	adc	r31, r31
    1ce8:	ee 0f       	add	r30, r30
    1cea:	ff 1f       	adc	r31, r31
    1cec:	ee 0f       	add	r30, r30
    1cee:	ff 1f       	adc	r31, r31
    1cf0:	d7 01       	movw	r26, r14
    1cf2:	aa 53       	subi	r26, 0x3A	; 58
    1cf4:	bd 4e       	sbci	r27, 0xED	; 237
    1cf6:	ea 53       	subi	r30, 0x3A	; 58
    1cf8:	fd 4e       	sbci	r31, 0xED	; 237
    1cfa:	88 e0       	ldi	r24, 0x08	; 8
    1cfc:	01 90       	ld	r0, Z+
    1cfe:	0d 92       	st	X+, r0
    1d00:	81 50       	subi	r24, 0x01	; 1
    1d02:	e1 f7       	brne	.-8      	; 0x1cfc <dispatcher_run+0x19a>
    1d04:	b0 92 19 13 	sts	0x1319, r11
    1d08:	a0 92 18 13 	sts	0x1318, r10
    1d0c:	29 81       	ldd	r18, Y+1	; 0x01
    1d0e:	3a 81       	ldd	r19, Y+2	; 0x02
    1d10:	4b 81       	ldd	r20, Y+3	; 0x03
    1d12:	5c 81       	ldd	r21, Y+4	; 0x04
    1d14:	ed 81       	ldd	r30, Y+5	; 0x05
    1d16:	fe 81       	ldd	r31, Y+6	; 0x06
    1d18:	6f 81       	ldd	r22, Y+7	; 0x07
    1d1a:	78 85       	ldd	r23, Y+8	; 0x08
    1d1c:	80 91 1a 13 	lds	r24, 0x131A
    1d20:	90 91 1b 13 	lds	r25, 0x131B
    1d24:	a0 91 1c 13 	lds	r26, 0x131C
    1d28:	b0 91 1d 13 	lds	r27, 0x131D
    1d2c:	28 17       	cp	r18, r24
    1d2e:	39 07       	cpc	r19, r25
    1d30:	4a 07       	cpc	r20, r26
    1d32:	5b 07       	cpc	r21, r27
    1d34:	d8 f0       	brcs	.+54     	; 0x1d6c <dispatcher_run+0x20a>
    1d36:	20 93 1a 13 	sts	0x131A, r18
    1d3a:	30 93 1b 13 	sts	0x131B, r19
    1d3e:	40 93 1c 13 	sts	0x131C, r20
    1d42:	50 93 1d 13 	sts	0x131D, r21
    1d46:	cb 01       	movw	r24, r22
    1d48:	09 95       	icall
    1d4a:	37 cf       	rjmp	.-402    	; 0x1bba <dispatcher_run+0x58>
    1d4c:	f4 01       	movw	r30, r8
    1d4e:	ee 0f       	add	r30, r30
    1d50:	ff 1f       	adc	r31, r31
    1d52:	ee 0f       	add	r30, r30
    1d54:	ff 1f       	adc	r31, r31
    1d56:	ee 0f       	add	r30, r30
    1d58:	ff 1f       	adc	r31, r31
    1d5a:	d2 01       	movw	r26, r4
    1d5c:	ea 53       	subi	r30, 0x3A	; 58
    1d5e:	fd 4e       	sbci	r31, 0xED	; 237
    1d60:	88 e0       	ldi	r24, 0x08	; 8
    1d62:	01 90       	ld	r0, Z+
    1d64:	0d 92       	st	X+, r0
    1d66:	81 50       	subi	r24, 0x01	; 1
    1d68:	e1 f7       	brne	.-8      	; 0x1d62 <dispatcher_run+0x200>
    1d6a:	cc cf       	rjmp	.-104    	; 0x1d04 <dispatcher_run+0x1a2>
    1d6c:	0e 94 84 11 	call	0x2308	; 0x2308 <abort>

00001d70 <dispatcher_enqueue>:
    1d70:	8f 92       	push	r8
    1d72:	9f 92       	push	r9
    1d74:	af 92       	push	r10
    1d76:	bf 92       	push	r11
    1d78:	cf 92       	push	r12
    1d7a:	df 92       	push	r13
    1d7c:	ef 92       	push	r14
    1d7e:	ff 92       	push	r15
    1d80:	0f 93       	push	r16
    1d82:	1f 93       	push	r17
    1d84:	cf 93       	push	r28
    1d86:	df 93       	push	r29
    1d88:	6b 01       	movw	r12, r22
    1d8a:	7c 01       	movw	r14, r24
    1d8c:	5a 01       	movw	r10, r20
    1d8e:	49 01       	movw	r8, r18
    1d90:	00 91 1a 13 	lds	r16, 0x131A
    1d94:	10 91 1b 13 	lds	r17, 0x131B
    1d98:	20 91 1c 13 	lds	r18, 0x131C
    1d9c:	30 91 1d 13 	lds	r19, 0x131D
    1da0:	c0 91 16 13 	lds	r28, 0x1316
    1da4:	d0 91 17 13 	lds	r29, 0x1317
    1da8:	ce 01       	movw	r24, r28
    1daa:	01 96       	adiw	r24, 0x01	; 1
    1dac:	6a e0       	ldi	r22, 0x0A	; 10
    1dae:	70 e0       	ldi	r23, 0x00	; 0
    1db0:	0e 94 ed 0f 	call	0x1fda	; 0x1fda <__divmodhi4>
    1db4:	bc 01       	movw	r22, r24
    1db6:	80 91 18 13 	lds	r24, 0x1318
    1dba:	90 91 19 13 	lds	r25, 0x1319
    1dbe:	68 17       	cp	r22, r24
    1dc0:	79 07       	cpc	r23, r25
    1dc2:	41 f1       	breq	.+80     	; 0x1e14 <dispatcher_enqueue+0xa4>
    1dc4:	cc 0f       	add	r28, r28
    1dc6:	dd 1f       	adc	r29, r29
    1dc8:	cc 0f       	add	r28, r28
    1dca:	dd 1f       	adc	r29, r29
    1dcc:	cc 0f       	add	r28, r28
    1dce:	dd 1f       	adc	r29, r29
    1dd0:	fe 01       	movw	r30, r28
    1dd2:	ea 53       	subi	r30, 0x3A	; 58
    1dd4:	fd 4e       	sbci	r31, 0xED	; 237
    1dd6:	0c 0d       	add	r16, r12
    1dd8:	1d 1d       	adc	r17, r13
    1dda:	2e 1d       	adc	r18, r14
    1ddc:	3f 1d       	adc	r19, r15
    1dde:	00 83       	st	Z, r16
    1de0:	11 83       	std	Z+1, r17	; 0x01
    1de2:	22 83       	std	Z+2, r18	; 0x02
    1de4:	33 83       	std	Z+3, r19	; 0x03
    1de6:	c6 53       	subi	r28, 0x36	; 54
    1de8:	dd 4e       	sbci	r29, 0xED	; 237
    1dea:	b9 82       	std	Y+1, r11	; 0x01
    1dec:	a8 82       	st	Y, r10
    1dee:	97 82       	std	Z+7, r9	; 0x07
    1df0:	86 82       	std	Z+6, r8	; 0x06
    1df2:	70 93 17 13 	sts	0x1317, r23
    1df6:	60 93 16 13 	sts	0x1316, r22
    1dfa:	df 91       	pop	r29
    1dfc:	cf 91       	pop	r28
    1dfe:	1f 91       	pop	r17
    1e00:	0f 91       	pop	r16
    1e02:	ff 90       	pop	r15
    1e04:	ef 90       	pop	r14
    1e06:	df 90       	pop	r13
    1e08:	cf 90       	pop	r12
    1e0a:	bf 90       	pop	r11
    1e0c:	af 90       	pop	r10
    1e0e:	9f 90       	pop	r9
    1e10:	8f 90       	pop	r8
    1e12:	08 95       	ret
    1e14:	0e 94 84 11 	call	0x2308	; 0x2308 <abort>

00001e18 <dispatcher_init>:
    1e18:	10 92 19 13 	sts	0x1319, r1
    1e1c:	10 92 18 13 	sts	0x1318, r1
    1e20:	10 92 17 13 	sts	0x1317, r1
    1e24:	10 92 16 13 	sts	0x1316, r1
    1e28:	0e 94 7a 0d 	call	0x1af4	; 0x1af4 <settings_dispatcher_max_time>
    1e2c:	60 93 c2 12 	sts	0x12C2, r22
    1e30:	70 93 c3 12 	sts	0x12C3, r23
    1e34:	80 93 c4 12 	sts	0x12C4, r24
    1e38:	90 93 c5 12 	sts	0x12C5, r25
    1e3c:	10 92 1a 13 	sts	0x131A, r1
    1e40:	10 92 1b 13 	sts	0x131B, r1
    1e44:	10 92 1c 13 	sts	0x131C, r1
    1e48:	10 92 1d 13 	sts	0x131D, r1
    1e4c:	08 95       	ret

00001e4e <random_integer>:
    1e4e:	ef 92       	push	r14
    1e50:	ff 92       	push	r15
    1e52:	0f 93       	push	r16
    1e54:	1f 93       	push	r17
    1e56:	cf 93       	push	r28
    1e58:	df 93       	push	r29
    1e5a:	8c 01       	movw	r16, r24
    1e5c:	97 fd       	sbrc	r25, 7
    1e5e:	23 c0       	rjmp	.+70     	; 0x1ea6 <random_integer+0x58>
    1e60:	7c 01       	movw	r14, r24
    1e62:	08 94       	sec
    1e64:	e1 1c       	adc	r14, r1
    1e66:	f1 1c       	adc	r15, r1
    1e68:	2f ef       	ldi	r18, 0xFF	; 255
    1e6a:	3f e7       	ldi	r19, 0x7F	; 127
    1e6c:	c9 01       	movw	r24, r18
    1e6e:	80 1b       	sub	r24, r16
    1e70:	91 0b       	sbc	r25, r17
    1e72:	b7 01       	movw	r22, r14
    1e74:	0e 94 ed 0f 	call	0x1fda	; 0x1fda <__divmodhi4>
    1e78:	e9 01       	movw	r28, r18
    1e7a:	c8 1b       	sub	r28, r24
    1e7c:	d9 0b       	sbc	r29, r25
    1e7e:	0e 94 74 11 	call	0x22e8	; 0x22e8 <rand>
    1e82:	c8 17       	cp	r28, r24
    1e84:	d9 07       	cpc	r29, r25
    1e86:	dc f3       	brlt	.-10     	; 0x1e7e <random_integer+0x30>
    1e88:	b7 01       	movw	r22, r14
    1e8a:	0e 94 ed 0f 	call	0x1fda	; 0x1fda <__divmodhi4>
    1e8e:	97 fd       	sbrc	r25, 7
    1e90:	0a c0       	rjmp	.+20     	; 0x1ea6 <random_integer+0x58>
    1e92:	08 17       	cp	r16, r24
    1e94:	19 07       	cpc	r17, r25
    1e96:	3c f0       	brlt	.+14     	; 0x1ea6 <random_integer+0x58>
    1e98:	df 91       	pop	r29
    1e9a:	cf 91       	pop	r28
    1e9c:	1f 91       	pop	r17
    1e9e:	0f 91       	pop	r16
    1ea0:	ff 90       	pop	r15
    1ea2:	ef 90       	pop	r14
    1ea4:	08 95       	ret
    1ea6:	0e 94 84 11 	call	0x2308	; 0x2308 <abort>

00001eaa <random_error>:
    1eaa:	81 e0       	ldi	r24, 0x01	; 1
    1eac:	90 e0       	ldi	r25, 0x00	; 0
    1eae:	0e 94 27 0f 	call	0x1e4e	; 0x1e4e <random_integer>
    1eb2:	20 e0       	ldi	r18, 0x00	; 0
    1eb4:	30 e0       	ldi	r19, 0x00	; 0
    1eb6:	89 2b       	or	r24, r25
    1eb8:	11 f4       	brne	.+4      	; 0x1ebe <random_error+0x14>
    1eba:	21 e0       	ldi	r18, 0x01	; 1
    1ebc:	30 e0       	ldi	r19, 0x00	; 0
    1ebe:	c9 01       	movw	r24, r18
    1ec0:	08 95       	ret

00001ec2 <random_bytes>:
    1ec2:	ef 92       	push	r14
    1ec4:	ff 92       	push	r15
    1ec6:	0f 93       	push	r16
    1ec8:	1f 93       	push	r17
    1eca:	cf 93       	push	r28
    1ecc:	df 93       	push	r29
    1ece:	7c 01       	movw	r14, r24
    1ed0:	8b 01       	movw	r16, r22
    1ed2:	61 15       	cp	r22, r1
    1ed4:	71 05       	cpc	r23, r1
    1ed6:	71 f0       	breq	.+28     	; 0x1ef4 <random_bytes+0x32>
    1ed8:	c0 e0       	ldi	r28, 0x00	; 0
    1eda:	d0 e0       	ldi	r29, 0x00	; 0
    1edc:	8f ef       	ldi	r24, 0xFF	; 255
    1ede:	90 e0       	ldi	r25, 0x00	; 0
    1ee0:	0e 94 27 0f 	call	0x1e4e	; 0x1e4e <random_integer>
    1ee4:	f7 01       	movw	r30, r14
    1ee6:	ec 0f       	add	r30, r28
    1ee8:	fd 1f       	adc	r31, r29
    1eea:	80 83       	st	Z, r24
    1eec:	21 96       	adiw	r28, 0x01	; 1
    1eee:	c0 17       	cp	r28, r16
    1ef0:	d1 07       	cpc	r29, r17
    1ef2:	a0 f3       	brcs	.-24     	; 0x1edc <random_bytes+0x1a>
    1ef4:	df 91       	pop	r29
    1ef6:	cf 91       	pop	r28
    1ef8:	1f 91       	pop	r17
    1efa:	0f 91       	pop	r16
    1efc:	ff 90       	pop	r15
    1efe:	ef 90       	pop	r14
    1f00:	08 95       	ret

00001f02 <random_string>:
    1f02:	cf 92       	push	r12
    1f04:	df 92       	push	r13
    1f06:	ef 92       	push	r14
    1f08:	ff 92       	push	r15
    1f0a:	0f 93       	push	r16
    1f0c:	1f 93       	push	r17
    1f0e:	cf 93       	push	r28
    1f10:	df 93       	push	r29
    1f12:	8c 01       	movw	r16, r24
    1f14:	6b 01       	movw	r12, r22
    1f16:	7b 01       	movw	r14, r22
    1f18:	08 94       	sec
    1f1a:	e1 08       	sbc	r14, r1
    1f1c:	f1 08       	sbc	r15, r1
    1f1e:	e1 14       	cp	r14, r1
    1f20:	f1 04       	cpc	r15, r1
    1f22:	79 f0       	breq	.+30     	; 0x1f42 <random_string+0x40>
    1f24:	c0 e0       	ldi	r28, 0x00	; 0
    1f26:	d0 e0       	ldi	r29, 0x00	; 0
    1f28:	89 e1       	ldi	r24, 0x19	; 25
    1f2a:	90 e0       	ldi	r25, 0x00	; 0
    1f2c:	0e 94 27 0f 	call	0x1e4e	; 0x1e4e <random_integer>
    1f30:	f8 01       	movw	r30, r16
    1f32:	ec 0f       	add	r30, r28
    1f34:	fd 1f       	adc	r31, r29
    1f36:	8f 59       	subi	r24, 0x9F	; 159
    1f38:	80 83       	st	Z, r24
    1f3a:	21 96       	adiw	r28, 0x01	; 1
    1f3c:	ce 15       	cp	r28, r14
    1f3e:	df 05       	cpc	r29, r15
    1f40:	98 f3       	brcs	.-26     	; 0x1f28 <random_string+0x26>
    1f42:	0c 0d       	add	r16, r12
    1f44:	1d 1d       	adc	r17, r13
    1f46:	01 50       	subi	r16, 0x01	; 1
    1f48:	10 40       	sbci	r17, 0x00	; 0
    1f4a:	f8 01       	movw	r30, r16
    1f4c:	10 82       	st	Z, r1
    1f4e:	df 91       	pop	r29
    1f50:	cf 91       	pop	r28
    1f52:	1f 91       	pop	r17
    1f54:	0f 91       	pop	r16
    1f56:	ff 90       	pop	r15
    1f58:	ef 90       	pop	r14
    1f5a:	df 90       	pop	r13
    1f5c:	cf 90       	pop	r12
    1f5e:	08 95       	ret

00001f60 <random_integer_range>:
    1f60:	cf 93       	push	r28
    1f62:	df 93       	push	r29
    1f64:	ec 01       	movw	r28, r24
    1f66:	97 fd       	sbrc	r25, 7
    1f68:	0f c0       	rjmp	.+30     	; 0x1f88 <random_integer_range+0x28>
    1f6a:	68 17       	cp	r22, r24
    1f6c:	79 07       	cpc	r23, r25
    1f6e:	64 f0       	brlt	.+24     	; 0x1f88 <random_integer_range+0x28>
    1f70:	cb 01       	movw	r24, r22
    1f72:	8c 1b       	sub	r24, r28
    1f74:	9d 0b       	sbc	r25, r29
    1f76:	0e 94 27 0f 	call	0x1e4e	; 0x1e4e <random_integer>
    1f7a:	9e 01       	movw	r18, r28
    1f7c:	28 0f       	add	r18, r24
    1f7e:	39 1f       	adc	r19, r25
    1f80:	c9 01       	movw	r24, r18
    1f82:	df 91       	pop	r29
    1f84:	cf 91       	pop	r28
    1f86:	08 95       	ret
    1f88:	0e 94 84 11 	call	0x2308	; 0x2308 <abort>

00001f8c <random_init>:
    1f8c:	0f 93       	push	r16
    1f8e:	1f 93       	push	r17
    1f90:	0e 94 7f 0d 	call	0x1afe	; 0x1afe <settings_random_seed>
    1f94:	8c 01       	movw	r16, r24
    1f96:	00 d0       	rcall	.+0      	; 0x1f98 <random_init+0xc>
    1f98:	00 d0       	rcall	.+0      	; 0x1f9a <random_init+0xe>
    1f9a:	00 d0       	rcall	.+0      	; 0x1f9c <random_init+0x10>
    1f9c:	ed b7       	in	r30, 0x3d	; 61
    1f9e:	fe b7       	in	r31, 0x3e	; 62
    1fa0:	31 96       	adiw	r30, 0x01	; 1
    1fa2:	ad b7       	in	r26, 0x3d	; 61
    1fa4:	be b7       	in	r27, 0x3e	; 62
    1fa6:	12 96       	adiw	r26, 0x02	; 2
    1fa8:	1c 92       	st	X, r1
    1faa:	1e 92       	st	-X, r1
    1fac:	11 97       	sbiw	r26, 0x01	; 1
    1fae:	8a e0       	ldi	r24, 0x0A	; 10
    1fb0:	92 e0       	ldi	r25, 0x02	; 2
    1fb2:	93 83       	std	Z+3, r25	; 0x03
    1fb4:	82 83       	std	Z+2, r24	; 0x02
    1fb6:	15 83       	std	Z+5, r17	; 0x05
    1fb8:	04 83       	std	Z+4, r16	; 0x04
    1fba:	0e 94 18 0c 	call	0x1830	; 0x1830 <logger_log>
    1fbe:	8d b7       	in	r24, 0x3d	; 61
    1fc0:	9e b7       	in	r25, 0x3e	; 62
    1fc2:	06 96       	adiw	r24, 0x06	; 6
    1fc4:	0f b6       	in	r0, 0x3f	; 63
    1fc6:	f8 94       	cli
    1fc8:	9e bf       	out	0x3e, r25	; 62
    1fca:	0f be       	out	0x3f, r0	; 63
    1fcc:	8d bf       	out	0x3d, r24	; 61
    1fce:	c8 01       	movw	r24, r16
    1fd0:	0e 94 79 11 	call	0x22f2	; 0x22f2 <srand>
    1fd4:	1f 91       	pop	r17
    1fd6:	0f 91       	pop	r16
    1fd8:	08 95       	ret

00001fda <__divmodhi4>:
    1fda:	97 fb       	bst	r25, 7
    1fdc:	09 2e       	mov	r0, r25
    1fde:	07 26       	eor	r0, r23
    1fe0:	0a d0       	rcall	.+20     	; 0x1ff6 <__divmodhi4_neg1>
    1fe2:	77 fd       	sbrc	r23, 7
    1fe4:	04 d0       	rcall	.+8      	; 0x1fee <__divmodhi4_neg2>
    1fe6:	0c d0       	rcall	.+24     	; 0x2000 <__udivmodhi4>
    1fe8:	06 d0       	rcall	.+12     	; 0x1ff6 <__divmodhi4_neg1>
    1fea:	00 20       	and	r0, r0
    1fec:	1a f4       	brpl	.+6      	; 0x1ff4 <__divmodhi4_exit>

00001fee <__divmodhi4_neg2>:
    1fee:	70 95       	com	r23
    1ff0:	61 95       	neg	r22
    1ff2:	7f 4f       	sbci	r23, 0xFF	; 255

00001ff4 <__divmodhi4_exit>:
    1ff4:	08 95       	ret

00001ff6 <__divmodhi4_neg1>:
    1ff6:	f6 f7       	brtc	.-4      	; 0x1ff4 <__divmodhi4_exit>
    1ff8:	90 95       	com	r25
    1ffa:	81 95       	neg	r24
    1ffc:	9f 4f       	sbci	r25, 0xFF	; 255
    1ffe:	08 95       	ret

00002000 <__udivmodhi4>:
    2000:	aa 1b       	sub	r26, r26
    2002:	bb 1b       	sub	r27, r27
    2004:	51 e1       	ldi	r21, 0x11	; 17
    2006:	07 c0       	rjmp	.+14     	; 0x2016 <__udivmodhi4_ep>

00002008 <__udivmodhi4_loop>:
    2008:	aa 1f       	adc	r26, r26
    200a:	bb 1f       	adc	r27, r27
    200c:	a6 17       	cp	r26, r22
    200e:	b7 07       	cpc	r27, r23
    2010:	10 f0       	brcs	.+4      	; 0x2016 <__udivmodhi4_ep>
    2012:	a6 1b       	sub	r26, r22
    2014:	b7 0b       	sbc	r27, r23

00002016 <__udivmodhi4_ep>:
    2016:	88 1f       	adc	r24, r24
    2018:	99 1f       	adc	r25, r25
    201a:	5a 95       	dec	r21
    201c:	a9 f7       	brne	.-22     	; 0x2008 <__udivmodhi4_loop>
    201e:	80 95       	com	r24
    2020:	90 95       	com	r25
    2022:	bc 01       	movw	r22, r24
    2024:	cd 01       	movw	r24, r26
    2026:	08 95       	ret

00002028 <malloc>:
    2028:	cf 93       	push	r28
    202a:	df 93       	push	r29
    202c:	bc 01       	movw	r22, r24
    202e:	82 30       	cpi	r24, 0x02	; 2
    2030:	91 05       	cpc	r25, r1
    2032:	10 f4       	brcc	.+4      	; 0x2038 <malloc+0x10>
    2034:	62 e0       	ldi	r22, 0x02	; 2
    2036:	70 e0       	ldi	r23, 0x00	; 0
    2038:	a0 91 20 13 	lds	r26, 0x1320
    203c:	b0 91 21 13 	lds	r27, 0x1321
    2040:	ed 01       	movw	r28, r26
    2042:	e0 e0       	ldi	r30, 0x00	; 0
    2044:	f0 e0       	ldi	r31, 0x00	; 0
    2046:	40 e0       	ldi	r20, 0x00	; 0
    2048:	50 e0       	ldi	r21, 0x00	; 0
    204a:	21 c0       	rjmp	.+66     	; 0x208e <malloc+0x66>
    204c:	88 81       	ld	r24, Y
    204e:	99 81       	ldd	r25, Y+1	; 0x01
    2050:	86 17       	cp	r24, r22
    2052:	97 07       	cpc	r25, r23
    2054:	69 f4       	brne	.+26     	; 0x2070 <malloc+0x48>
    2056:	8a 81       	ldd	r24, Y+2	; 0x02
    2058:	9b 81       	ldd	r25, Y+3	; 0x03
    205a:	30 97       	sbiw	r30, 0x00	; 0
    205c:	19 f0       	breq	.+6      	; 0x2064 <malloc+0x3c>
    205e:	93 83       	std	Z+3, r25	; 0x03
    2060:	82 83       	std	Z+2, r24	; 0x02
    2062:	04 c0       	rjmp	.+8      	; 0x206c <malloc+0x44>
    2064:	90 93 21 13 	sts	0x1321, r25
    2068:	80 93 20 13 	sts	0x1320, r24
    206c:	fe 01       	movw	r30, r28
    206e:	34 c0       	rjmp	.+104    	; 0x20d8 <malloc+0xb0>
    2070:	68 17       	cp	r22, r24
    2072:	79 07       	cpc	r23, r25
    2074:	38 f4       	brcc	.+14     	; 0x2084 <malloc+0x5c>
    2076:	41 15       	cp	r20, r1
    2078:	51 05       	cpc	r21, r1
    207a:	19 f0       	breq	.+6      	; 0x2082 <malloc+0x5a>
    207c:	84 17       	cp	r24, r20
    207e:	95 07       	cpc	r25, r21
    2080:	08 f4       	brcc	.+2      	; 0x2084 <malloc+0x5c>
    2082:	ac 01       	movw	r20, r24
    2084:	fe 01       	movw	r30, r28
    2086:	8a 81       	ldd	r24, Y+2	; 0x02
    2088:	9b 81       	ldd	r25, Y+3	; 0x03
    208a:	9c 01       	movw	r18, r24
    208c:	e9 01       	movw	r28, r18
    208e:	20 97       	sbiw	r28, 0x00	; 0
    2090:	e9 f6       	brne	.-70     	; 0x204c <malloc+0x24>
    2092:	41 15       	cp	r20, r1
    2094:	51 05       	cpc	r21, r1
    2096:	a9 f1       	breq	.+106    	; 0x2102 <malloc+0xda>
    2098:	ca 01       	movw	r24, r20
    209a:	86 1b       	sub	r24, r22
    209c:	97 0b       	sbc	r25, r23
    209e:	04 97       	sbiw	r24, 0x04	; 4
    20a0:	08 f4       	brcc	.+2      	; 0x20a4 <malloc+0x7c>
    20a2:	ba 01       	movw	r22, r20
    20a4:	e0 e0       	ldi	r30, 0x00	; 0
    20a6:	f0 e0       	ldi	r31, 0x00	; 0
    20a8:	2a c0       	rjmp	.+84     	; 0x20fe <malloc+0xd6>
    20aa:	8d 91       	ld	r24, X+
    20ac:	9c 91       	ld	r25, X
    20ae:	11 97       	sbiw	r26, 0x01	; 1
    20b0:	84 17       	cp	r24, r20
    20b2:	95 07       	cpc	r25, r21
    20b4:	f9 f4       	brne	.+62     	; 0x20f4 <malloc+0xcc>
    20b6:	64 17       	cp	r22, r20
    20b8:	75 07       	cpc	r23, r21
    20ba:	81 f4       	brne	.+32     	; 0x20dc <malloc+0xb4>
    20bc:	12 96       	adiw	r26, 0x02	; 2
    20be:	8d 91       	ld	r24, X+
    20c0:	9c 91       	ld	r25, X
    20c2:	13 97       	sbiw	r26, 0x03	; 3
    20c4:	30 97       	sbiw	r30, 0x00	; 0
    20c6:	19 f0       	breq	.+6      	; 0x20ce <malloc+0xa6>
    20c8:	93 83       	std	Z+3, r25	; 0x03
    20ca:	82 83       	std	Z+2, r24	; 0x02
    20cc:	04 c0       	rjmp	.+8      	; 0x20d6 <malloc+0xae>
    20ce:	90 93 21 13 	sts	0x1321, r25
    20d2:	80 93 20 13 	sts	0x1320, r24
    20d6:	fd 01       	movw	r30, r26
    20d8:	32 96       	adiw	r30, 0x02	; 2
    20da:	4f c0       	rjmp	.+158    	; 0x217a <malloc+0x152>
    20dc:	ca 01       	movw	r24, r20
    20de:	86 1b       	sub	r24, r22
    20e0:	97 0b       	sbc	r25, r23
    20e2:	fd 01       	movw	r30, r26
    20e4:	e8 0f       	add	r30, r24
    20e6:	f9 1f       	adc	r31, r25
    20e8:	61 93       	st	Z+, r22
    20ea:	71 93       	st	Z+, r23
    20ec:	02 97       	sbiw	r24, 0x02	; 2
    20ee:	8d 93       	st	X+, r24
    20f0:	9c 93       	st	X, r25
    20f2:	43 c0       	rjmp	.+134    	; 0x217a <malloc+0x152>
    20f4:	fd 01       	movw	r30, r26
    20f6:	82 81       	ldd	r24, Z+2	; 0x02
    20f8:	93 81       	ldd	r25, Z+3	; 0x03
    20fa:	9c 01       	movw	r18, r24
    20fc:	d9 01       	movw	r26, r18
    20fe:	10 97       	sbiw	r26, 0x00	; 0
    2100:	a1 f6       	brne	.-88     	; 0x20aa <malloc+0x82>
    2102:	80 91 1e 13 	lds	r24, 0x131E
    2106:	90 91 1f 13 	lds	r25, 0x131F
    210a:	89 2b       	or	r24, r25
    210c:	41 f4       	brne	.+16     	; 0x211e <malloc+0xf6>
    210e:	80 91 1a 02 	lds	r24, 0x021A
    2112:	90 91 1b 02 	lds	r25, 0x021B
    2116:	90 93 1f 13 	sts	0x131F, r25
    211a:	80 93 1e 13 	sts	0x131E, r24
    211e:	40 91 1c 02 	lds	r20, 0x021C
    2122:	50 91 1d 02 	lds	r21, 0x021D
    2126:	41 15       	cp	r20, r1
    2128:	51 05       	cpc	r21, r1
    212a:	41 f4       	brne	.+16     	; 0x213c <malloc+0x114>
    212c:	4d b7       	in	r20, 0x3d	; 61
    212e:	5e b7       	in	r21, 0x3e	; 62
    2130:	80 91 18 02 	lds	r24, 0x0218
    2134:	90 91 19 02 	lds	r25, 0x0219
    2138:	48 1b       	sub	r20, r24
    213a:	59 0b       	sbc	r21, r25
    213c:	20 91 1e 13 	lds	r18, 0x131E
    2140:	30 91 1f 13 	lds	r19, 0x131F
    2144:	24 17       	cp	r18, r20
    2146:	35 07       	cpc	r19, r21
    2148:	b0 f4       	brcc	.+44     	; 0x2176 <malloc+0x14e>
    214a:	ca 01       	movw	r24, r20
    214c:	82 1b       	sub	r24, r18
    214e:	93 0b       	sbc	r25, r19
    2150:	86 17       	cp	r24, r22
    2152:	97 07       	cpc	r25, r23
    2154:	80 f0       	brcs	.+32     	; 0x2176 <malloc+0x14e>
    2156:	ab 01       	movw	r20, r22
    2158:	4e 5f       	subi	r20, 0xFE	; 254
    215a:	5f 4f       	sbci	r21, 0xFF	; 255
    215c:	84 17       	cp	r24, r20
    215e:	95 07       	cpc	r25, r21
    2160:	50 f0       	brcs	.+20     	; 0x2176 <malloc+0x14e>
    2162:	42 0f       	add	r20, r18
    2164:	53 1f       	adc	r21, r19
    2166:	50 93 1f 13 	sts	0x131F, r21
    216a:	40 93 1e 13 	sts	0x131E, r20
    216e:	f9 01       	movw	r30, r18
    2170:	61 93       	st	Z+, r22
    2172:	71 93       	st	Z+, r23
    2174:	02 c0       	rjmp	.+4      	; 0x217a <malloc+0x152>
    2176:	e0 e0       	ldi	r30, 0x00	; 0
    2178:	f0 e0       	ldi	r31, 0x00	; 0
    217a:	cf 01       	movw	r24, r30
    217c:	df 91       	pop	r29
    217e:	cf 91       	pop	r28
    2180:	08 95       	ret

00002182 <free>:
    2182:	cf 93       	push	r28
    2184:	df 93       	push	r29
    2186:	00 97       	sbiw	r24, 0x00	; 0
    2188:	09 f4       	brne	.+2      	; 0x218c <free+0xa>
    218a:	50 c0       	rjmp	.+160    	; 0x222c <free+0xaa>
    218c:	ec 01       	movw	r28, r24
    218e:	22 97       	sbiw	r28, 0x02	; 2
    2190:	1b 82       	std	Y+3, r1	; 0x03
    2192:	1a 82       	std	Y+2, r1	; 0x02
    2194:	a0 91 20 13 	lds	r26, 0x1320
    2198:	b0 91 21 13 	lds	r27, 0x1321
    219c:	10 97       	sbiw	r26, 0x00	; 0
    219e:	09 f1       	breq	.+66     	; 0x21e2 <free+0x60>
    21a0:	40 e0       	ldi	r20, 0x00	; 0
    21a2:	50 e0       	ldi	r21, 0x00	; 0
    21a4:	ac 17       	cp	r26, r28
    21a6:	bd 07       	cpc	r27, r29
    21a8:	08 f1       	brcs	.+66     	; 0x21ec <free+0x6a>
    21aa:	bb 83       	std	Y+3, r27	; 0x03
    21ac:	aa 83       	std	Y+2, r26	; 0x02
    21ae:	fe 01       	movw	r30, r28
    21b0:	21 91       	ld	r18, Z+
    21b2:	31 91       	ld	r19, Z+
    21b4:	e2 0f       	add	r30, r18
    21b6:	f3 1f       	adc	r31, r19
    21b8:	ae 17       	cp	r26, r30
    21ba:	bf 07       	cpc	r27, r31
    21bc:	79 f4       	brne	.+30     	; 0x21dc <free+0x5a>
    21be:	8d 91       	ld	r24, X+
    21c0:	9c 91       	ld	r25, X
    21c2:	11 97       	sbiw	r26, 0x01	; 1
    21c4:	28 0f       	add	r18, r24
    21c6:	39 1f       	adc	r19, r25
    21c8:	2e 5f       	subi	r18, 0xFE	; 254
    21ca:	3f 4f       	sbci	r19, 0xFF	; 255
    21cc:	39 83       	std	Y+1, r19	; 0x01
    21ce:	28 83       	st	Y, r18
    21d0:	12 96       	adiw	r26, 0x02	; 2
    21d2:	8d 91       	ld	r24, X+
    21d4:	9c 91       	ld	r25, X
    21d6:	13 97       	sbiw	r26, 0x03	; 3
    21d8:	9b 83       	std	Y+3, r25	; 0x03
    21da:	8a 83       	std	Y+2, r24	; 0x02
    21dc:	41 15       	cp	r20, r1
    21de:	51 05       	cpc	r21, r1
    21e0:	71 f4       	brne	.+28     	; 0x21fe <free+0x7c>
    21e2:	d0 93 21 13 	sts	0x1321, r29
    21e6:	c0 93 20 13 	sts	0x1320, r28
    21ea:	20 c0       	rjmp	.+64     	; 0x222c <free+0xaa>
    21ec:	12 96       	adiw	r26, 0x02	; 2
    21ee:	8d 91       	ld	r24, X+
    21f0:	9c 91       	ld	r25, X
    21f2:	13 97       	sbiw	r26, 0x03	; 3
    21f4:	ad 01       	movw	r20, r26
    21f6:	00 97       	sbiw	r24, 0x00	; 0
    21f8:	11 f0       	breq	.+4      	; 0x21fe <free+0x7c>
    21fa:	dc 01       	movw	r26, r24
    21fc:	d3 cf       	rjmp	.-90     	; 0x21a4 <free+0x22>
    21fe:	fa 01       	movw	r30, r20
    2200:	d3 83       	std	Z+3, r29	; 0x03
    2202:	c2 83       	std	Z+2, r28	; 0x02
    2204:	21 91       	ld	r18, Z+
    2206:	31 91       	ld	r19, Z+
    2208:	e2 0f       	add	r30, r18
    220a:	f3 1f       	adc	r31, r19
    220c:	ce 17       	cp	r28, r30
    220e:	df 07       	cpc	r29, r31
    2210:	69 f4       	brne	.+26     	; 0x222c <free+0xaa>
    2212:	88 81       	ld	r24, Y
    2214:	99 81       	ldd	r25, Y+1	; 0x01
    2216:	28 0f       	add	r18, r24
    2218:	39 1f       	adc	r19, r25
    221a:	2e 5f       	subi	r18, 0xFE	; 254
    221c:	3f 4f       	sbci	r19, 0xFF	; 255
    221e:	fa 01       	movw	r30, r20
    2220:	31 83       	std	Z+1, r19	; 0x01
    2222:	20 83       	st	Z, r18
    2224:	8a 81       	ldd	r24, Y+2	; 0x02
    2226:	9b 81       	ldd	r25, Y+3	; 0x03
    2228:	93 83       	std	Z+3, r25	; 0x03
    222a:	82 83       	std	Z+2, r24	; 0x02
    222c:	df 91       	pop	r29
    222e:	cf 91       	pop	r28
    2230:	08 95       	ret

00002232 <do_rand>:
    2232:	af 92       	push	r10
    2234:	bf 92       	push	r11
    2236:	cf 92       	push	r12
    2238:	df 92       	push	r13
    223a:	ef 92       	push	r14
    223c:	ff 92       	push	r15
    223e:	0f 93       	push	r16
    2240:	1f 93       	push	r17
    2242:	cf 93       	push	r28
    2244:	df 93       	push	r29
    2246:	ec 01       	movw	r28, r24
    2248:	a8 80       	ld	r10, Y
    224a:	b9 80       	ldd	r11, Y+1	; 0x01
    224c:	ca 80       	ldd	r12, Y+2	; 0x02
    224e:	db 80       	ldd	r13, Y+3	; 0x03
    2250:	a1 14       	cp	r10, r1
    2252:	b1 04       	cpc	r11, r1
    2254:	c1 04       	cpc	r12, r1
    2256:	d1 04       	cpc	r13, r1
    2258:	41 f4       	brne	.+16     	; 0x226a <do_rand+0x38>
    225a:	84 e2       	ldi	r24, 0x24	; 36
    225c:	a8 2e       	mov	r10, r24
    225e:	89 ed       	ldi	r24, 0xD9	; 217
    2260:	b8 2e       	mov	r11, r24
    2262:	8b e5       	ldi	r24, 0x5B	; 91
    2264:	c8 2e       	mov	r12, r24
    2266:	87 e0       	ldi	r24, 0x07	; 7
    2268:	d8 2e       	mov	r13, r24
    226a:	c6 01       	movw	r24, r12
    226c:	b5 01       	movw	r22, r10
    226e:	2d e1       	ldi	r18, 0x1D	; 29
    2270:	33 ef       	ldi	r19, 0xF3	; 243
    2272:	41 e0       	ldi	r20, 0x01	; 1
    2274:	50 e0       	ldi	r21, 0x00	; 0
    2276:	0e 94 2f 15 	call	0x2a5e	; 0x2a5e <__divmodsi4>
    227a:	27 ea       	ldi	r18, 0xA7	; 167
    227c:	31 e4       	ldi	r19, 0x41	; 65
    227e:	40 e0       	ldi	r20, 0x00	; 0
    2280:	50 e0       	ldi	r21, 0x00	; 0
    2282:	0e 94 10 15 	call	0x2a20	; 0x2a20 <__mulsi3>
    2286:	7b 01       	movw	r14, r22
    2288:	8c 01       	movw	r16, r24
    228a:	c6 01       	movw	r24, r12
    228c:	b5 01       	movw	r22, r10
    228e:	2d e1       	ldi	r18, 0x1D	; 29
    2290:	33 ef       	ldi	r19, 0xF3	; 243
    2292:	41 e0       	ldi	r20, 0x01	; 1
    2294:	50 e0       	ldi	r21, 0x00	; 0
    2296:	0e 94 2f 15 	call	0x2a5e	; 0x2a5e <__divmodsi4>
    229a:	ca 01       	movw	r24, r20
    229c:	b9 01       	movw	r22, r18
    229e:	2c ee       	ldi	r18, 0xEC	; 236
    22a0:	34 ef       	ldi	r19, 0xF4	; 244
    22a2:	4f ef       	ldi	r20, 0xFF	; 255
    22a4:	5f ef       	ldi	r21, 0xFF	; 255
    22a6:	0e 94 10 15 	call	0x2a20	; 0x2a20 <__mulsi3>
    22aa:	6e 0d       	add	r22, r14
    22ac:	7f 1d       	adc	r23, r15
    22ae:	80 1f       	adc	r24, r16
    22b0:	91 1f       	adc	r25, r17
    22b2:	97 ff       	sbrs	r25, 7
    22b4:	04 c0       	rjmp	.+8      	; 0x22be <do_rand+0x8c>
    22b6:	61 50       	subi	r22, 0x01	; 1
    22b8:	70 40       	sbci	r23, 0x00	; 0
    22ba:	80 40       	sbci	r24, 0x00	; 0
    22bc:	90 48       	sbci	r25, 0x80	; 128
    22be:	68 83       	st	Y, r22
    22c0:	79 83       	std	Y+1, r23	; 0x01
    22c2:	8a 83       	std	Y+2, r24	; 0x02
    22c4:	9b 83       	std	Y+3, r25	; 0x03
    22c6:	9b 01       	movw	r18, r22
    22c8:	3f 77       	andi	r19, 0x7F	; 127
    22ca:	c9 01       	movw	r24, r18
    22cc:	df 91       	pop	r29
    22ce:	cf 91       	pop	r28
    22d0:	1f 91       	pop	r17
    22d2:	0f 91       	pop	r16
    22d4:	ff 90       	pop	r15
    22d6:	ef 90       	pop	r14
    22d8:	df 90       	pop	r13
    22da:	cf 90       	pop	r12
    22dc:	bf 90       	pop	r11
    22de:	af 90       	pop	r10
    22e0:	08 95       	ret

000022e2 <rand_r>:
    22e2:	0e 94 19 11 	call	0x2232	; 0x2232 <do_rand>
    22e6:	08 95       	ret

000022e8 <rand>:
    22e8:	8e e1       	ldi	r24, 0x1E	; 30
    22ea:	92 e0       	ldi	r25, 0x02	; 2
    22ec:	0e 94 19 11 	call	0x2232	; 0x2232 <do_rand>
    22f0:	08 95       	ret

000022f2 <srand>:
    22f2:	a0 e0       	ldi	r26, 0x00	; 0
    22f4:	b0 e0       	ldi	r27, 0x00	; 0
    22f6:	80 93 1e 02 	sts	0x021E, r24
    22fa:	90 93 1f 02 	sts	0x021F, r25
    22fe:	a0 93 20 02 	sts	0x0220, r26
    2302:	b0 93 21 02 	sts	0x0221, r27
    2306:	08 95       	ret

00002308 <abort>:
    2308:	81 e0       	ldi	r24, 0x01	; 1
    230a:	90 e0       	ldi	r25, 0x00	; 0
    230c:	f8 94       	cli
    230e:	0c 94 6c 15 	jmp	0x2ad8	; 0x2ad8 <_exit>

00002312 <memcpy>:
    2312:	fb 01       	movw	r30, r22
    2314:	dc 01       	movw	r26, r24
    2316:	02 c0       	rjmp	.+4      	; 0x231c <memcpy+0xa>
    2318:	01 90       	ld	r0, Z+
    231a:	0d 92       	st	X+, r0
    231c:	41 50       	subi	r20, 0x01	; 1
    231e:	50 40       	sbci	r21, 0x00	; 0
    2320:	d8 f7       	brcc	.-10     	; 0x2318 <memcpy+0x6>
    2322:	08 95       	ret

00002324 <strcmp>:
    2324:	fb 01       	movw	r30, r22
    2326:	dc 01       	movw	r26, r24
    2328:	8d 91       	ld	r24, X+
    232a:	01 90       	ld	r0, Z+
    232c:	80 19       	sub	r24, r0
    232e:	01 10       	cpse	r0, r1
    2330:	d9 f3       	breq	.-10     	; 0x2328 <strcmp+0x4>
    2332:	99 0b       	sbc	r25, r25
    2334:	08 95       	ret

00002336 <snprintf>:
    2336:	0f 93       	push	r16
    2338:	1f 93       	push	r17
    233a:	df 93       	push	r29
    233c:	cf 93       	push	r28
    233e:	cd b7       	in	r28, 0x3d	; 61
    2340:	de b7       	in	r29, 0x3e	; 62
    2342:	2e 97       	sbiw	r28, 0x0e	; 14
    2344:	0f b6       	in	r0, 0x3f	; 63
    2346:	f8 94       	cli
    2348:	de bf       	out	0x3e, r29	; 62
    234a:	0f be       	out	0x3f, r0	; 63
    234c:	cd bf       	out	0x3d, r28	; 61
    234e:	0d 89       	ldd	r16, Y+21	; 0x15
    2350:	1e 89       	ldd	r17, Y+22	; 0x16
    2352:	8f 89       	ldd	r24, Y+23	; 0x17
    2354:	98 8d       	ldd	r25, Y+24	; 0x18
    2356:	97 ff       	sbrs	r25, 7
    2358:	02 c0       	rjmp	.+4      	; 0x235e <snprintf+0x28>
    235a:	80 e0       	ldi	r24, 0x00	; 0
    235c:	90 e8       	ldi	r25, 0x80	; 128
    235e:	01 97       	sbiw	r24, 0x01	; 1
    2360:	9e 83       	std	Y+6, r25	; 0x06
    2362:	8d 83       	std	Y+5, r24	; 0x05
    2364:	1a 83       	std	Y+2, r17	; 0x02
    2366:	09 83       	std	Y+1, r16	; 0x01
    2368:	86 e0       	ldi	r24, 0x06	; 6
    236a:	8c 83       	std	Y+4, r24	; 0x04
    236c:	9e 01       	movw	r18, r28
    236e:	25 5e       	subi	r18, 0xE5	; 229
    2370:	3f 4f       	sbci	r19, 0xFF	; 255
    2372:	ce 01       	movw	r24, r28
    2374:	01 96       	adiw	r24, 0x01	; 1
    2376:	69 8d       	ldd	r22, Y+25	; 0x19
    2378:	7a 8d       	ldd	r23, Y+26	; 0x1a
    237a:	a9 01       	movw	r20, r18
    237c:	0e 94 6a 12 	call	0x24d4	; 0x24d4 <vfprintf>
    2380:	4d 81       	ldd	r20, Y+5	; 0x05
    2382:	5e 81       	ldd	r21, Y+6	; 0x06
    2384:	57 fd       	sbrc	r21, 7
    2386:	0a c0       	rjmp	.+20     	; 0x239c <snprintf+0x66>
    2388:	2f 81       	ldd	r18, Y+7	; 0x07
    238a:	38 85       	ldd	r19, Y+8	; 0x08
    238c:	42 17       	cp	r20, r18
    238e:	53 07       	cpc	r21, r19
    2390:	0c f4       	brge	.+2      	; 0x2394 <snprintf+0x5e>
    2392:	9a 01       	movw	r18, r20
    2394:	02 0f       	add	r16, r18
    2396:	13 1f       	adc	r17, r19
    2398:	f8 01       	movw	r30, r16
    239a:	10 82       	st	Z, r1
    239c:	2e 96       	adiw	r28, 0x0e	; 14
    239e:	0f b6       	in	r0, 0x3f	; 63
    23a0:	f8 94       	cli
    23a2:	de bf       	out	0x3e, r29	; 62
    23a4:	0f be       	out	0x3f, r0	; 63
    23a6:	cd bf       	out	0x3d, r28	; 61
    23a8:	cf 91       	pop	r28
    23aa:	df 91       	pop	r29
    23ac:	1f 91       	pop	r17
    23ae:	0f 91       	pop	r16
    23b0:	08 95       	ret

000023b2 <sprintf>:
    23b2:	0f 93       	push	r16
    23b4:	1f 93       	push	r17
    23b6:	df 93       	push	r29
    23b8:	cf 93       	push	r28
    23ba:	cd b7       	in	r28, 0x3d	; 61
    23bc:	de b7       	in	r29, 0x3e	; 62
    23be:	2e 97       	sbiw	r28, 0x0e	; 14
    23c0:	0f b6       	in	r0, 0x3f	; 63
    23c2:	f8 94       	cli
    23c4:	de bf       	out	0x3e, r29	; 62
    23c6:	0f be       	out	0x3f, r0	; 63
    23c8:	cd bf       	out	0x3d, r28	; 61
    23ca:	0d 89       	ldd	r16, Y+21	; 0x15
    23cc:	1e 89       	ldd	r17, Y+22	; 0x16
    23ce:	86 e0       	ldi	r24, 0x06	; 6
    23d0:	8c 83       	std	Y+4, r24	; 0x04
    23d2:	1a 83       	std	Y+2, r17	; 0x02
    23d4:	09 83       	std	Y+1, r16	; 0x01
    23d6:	8f ef       	ldi	r24, 0xFF	; 255
    23d8:	9f e7       	ldi	r25, 0x7F	; 127
    23da:	9e 83       	std	Y+6, r25	; 0x06
    23dc:	8d 83       	std	Y+5, r24	; 0x05
    23de:	9e 01       	movw	r18, r28
    23e0:	27 5e       	subi	r18, 0xE7	; 231
    23e2:	3f 4f       	sbci	r19, 0xFF	; 255
    23e4:	ce 01       	movw	r24, r28
    23e6:	01 96       	adiw	r24, 0x01	; 1
    23e8:	6f 89       	ldd	r22, Y+23	; 0x17
    23ea:	78 8d       	ldd	r23, Y+24	; 0x18
    23ec:	a9 01       	movw	r20, r18
    23ee:	0e 94 6a 12 	call	0x24d4	; 0x24d4 <vfprintf>
    23f2:	2f 81       	ldd	r18, Y+7	; 0x07
    23f4:	38 85       	ldd	r19, Y+8	; 0x08
    23f6:	02 0f       	add	r16, r18
    23f8:	13 1f       	adc	r17, r19
    23fa:	f8 01       	movw	r30, r16
    23fc:	10 82       	st	Z, r1
    23fe:	2e 96       	adiw	r28, 0x0e	; 14
    2400:	0f b6       	in	r0, 0x3f	; 63
    2402:	f8 94       	cli
    2404:	de bf       	out	0x3e, r29	; 62
    2406:	0f be       	out	0x3f, r0	; 63
    2408:	cd bf       	out	0x3d, r28	; 61
    240a:	cf 91       	pop	r28
    240c:	df 91       	pop	r29
    240e:	1f 91       	pop	r17
    2410:	0f 91       	pop	r16
    2412:	08 95       	ret

00002414 <vsnprintf>:
    2414:	0f 93       	push	r16
    2416:	1f 93       	push	r17
    2418:	df 93       	push	r29
    241a:	cf 93       	push	r28
    241c:	cd b7       	in	r28, 0x3d	; 61
    241e:	de b7       	in	r29, 0x3e	; 62
    2420:	2e 97       	sbiw	r28, 0x0e	; 14
    2422:	0f b6       	in	r0, 0x3f	; 63
    2424:	f8 94       	cli
    2426:	de bf       	out	0x3e, r29	; 62
    2428:	0f be       	out	0x3f, r0	; 63
    242a:	cd bf       	out	0x3d, r28	; 61
    242c:	8c 01       	movw	r16, r24
    242e:	77 ff       	sbrs	r23, 7
    2430:	02 c0       	rjmp	.+4      	; 0x2436 <vsnprintf+0x22>
    2432:	60 e0       	ldi	r22, 0x00	; 0
    2434:	70 e8       	ldi	r23, 0x80	; 128
    2436:	61 50       	subi	r22, 0x01	; 1
    2438:	70 40       	sbci	r23, 0x00	; 0
    243a:	7e 83       	std	Y+6, r23	; 0x06
    243c:	6d 83       	std	Y+5, r22	; 0x05
    243e:	1a 83       	std	Y+2, r17	; 0x02
    2440:	09 83       	std	Y+1, r16	; 0x01
    2442:	86 e0       	ldi	r24, 0x06	; 6
    2444:	8c 83       	std	Y+4, r24	; 0x04
    2446:	ce 01       	movw	r24, r28
    2448:	01 96       	adiw	r24, 0x01	; 1
    244a:	ba 01       	movw	r22, r20
    244c:	a9 01       	movw	r20, r18
    244e:	0e 94 6a 12 	call	0x24d4	; 0x24d4 <vfprintf>
    2452:	2d 81       	ldd	r18, Y+5	; 0x05
    2454:	3e 81       	ldd	r19, Y+6	; 0x06
    2456:	37 fd       	sbrc	r19, 7
    2458:	09 c0       	rjmp	.+18     	; 0x246c <vsnprintf+0x58>
    245a:	ef 81       	ldd	r30, Y+7	; 0x07
    245c:	f8 85       	ldd	r31, Y+8	; 0x08
    245e:	2e 17       	cp	r18, r30
    2460:	3f 07       	cpc	r19, r31
    2462:	0c f4       	brge	.+2      	; 0x2466 <vsnprintf+0x52>
    2464:	f9 01       	movw	r30, r18
    2466:	e0 0f       	add	r30, r16
    2468:	f1 1f       	adc	r31, r17
    246a:	10 82       	st	Z, r1
    246c:	2e 96       	adiw	r28, 0x0e	; 14
    246e:	0f b6       	in	r0, 0x3f	; 63
    2470:	f8 94       	cli
    2472:	de bf       	out	0x3e, r29	; 62
    2474:	0f be       	out	0x3f, r0	; 63
    2476:	cd bf       	out	0x3d, r28	; 61
    2478:	cf 91       	pop	r28
    247a:	df 91       	pop	r29
    247c:	1f 91       	pop	r17
    247e:	0f 91       	pop	r16
    2480:	08 95       	ret

00002482 <vsprintf>:
    2482:	0f 93       	push	r16
    2484:	1f 93       	push	r17
    2486:	df 93       	push	r29
    2488:	cf 93       	push	r28
    248a:	cd b7       	in	r28, 0x3d	; 61
    248c:	de b7       	in	r29, 0x3e	; 62
    248e:	2e 97       	sbiw	r28, 0x0e	; 14
    2490:	0f b6       	in	r0, 0x3f	; 63
    2492:	f8 94       	cli
    2494:	de bf       	out	0x3e, r29	; 62
    2496:	0f be       	out	0x3f, r0	; 63
    2498:	cd bf       	out	0x3d, r28	; 61
    249a:	8c 01       	movw	r16, r24
    249c:	86 e0       	ldi	r24, 0x06	; 6
    249e:	8c 83       	std	Y+4, r24	; 0x04
    24a0:	1a 83       	std	Y+2, r17	; 0x02
    24a2:	09 83       	std	Y+1, r16	; 0x01
    24a4:	8f ef       	ldi	r24, 0xFF	; 255
    24a6:	9f e7       	ldi	r25, 0x7F	; 127
    24a8:	9e 83       	std	Y+6, r25	; 0x06
    24aa:	8d 83       	std	Y+5, r24	; 0x05
    24ac:	ce 01       	movw	r24, r28
    24ae:	01 96       	adiw	r24, 0x01	; 1
    24b0:	0e 94 6a 12 	call	0x24d4	; 0x24d4 <vfprintf>
    24b4:	ef 81       	ldd	r30, Y+7	; 0x07
    24b6:	f8 85       	ldd	r31, Y+8	; 0x08
    24b8:	e0 0f       	add	r30, r16
    24ba:	f1 1f       	adc	r31, r17
    24bc:	10 82       	st	Z, r1
    24be:	2e 96       	adiw	r28, 0x0e	; 14
    24c0:	0f b6       	in	r0, 0x3f	; 63
    24c2:	f8 94       	cli
    24c4:	de bf       	out	0x3e, r29	; 62
    24c6:	0f be       	out	0x3f, r0	; 63
    24c8:	cd bf       	out	0x3d, r28	; 61
    24ca:	cf 91       	pop	r28
    24cc:	df 91       	pop	r29
    24ce:	1f 91       	pop	r17
    24d0:	0f 91       	pop	r16
    24d2:	08 95       	ret

000024d4 <vfprintf>:
    24d4:	2f 92       	push	r2
    24d6:	3f 92       	push	r3
    24d8:	4f 92       	push	r4
    24da:	5f 92       	push	r5
    24dc:	6f 92       	push	r6
    24de:	7f 92       	push	r7
    24e0:	8f 92       	push	r8
    24e2:	9f 92       	push	r9
    24e4:	af 92       	push	r10
    24e6:	bf 92       	push	r11
    24e8:	cf 92       	push	r12
    24ea:	df 92       	push	r13
    24ec:	ef 92       	push	r14
    24ee:	ff 92       	push	r15
    24f0:	0f 93       	push	r16
    24f2:	1f 93       	push	r17
    24f4:	df 93       	push	r29
    24f6:	cf 93       	push	r28
    24f8:	cd b7       	in	r28, 0x3d	; 61
    24fa:	de b7       	in	r29, 0x3e	; 62
    24fc:	2b 97       	sbiw	r28, 0x0b	; 11
    24fe:	0f b6       	in	r0, 0x3f	; 63
    2500:	f8 94       	cli
    2502:	de bf       	out	0x3e, r29	; 62
    2504:	0f be       	out	0x3f, r0	; 63
    2506:	cd bf       	out	0x3d, r28	; 61
    2508:	3c 01       	movw	r6, r24
    250a:	2b 01       	movw	r4, r22
    250c:	5a 01       	movw	r10, r20
    250e:	fc 01       	movw	r30, r24
    2510:	17 82       	std	Z+7, r1	; 0x07
    2512:	16 82       	std	Z+6, r1	; 0x06
    2514:	83 81       	ldd	r24, Z+3	; 0x03
    2516:	81 fd       	sbrc	r24, 1
    2518:	03 c0       	rjmp	.+6      	; 0x2520 <vfprintf+0x4c>
    251a:	6f ef       	ldi	r22, 0xFF	; 255
    251c:	7f ef       	ldi	r23, 0xFF	; 255
    251e:	c6 c1       	rjmp	.+908    	; 0x28ac <vfprintf+0x3d8>
    2520:	9a e0       	ldi	r25, 0x0A	; 10
    2522:	89 2e       	mov	r8, r25
    2524:	1e 01       	movw	r2, r28
    2526:	08 94       	sec
    2528:	21 1c       	adc	r2, r1
    252a:	31 1c       	adc	r3, r1
    252c:	f3 01       	movw	r30, r6
    252e:	23 81       	ldd	r18, Z+3	; 0x03
    2530:	f2 01       	movw	r30, r4
    2532:	23 fd       	sbrc	r18, 3
    2534:	85 91       	lpm	r24, Z+
    2536:	23 ff       	sbrs	r18, 3
    2538:	81 91       	ld	r24, Z+
    253a:	2f 01       	movw	r4, r30
    253c:	88 23       	and	r24, r24
    253e:	09 f4       	brne	.+2      	; 0x2542 <vfprintf+0x6e>
    2540:	b2 c1       	rjmp	.+868    	; 0x28a6 <vfprintf+0x3d2>
    2542:	85 32       	cpi	r24, 0x25	; 37
    2544:	39 f4       	brne	.+14     	; 0x2554 <vfprintf+0x80>
    2546:	23 fd       	sbrc	r18, 3
    2548:	85 91       	lpm	r24, Z+
    254a:	23 ff       	sbrs	r18, 3
    254c:	81 91       	ld	r24, Z+
    254e:	2f 01       	movw	r4, r30
    2550:	85 32       	cpi	r24, 0x25	; 37
    2552:	29 f4       	brne	.+10     	; 0x255e <vfprintf+0x8a>
    2554:	90 e0       	ldi	r25, 0x00	; 0
    2556:	b3 01       	movw	r22, r6
    2558:	0e 94 86 14 	call	0x290c	; 0x290c <fputc>
    255c:	e7 cf       	rjmp	.-50     	; 0x252c <vfprintf+0x58>
    255e:	98 2f       	mov	r25, r24
    2560:	ff 24       	eor	r15, r15
    2562:	ee 24       	eor	r14, r14
    2564:	99 24       	eor	r9, r9
    2566:	ff e1       	ldi	r31, 0x1F	; 31
    2568:	ff 15       	cp	r31, r15
    256a:	d0 f0       	brcs	.+52     	; 0x25a0 <vfprintf+0xcc>
    256c:	9b 32       	cpi	r25, 0x2B	; 43
    256e:	69 f0       	breq	.+26     	; 0x258a <vfprintf+0xb6>
    2570:	9c 32       	cpi	r25, 0x2C	; 44
    2572:	28 f4       	brcc	.+10     	; 0x257e <vfprintf+0xaa>
    2574:	90 32       	cpi	r25, 0x20	; 32
    2576:	59 f0       	breq	.+22     	; 0x258e <vfprintf+0xba>
    2578:	93 32       	cpi	r25, 0x23	; 35
    257a:	91 f4       	brne	.+36     	; 0x25a0 <vfprintf+0xcc>
    257c:	0e c0       	rjmp	.+28     	; 0x259a <vfprintf+0xc6>
    257e:	9d 32       	cpi	r25, 0x2D	; 45
    2580:	49 f0       	breq	.+18     	; 0x2594 <vfprintf+0xc0>
    2582:	90 33       	cpi	r25, 0x30	; 48
    2584:	69 f4       	brne	.+26     	; 0x25a0 <vfprintf+0xcc>
    2586:	41 e0       	ldi	r20, 0x01	; 1
    2588:	24 c0       	rjmp	.+72     	; 0x25d2 <vfprintf+0xfe>
    258a:	52 e0       	ldi	r21, 0x02	; 2
    258c:	f5 2a       	or	r15, r21
    258e:	84 e0       	ldi	r24, 0x04	; 4
    2590:	f8 2a       	or	r15, r24
    2592:	28 c0       	rjmp	.+80     	; 0x25e4 <vfprintf+0x110>
    2594:	98 e0       	ldi	r25, 0x08	; 8
    2596:	f9 2a       	or	r15, r25
    2598:	25 c0       	rjmp	.+74     	; 0x25e4 <vfprintf+0x110>
    259a:	e0 e1       	ldi	r30, 0x10	; 16
    259c:	fe 2a       	or	r15, r30
    259e:	22 c0       	rjmp	.+68     	; 0x25e4 <vfprintf+0x110>
    25a0:	f7 fc       	sbrc	r15, 7
    25a2:	29 c0       	rjmp	.+82     	; 0x25f6 <vfprintf+0x122>
    25a4:	89 2f       	mov	r24, r25
    25a6:	80 53       	subi	r24, 0x30	; 48
    25a8:	8a 30       	cpi	r24, 0x0A	; 10
    25aa:	70 f4       	brcc	.+28     	; 0x25c8 <vfprintf+0xf4>
    25ac:	f6 fe       	sbrs	r15, 6
    25ae:	05 c0       	rjmp	.+10     	; 0x25ba <vfprintf+0xe6>
    25b0:	98 9c       	mul	r9, r8
    25b2:	90 2c       	mov	r9, r0
    25b4:	11 24       	eor	r1, r1
    25b6:	98 0e       	add	r9, r24
    25b8:	15 c0       	rjmp	.+42     	; 0x25e4 <vfprintf+0x110>
    25ba:	e8 9c       	mul	r14, r8
    25bc:	e0 2c       	mov	r14, r0
    25be:	11 24       	eor	r1, r1
    25c0:	e8 0e       	add	r14, r24
    25c2:	f0 e2       	ldi	r31, 0x20	; 32
    25c4:	ff 2a       	or	r15, r31
    25c6:	0e c0       	rjmp	.+28     	; 0x25e4 <vfprintf+0x110>
    25c8:	9e 32       	cpi	r25, 0x2E	; 46
    25ca:	29 f4       	brne	.+10     	; 0x25d6 <vfprintf+0x102>
    25cc:	f6 fc       	sbrc	r15, 6
    25ce:	6b c1       	rjmp	.+726    	; 0x28a6 <vfprintf+0x3d2>
    25d0:	40 e4       	ldi	r20, 0x40	; 64
    25d2:	f4 2a       	or	r15, r20
    25d4:	07 c0       	rjmp	.+14     	; 0x25e4 <vfprintf+0x110>
    25d6:	9c 36       	cpi	r25, 0x6C	; 108
    25d8:	19 f4       	brne	.+6      	; 0x25e0 <vfprintf+0x10c>
    25da:	50 e8       	ldi	r21, 0x80	; 128
    25dc:	f5 2a       	or	r15, r21
    25de:	02 c0       	rjmp	.+4      	; 0x25e4 <vfprintf+0x110>
    25e0:	98 36       	cpi	r25, 0x68	; 104
    25e2:	49 f4       	brne	.+18     	; 0x25f6 <vfprintf+0x122>
    25e4:	f2 01       	movw	r30, r4
    25e6:	23 fd       	sbrc	r18, 3
    25e8:	95 91       	lpm	r25, Z+
    25ea:	23 ff       	sbrs	r18, 3
    25ec:	91 91       	ld	r25, Z+
    25ee:	2f 01       	movw	r4, r30
    25f0:	99 23       	and	r25, r25
    25f2:	09 f0       	breq	.+2      	; 0x25f6 <vfprintf+0x122>
    25f4:	b8 cf       	rjmp	.-144    	; 0x2566 <vfprintf+0x92>
    25f6:	89 2f       	mov	r24, r25
    25f8:	85 54       	subi	r24, 0x45	; 69
    25fa:	83 30       	cpi	r24, 0x03	; 3
    25fc:	18 f0       	brcs	.+6      	; 0x2604 <vfprintf+0x130>
    25fe:	80 52       	subi	r24, 0x20	; 32
    2600:	83 30       	cpi	r24, 0x03	; 3
    2602:	38 f4       	brcc	.+14     	; 0x2612 <vfprintf+0x13e>
    2604:	44 e0       	ldi	r20, 0x04	; 4
    2606:	50 e0       	ldi	r21, 0x00	; 0
    2608:	a4 0e       	add	r10, r20
    260a:	b5 1e       	adc	r11, r21
    260c:	5f e3       	ldi	r21, 0x3F	; 63
    260e:	59 83       	std	Y+1, r21	; 0x01
    2610:	0f c0       	rjmp	.+30     	; 0x2630 <vfprintf+0x15c>
    2612:	93 36       	cpi	r25, 0x63	; 99
    2614:	31 f0       	breq	.+12     	; 0x2622 <vfprintf+0x14e>
    2616:	93 37       	cpi	r25, 0x73	; 115
    2618:	79 f0       	breq	.+30     	; 0x2638 <vfprintf+0x164>
    261a:	93 35       	cpi	r25, 0x53	; 83
    261c:	09 f0       	breq	.+2      	; 0x2620 <vfprintf+0x14c>
    261e:	56 c0       	rjmp	.+172    	; 0x26cc <vfprintf+0x1f8>
    2620:	20 c0       	rjmp	.+64     	; 0x2662 <vfprintf+0x18e>
    2622:	f5 01       	movw	r30, r10
    2624:	80 81       	ld	r24, Z
    2626:	89 83       	std	Y+1, r24	; 0x01
    2628:	42 e0       	ldi	r20, 0x02	; 2
    262a:	50 e0       	ldi	r21, 0x00	; 0
    262c:	a4 0e       	add	r10, r20
    262e:	b5 1e       	adc	r11, r21
    2630:	61 01       	movw	r12, r2
    2632:	01 e0       	ldi	r16, 0x01	; 1
    2634:	10 e0       	ldi	r17, 0x00	; 0
    2636:	12 c0       	rjmp	.+36     	; 0x265c <vfprintf+0x188>
    2638:	f5 01       	movw	r30, r10
    263a:	c0 80       	ld	r12, Z
    263c:	d1 80       	ldd	r13, Z+1	; 0x01
    263e:	f6 fc       	sbrc	r15, 6
    2640:	03 c0       	rjmp	.+6      	; 0x2648 <vfprintf+0x174>
    2642:	6f ef       	ldi	r22, 0xFF	; 255
    2644:	7f ef       	ldi	r23, 0xFF	; 255
    2646:	02 c0       	rjmp	.+4      	; 0x264c <vfprintf+0x178>
    2648:	69 2d       	mov	r22, r9
    264a:	70 e0       	ldi	r23, 0x00	; 0
    264c:	42 e0       	ldi	r20, 0x02	; 2
    264e:	50 e0       	ldi	r21, 0x00	; 0
    2650:	a4 0e       	add	r10, r20
    2652:	b5 1e       	adc	r11, r21
    2654:	c6 01       	movw	r24, r12
    2656:	0e 94 7b 14 	call	0x28f6	; 0x28f6 <strnlen>
    265a:	8c 01       	movw	r16, r24
    265c:	5f e7       	ldi	r21, 0x7F	; 127
    265e:	f5 22       	and	r15, r21
    2660:	14 c0       	rjmp	.+40     	; 0x268a <vfprintf+0x1b6>
    2662:	f5 01       	movw	r30, r10
    2664:	c0 80       	ld	r12, Z
    2666:	d1 80       	ldd	r13, Z+1	; 0x01
    2668:	f6 fc       	sbrc	r15, 6
    266a:	03 c0       	rjmp	.+6      	; 0x2672 <vfprintf+0x19e>
    266c:	6f ef       	ldi	r22, 0xFF	; 255
    266e:	7f ef       	ldi	r23, 0xFF	; 255
    2670:	02 c0       	rjmp	.+4      	; 0x2676 <vfprintf+0x1a2>
    2672:	69 2d       	mov	r22, r9
    2674:	70 e0       	ldi	r23, 0x00	; 0
    2676:	42 e0       	ldi	r20, 0x02	; 2
    2678:	50 e0       	ldi	r21, 0x00	; 0
    267a:	a4 0e       	add	r10, r20
    267c:	b5 1e       	adc	r11, r21
    267e:	c6 01       	movw	r24, r12
    2680:	0e 94 70 14 	call	0x28e0	; 0x28e0 <strnlen_P>
    2684:	8c 01       	movw	r16, r24
    2686:	50 e8       	ldi	r21, 0x80	; 128
    2688:	f5 2a       	or	r15, r21
    268a:	f3 fe       	sbrs	r15, 3
    268c:	07 c0       	rjmp	.+14     	; 0x269c <vfprintf+0x1c8>
    268e:	1a c0       	rjmp	.+52     	; 0x26c4 <vfprintf+0x1f0>
    2690:	80 e2       	ldi	r24, 0x20	; 32
    2692:	90 e0       	ldi	r25, 0x00	; 0
    2694:	b3 01       	movw	r22, r6
    2696:	0e 94 86 14 	call	0x290c	; 0x290c <fputc>
    269a:	ea 94       	dec	r14
    269c:	8e 2d       	mov	r24, r14
    269e:	90 e0       	ldi	r25, 0x00	; 0
    26a0:	08 17       	cp	r16, r24
    26a2:	19 07       	cpc	r17, r25
    26a4:	a8 f3       	brcs	.-22     	; 0x2690 <vfprintf+0x1bc>
    26a6:	0e c0       	rjmp	.+28     	; 0x26c4 <vfprintf+0x1f0>
    26a8:	f6 01       	movw	r30, r12
    26aa:	f7 fc       	sbrc	r15, 7
    26ac:	85 91       	lpm	r24, Z+
    26ae:	f7 fe       	sbrs	r15, 7
    26b0:	81 91       	ld	r24, Z+
    26b2:	6f 01       	movw	r12, r30
    26b4:	90 e0       	ldi	r25, 0x00	; 0
    26b6:	b3 01       	movw	r22, r6
    26b8:	0e 94 86 14 	call	0x290c	; 0x290c <fputc>
    26bc:	e1 10       	cpse	r14, r1
    26be:	ea 94       	dec	r14
    26c0:	01 50       	subi	r16, 0x01	; 1
    26c2:	10 40       	sbci	r17, 0x00	; 0
    26c4:	01 15       	cp	r16, r1
    26c6:	11 05       	cpc	r17, r1
    26c8:	79 f7       	brne	.-34     	; 0x26a8 <vfprintf+0x1d4>
    26ca:	ea c0       	rjmp	.+468    	; 0x28a0 <vfprintf+0x3cc>
    26cc:	94 36       	cpi	r25, 0x64	; 100
    26ce:	11 f0       	breq	.+4      	; 0x26d4 <vfprintf+0x200>
    26d0:	99 36       	cpi	r25, 0x69	; 105
    26d2:	69 f5       	brne	.+90     	; 0x272e <vfprintf+0x25a>
    26d4:	f7 fe       	sbrs	r15, 7
    26d6:	08 c0       	rjmp	.+16     	; 0x26e8 <vfprintf+0x214>
    26d8:	f5 01       	movw	r30, r10
    26da:	20 81       	ld	r18, Z
    26dc:	31 81       	ldd	r19, Z+1	; 0x01
    26de:	42 81       	ldd	r20, Z+2	; 0x02
    26e0:	53 81       	ldd	r21, Z+3	; 0x03
    26e2:	84 e0       	ldi	r24, 0x04	; 4
    26e4:	90 e0       	ldi	r25, 0x00	; 0
    26e6:	0a c0       	rjmp	.+20     	; 0x26fc <vfprintf+0x228>
    26e8:	f5 01       	movw	r30, r10
    26ea:	80 81       	ld	r24, Z
    26ec:	91 81       	ldd	r25, Z+1	; 0x01
    26ee:	9c 01       	movw	r18, r24
    26f0:	44 27       	eor	r20, r20
    26f2:	37 fd       	sbrc	r19, 7
    26f4:	40 95       	com	r20
    26f6:	54 2f       	mov	r21, r20
    26f8:	82 e0       	ldi	r24, 0x02	; 2
    26fa:	90 e0       	ldi	r25, 0x00	; 0
    26fc:	a8 0e       	add	r10, r24
    26fe:	b9 1e       	adc	r11, r25
    2700:	9f e6       	ldi	r25, 0x6F	; 111
    2702:	f9 22       	and	r15, r25
    2704:	57 ff       	sbrs	r21, 7
    2706:	09 c0       	rjmp	.+18     	; 0x271a <vfprintf+0x246>
    2708:	50 95       	com	r21
    270a:	40 95       	com	r20
    270c:	30 95       	com	r19
    270e:	21 95       	neg	r18
    2710:	3f 4f       	sbci	r19, 0xFF	; 255
    2712:	4f 4f       	sbci	r20, 0xFF	; 255
    2714:	5f 4f       	sbci	r21, 0xFF	; 255
    2716:	e0 e8       	ldi	r30, 0x80	; 128
    2718:	fe 2a       	or	r15, r30
    271a:	ca 01       	movw	r24, r20
    271c:	b9 01       	movw	r22, r18
    271e:	a1 01       	movw	r20, r2
    2720:	2a e0       	ldi	r18, 0x0A	; 10
    2722:	30 e0       	ldi	r19, 0x00	; 0
    2724:	0e 94 b2 14 	call	0x2964	; 0x2964 <__ultoa_invert>
    2728:	d8 2e       	mov	r13, r24
    272a:	d2 18       	sub	r13, r2
    272c:	40 c0       	rjmp	.+128    	; 0x27ae <vfprintf+0x2da>
    272e:	95 37       	cpi	r25, 0x75	; 117
    2730:	29 f4       	brne	.+10     	; 0x273c <vfprintf+0x268>
    2732:	1f 2d       	mov	r17, r15
    2734:	1f 7e       	andi	r17, 0xEF	; 239
    2736:	2a e0       	ldi	r18, 0x0A	; 10
    2738:	30 e0       	ldi	r19, 0x00	; 0
    273a:	1d c0       	rjmp	.+58     	; 0x2776 <vfprintf+0x2a2>
    273c:	1f 2d       	mov	r17, r15
    273e:	19 7f       	andi	r17, 0xF9	; 249
    2740:	9f 36       	cpi	r25, 0x6F	; 111
    2742:	61 f0       	breq	.+24     	; 0x275c <vfprintf+0x288>
    2744:	90 37       	cpi	r25, 0x70	; 112
    2746:	20 f4       	brcc	.+8      	; 0x2750 <vfprintf+0x27c>
    2748:	98 35       	cpi	r25, 0x58	; 88
    274a:	09 f0       	breq	.+2      	; 0x274e <vfprintf+0x27a>
    274c:	ac c0       	rjmp	.+344    	; 0x28a6 <vfprintf+0x3d2>
    274e:	0f c0       	rjmp	.+30     	; 0x276e <vfprintf+0x29a>
    2750:	90 37       	cpi	r25, 0x70	; 112
    2752:	39 f0       	breq	.+14     	; 0x2762 <vfprintf+0x28e>
    2754:	98 37       	cpi	r25, 0x78	; 120
    2756:	09 f0       	breq	.+2      	; 0x275a <vfprintf+0x286>
    2758:	a6 c0       	rjmp	.+332    	; 0x28a6 <vfprintf+0x3d2>
    275a:	04 c0       	rjmp	.+8      	; 0x2764 <vfprintf+0x290>
    275c:	28 e0       	ldi	r18, 0x08	; 8
    275e:	30 e0       	ldi	r19, 0x00	; 0
    2760:	0a c0       	rjmp	.+20     	; 0x2776 <vfprintf+0x2a2>
    2762:	10 61       	ori	r17, 0x10	; 16
    2764:	14 fd       	sbrc	r17, 4
    2766:	14 60       	ori	r17, 0x04	; 4
    2768:	20 e1       	ldi	r18, 0x10	; 16
    276a:	30 e0       	ldi	r19, 0x00	; 0
    276c:	04 c0       	rjmp	.+8      	; 0x2776 <vfprintf+0x2a2>
    276e:	14 fd       	sbrc	r17, 4
    2770:	16 60       	ori	r17, 0x06	; 6
    2772:	20 e1       	ldi	r18, 0x10	; 16
    2774:	32 e0       	ldi	r19, 0x02	; 2
    2776:	17 ff       	sbrs	r17, 7
    2778:	08 c0       	rjmp	.+16     	; 0x278a <vfprintf+0x2b6>
    277a:	f5 01       	movw	r30, r10
    277c:	60 81       	ld	r22, Z
    277e:	71 81       	ldd	r23, Z+1	; 0x01
    2780:	82 81       	ldd	r24, Z+2	; 0x02
    2782:	93 81       	ldd	r25, Z+3	; 0x03
    2784:	44 e0       	ldi	r20, 0x04	; 4
    2786:	50 e0       	ldi	r21, 0x00	; 0
    2788:	08 c0       	rjmp	.+16     	; 0x279a <vfprintf+0x2c6>
    278a:	f5 01       	movw	r30, r10
    278c:	80 81       	ld	r24, Z
    278e:	91 81       	ldd	r25, Z+1	; 0x01
    2790:	bc 01       	movw	r22, r24
    2792:	80 e0       	ldi	r24, 0x00	; 0
    2794:	90 e0       	ldi	r25, 0x00	; 0
    2796:	42 e0       	ldi	r20, 0x02	; 2
    2798:	50 e0       	ldi	r21, 0x00	; 0
    279a:	a4 0e       	add	r10, r20
    279c:	b5 1e       	adc	r11, r21
    279e:	a1 01       	movw	r20, r2
    27a0:	0e 94 b2 14 	call	0x2964	; 0x2964 <__ultoa_invert>
    27a4:	d8 2e       	mov	r13, r24
    27a6:	d2 18       	sub	r13, r2
    27a8:	8f e7       	ldi	r24, 0x7F	; 127
    27aa:	f8 2e       	mov	r15, r24
    27ac:	f1 22       	and	r15, r17
    27ae:	f6 fe       	sbrs	r15, 6
    27b0:	0b c0       	rjmp	.+22     	; 0x27c8 <vfprintf+0x2f4>
    27b2:	5e ef       	ldi	r21, 0xFE	; 254
    27b4:	f5 22       	and	r15, r21
    27b6:	d9 14       	cp	r13, r9
    27b8:	38 f4       	brcc	.+14     	; 0x27c8 <vfprintf+0x2f4>
    27ba:	f4 fe       	sbrs	r15, 4
    27bc:	07 c0       	rjmp	.+14     	; 0x27cc <vfprintf+0x2f8>
    27be:	f2 fc       	sbrc	r15, 2
    27c0:	05 c0       	rjmp	.+10     	; 0x27cc <vfprintf+0x2f8>
    27c2:	8f ee       	ldi	r24, 0xEF	; 239
    27c4:	f8 22       	and	r15, r24
    27c6:	02 c0       	rjmp	.+4      	; 0x27cc <vfprintf+0x2f8>
    27c8:	1d 2d       	mov	r17, r13
    27ca:	01 c0       	rjmp	.+2      	; 0x27ce <vfprintf+0x2fa>
    27cc:	19 2d       	mov	r17, r9
    27ce:	f4 fe       	sbrs	r15, 4
    27d0:	0d c0       	rjmp	.+26     	; 0x27ec <vfprintf+0x318>
    27d2:	fe 01       	movw	r30, r28
    27d4:	ed 0d       	add	r30, r13
    27d6:	f1 1d       	adc	r31, r1
    27d8:	80 81       	ld	r24, Z
    27da:	80 33       	cpi	r24, 0x30	; 48
    27dc:	19 f4       	brne	.+6      	; 0x27e4 <vfprintf+0x310>
    27de:	99 ee       	ldi	r25, 0xE9	; 233
    27e0:	f9 22       	and	r15, r25
    27e2:	08 c0       	rjmp	.+16     	; 0x27f4 <vfprintf+0x320>
    27e4:	1f 5f       	subi	r17, 0xFF	; 255
    27e6:	f2 fe       	sbrs	r15, 2
    27e8:	05 c0       	rjmp	.+10     	; 0x27f4 <vfprintf+0x320>
    27ea:	03 c0       	rjmp	.+6      	; 0x27f2 <vfprintf+0x31e>
    27ec:	8f 2d       	mov	r24, r15
    27ee:	86 78       	andi	r24, 0x86	; 134
    27f0:	09 f0       	breq	.+2      	; 0x27f4 <vfprintf+0x320>
    27f2:	1f 5f       	subi	r17, 0xFF	; 255
    27f4:	0f 2d       	mov	r16, r15
    27f6:	f3 fc       	sbrc	r15, 3
    27f8:	14 c0       	rjmp	.+40     	; 0x2822 <vfprintf+0x34e>
    27fa:	f0 fe       	sbrs	r15, 0
    27fc:	0f c0       	rjmp	.+30     	; 0x281c <vfprintf+0x348>
    27fe:	1e 15       	cp	r17, r14
    2800:	10 f0       	brcs	.+4      	; 0x2806 <vfprintf+0x332>
    2802:	9d 2c       	mov	r9, r13
    2804:	0b c0       	rjmp	.+22     	; 0x281c <vfprintf+0x348>
    2806:	9d 2c       	mov	r9, r13
    2808:	9e 0c       	add	r9, r14
    280a:	91 1a       	sub	r9, r17
    280c:	1e 2d       	mov	r17, r14
    280e:	06 c0       	rjmp	.+12     	; 0x281c <vfprintf+0x348>
    2810:	80 e2       	ldi	r24, 0x20	; 32
    2812:	90 e0       	ldi	r25, 0x00	; 0
    2814:	b3 01       	movw	r22, r6
    2816:	0e 94 86 14 	call	0x290c	; 0x290c <fputc>
    281a:	1f 5f       	subi	r17, 0xFF	; 255
    281c:	1e 15       	cp	r17, r14
    281e:	c0 f3       	brcs	.-16     	; 0x2810 <vfprintf+0x33c>
    2820:	04 c0       	rjmp	.+8      	; 0x282a <vfprintf+0x356>
    2822:	1e 15       	cp	r17, r14
    2824:	10 f4       	brcc	.+4      	; 0x282a <vfprintf+0x356>
    2826:	e1 1a       	sub	r14, r17
    2828:	01 c0       	rjmp	.+2      	; 0x282c <vfprintf+0x358>
    282a:	ee 24       	eor	r14, r14
    282c:	04 ff       	sbrs	r16, 4
    282e:	0f c0       	rjmp	.+30     	; 0x284e <vfprintf+0x37a>
    2830:	80 e3       	ldi	r24, 0x30	; 48
    2832:	90 e0       	ldi	r25, 0x00	; 0
    2834:	b3 01       	movw	r22, r6
    2836:	0e 94 86 14 	call	0x290c	; 0x290c <fputc>
    283a:	02 ff       	sbrs	r16, 2
    283c:	1d c0       	rjmp	.+58     	; 0x2878 <vfprintf+0x3a4>
    283e:	01 fd       	sbrc	r16, 1
    2840:	03 c0       	rjmp	.+6      	; 0x2848 <vfprintf+0x374>
    2842:	88 e7       	ldi	r24, 0x78	; 120
    2844:	90 e0       	ldi	r25, 0x00	; 0
    2846:	0e c0       	rjmp	.+28     	; 0x2864 <vfprintf+0x390>
    2848:	88 e5       	ldi	r24, 0x58	; 88
    284a:	90 e0       	ldi	r25, 0x00	; 0
    284c:	0b c0       	rjmp	.+22     	; 0x2864 <vfprintf+0x390>
    284e:	80 2f       	mov	r24, r16
    2850:	86 78       	andi	r24, 0x86	; 134
    2852:	91 f0       	breq	.+36     	; 0x2878 <vfprintf+0x3a4>
    2854:	01 ff       	sbrs	r16, 1
    2856:	02 c0       	rjmp	.+4      	; 0x285c <vfprintf+0x388>
    2858:	8b e2       	ldi	r24, 0x2B	; 43
    285a:	01 c0       	rjmp	.+2      	; 0x285e <vfprintf+0x38a>
    285c:	80 e2       	ldi	r24, 0x20	; 32
    285e:	f7 fc       	sbrc	r15, 7
    2860:	8d e2       	ldi	r24, 0x2D	; 45
    2862:	90 e0       	ldi	r25, 0x00	; 0
    2864:	b3 01       	movw	r22, r6
    2866:	0e 94 86 14 	call	0x290c	; 0x290c <fputc>
    286a:	06 c0       	rjmp	.+12     	; 0x2878 <vfprintf+0x3a4>
    286c:	80 e3       	ldi	r24, 0x30	; 48
    286e:	90 e0       	ldi	r25, 0x00	; 0
    2870:	b3 01       	movw	r22, r6
    2872:	0e 94 86 14 	call	0x290c	; 0x290c <fputc>
    2876:	9a 94       	dec	r9
    2878:	d9 14       	cp	r13, r9
    287a:	c0 f3       	brcs	.-16     	; 0x286c <vfprintf+0x398>
    287c:	da 94       	dec	r13
    287e:	f1 01       	movw	r30, r2
    2880:	ed 0d       	add	r30, r13
    2882:	f1 1d       	adc	r31, r1
    2884:	80 81       	ld	r24, Z
    2886:	90 e0       	ldi	r25, 0x00	; 0
    2888:	b3 01       	movw	r22, r6
    288a:	0e 94 86 14 	call	0x290c	; 0x290c <fputc>
    288e:	dd 20       	and	r13, r13
    2890:	a9 f7       	brne	.-22     	; 0x287c <vfprintf+0x3a8>
    2892:	06 c0       	rjmp	.+12     	; 0x28a0 <vfprintf+0x3cc>
    2894:	80 e2       	ldi	r24, 0x20	; 32
    2896:	90 e0       	ldi	r25, 0x00	; 0
    2898:	b3 01       	movw	r22, r6
    289a:	0e 94 86 14 	call	0x290c	; 0x290c <fputc>
    289e:	ea 94       	dec	r14
    28a0:	ee 20       	and	r14, r14
    28a2:	c1 f7       	brne	.-16     	; 0x2894 <vfprintf+0x3c0>
    28a4:	43 ce       	rjmp	.-890    	; 0x252c <vfprintf+0x58>
    28a6:	f3 01       	movw	r30, r6
    28a8:	66 81       	ldd	r22, Z+6	; 0x06
    28aa:	77 81       	ldd	r23, Z+7	; 0x07
    28ac:	cb 01       	movw	r24, r22
    28ae:	2b 96       	adiw	r28, 0x0b	; 11
    28b0:	0f b6       	in	r0, 0x3f	; 63
    28b2:	f8 94       	cli
    28b4:	de bf       	out	0x3e, r29	; 62
    28b6:	0f be       	out	0x3f, r0	; 63
    28b8:	cd bf       	out	0x3d, r28	; 61
    28ba:	cf 91       	pop	r28
    28bc:	df 91       	pop	r29
    28be:	1f 91       	pop	r17
    28c0:	0f 91       	pop	r16
    28c2:	ff 90       	pop	r15
    28c4:	ef 90       	pop	r14
    28c6:	df 90       	pop	r13
    28c8:	cf 90       	pop	r12
    28ca:	bf 90       	pop	r11
    28cc:	af 90       	pop	r10
    28ce:	9f 90       	pop	r9
    28d0:	8f 90       	pop	r8
    28d2:	7f 90       	pop	r7
    28d4:	6f 90       	pop	r6
    28d6:	5f 90       	pop	r5
    28d8:	4f 90       	pop	r4
    28da:	3f 90       	pop	r3
    28dc:	2f 90       	pop	r2
    28de:	08 95       	ret

000028e0 <strnlen_P>:
    28e0:	fc 01       	movw	r30, r24
    28e2:	05 90       	lpm	r0, Z+
    28e4:	61 50       	subi	r22, 0x01	; 1
    28e6:	70 40       	sbci	r23, 0x00	; 0
    28e8:	01 10       	cpse	r0, r1
    28ea:	d8 f7       	brcc	.-10     	; 0x28e2 <strnlen_P+0x2>
    28ec:	80 95       	com	r24
    28ee:	90 95       	com	r25
    28f0:	8e 0f       	add	r24, r30
    28f2:	9f 1f       	adc	r25, r31
    28f4:	08 95       	ret

000028f6 <strnlen>:
    28f6:	fc 01       	movw	r30, r24
    28f8:	61 50       	subi	r22, 0x01	; 1
    28fa:	70 40       	sbci	r23, 0x00	; 0
    28fc:	01 90       	ld	r0, Z+
    28fe:	01 10       	cpse	r0, r1
    2900:	d8 f7       	brcc	.-10     	; 0x28f8 <strnlen+0x2>
    2902:	80 95       	com	r24
    2904:	90 95       	com	r25
    2906:	8e 0f       	add	r24, r30
    2908:	9f 1f       	adc	r25, r31
    290a:	08 95       	ret

0000290c <fputc>:
    290c:	0f 93       	push	r16
    290e:	1f 93       	push	r17
    2910:	cf 93       	push	r28
    2912:	df 93       	push	r29
    2914:	8c 01       	movw	r16, r24
    2916:	eb 01       	movw	r28, r22
    2918:	8b 81       	ldd	r24, Y+3	; 0x03
    291a:	81 ff       	sbrs	r24, 1
    291c:	1b c0       	rjmp	.+54     	; 0x2954 <fputc+0x48>
    291e:	82 ff       	sbrs	r24, 2
    2920:	0d c0       	rjmp	.+26     	; 0x293c <fputc+0x30>
    2922:	2e 81       	ldd	r18, Y+6	; 0x06
    2924:	3f 81       	ldd	r19, Y+7	; 0x07
    2926:	8c 81       	ldd	r24, Y+4	; 0x04
    2928:	9d 81       	ldd	r25, Y+5	; 0x05
    292a:	28 17       	cp	r18, r24
    292c:	39 07       	cpc	r19, r25
    292e:	64 f4       	brge	.+24     	; 0x2948 <fputc+0x3c>
    2930:	e8 81       	ld	r30, Y
    2932:	f9 81       	ldd	r31, Y+1	; 0x01
    2934:	01 93       	st	Z+, r16
    2936:	f9 83       	std	Y+1, r31	; 0x01
    2938:	e8 83       	st	Y, r30
    293a:	06 c0       	rjmp	.+12     	; 0x2948 <fputc+0x3c>
    293c:	e8 85       	ldd	r30, Y+8	; 0x08
    293e:	f9 85       	ldd	r31, Y+9	; 0x09
    2940:	80 2f       	mov	r24, r16
    2942:	09 95       	icall
    2944:	89 2b       	or	r24, r25
    2946:	31 f4       	brne	.+12     	; 0x2954 <fputc+0x48>
    2948:	8e 81       	ldd	r24, Y+6	; 0x06
    294a:	9f 81       	ldd	r25, Y+7	; 0x07
    294c:	01 96       	adiw	r24, 0x01	; 1
    294e:	9f 83       	std	Y+7, r25	; 0x07
    2950:	8e 83       	std	Y+6, r24	; 0x06
    2952:	02 c0       	rjmp	.+4      	; 0x2958 <fputc+0x4c>
    2954:	0f ef       	ldi	r16, 0xFF	; 255
    2956:	1f ef       	ldi	r17, 0xFF	; 255
    2958:	c8 01       	movw	r24, r16
    295a:	df 91       	pop	r29
    295c:	cf 91       	pop	r28
    295e:	1f 91       	pop	r17
    2960:	0f 91       	pop	r16
    2962:	08 95       	ret

00002964 <__ultoa_invert>:
    2964:	fa 01       	movw	r30, r20
    2966:	aa 27       	eor	r26, r26
    2968:	28 30       	cpi	r18, 0x08	; 8
    296a:	51 f1       	breq	.+84     	; 0x29c0 <__ultoa_invert+0x5c>
    296c:	20 31       	cpi	r18, 0x10	; 16
    296e:	81 f1       	breq	.+96     	; 0x29d0 <__ultoa_invert+0x6c>
    2970:	e8 94       	clt
    2972:	6f 93       	push	r22
    2974:	6e 7f       	andi	r22, 0xFE	; 254
    2976:	6e 5f       	subi	r22, 0xFE	; 254
    2978:	7f 4f       	sbci	r23, 0xFF	; 255
    297a:	8f 4f       	sbci	r24, 0xFF	; 255
    297c:	9f 4f       	sbci	r25, 0xFF	; 255
    297e:	af 4f       	sbci	r26, 0xFF	; 255
    2980:	b1 e0       	ldi	r27, 0x01	; 1
    2982:	3e d0       	rcall	.+124    	; 0x2a00 <__ultoa_invert+0x9c>
    2984:	b4 e0       	ldi	r27, 0x04	; 4
    2986:	3c d0       	rcall	.+120    	; 0x2a00 <__ultoa_invert+0x9c>
    2988:	67 0f       	add	r22, r23
    298a:	78 1f       	adc	r23, r24
    298c:	89 1f       	adc	r24, r25
    298e:	9a 1f       	adc	r25, r26
    2990:	a1 1d       	adc	r26, r1
    2992:	68 0f       	add	r22, r24
    2994:	79 1f       	adc	r23, r25
    2996:	8a 1f       	adc	r24, r26
    2998:	91 1d       	adc	r25, r1
    299a:	a1 1d       	adc	r26, r1
    299c:	6a 0f       	add	r22, r26
    299e:	71 1d       	adc	r23, r1
    29a0:	81 1d       	adc	r24, r1
    29a2:	91 1d       	adc	r25, r1
    29a4:	a1 1d       	adc	r26, r1
    29a6:	20 d0       	rcall	.+64     	; 0x29e8 <__ultoa_invert+0x84>
    29a8:	09 f4       	brne	.+2      	; 0x29ac <__ultoa_invert+0x48>
    29aa:	68 94       	set
    29ac:	3f 91       	pop	r19
    29ae:	2a e0       	ldi	r18, 0x0A	; 10
    29b0:	26 9f       	mul	r18, r22
    29b2:	11 24       	eor	r1, r1
    29b4:	30 19       	sub	r19, r0
    29b6:	30 5d       	subi	r19, 0xD0	; 208
    29b8:	31 93       	st	Z+, r19
    29ba:	de f6       	brtc	.-74     	; 0x2972 <__ultoa_invert+0xe>
    29bc:	cf 01       	movw	r24, r30
    29be:	08 95       	ret
    29c0:	46 2f       	mov	r20, r22
    29c2:	47 70       	andi	r20, 0x07	; 7
    29c4:	40 5d       	subi	r20, 0xD0	; 208
    29c6:	41 93       	st	Z+, r20
    29c8:	b3 e0       	ldi	r27, 0x03	; 3
    29ca:	0f d0       	rcall	.+30     	; 0x29ea <__ultoa_invert+0x86>
    29cc:	c9 f7       	brne	.-14     	; 0x29c0 <__ultoa_invert+0x5c>
    29ce:	f6 cf       	rjmp	.-20     	; 0x29bc <__ultoa_invert+0x58>
    29d0:	46 2f       	mov	r20, r22
    29d2:	4f 70       	andi	r20, 0x0F	; 15
    29d4:	40 5d       	subi	r20, 0xD0	; 208
    29d6:	4a 33       	cpi	r20, 0x3A	; 58
    29d8:	18 f0       	brcs	.+6      	; 0x29e0 <__ultoa_invert+0x7c>
    29da:	49 5d       	subi	r20, 0xD9	; 217
    29dc:	31 fd       	sbrc	r19, 1
    29de:	40 52       	subi	r20, 0x20	; 32
    29e0:	41 93       	st	Z+, r20
    29e2:	02 d0       	rcall	.+4      	; 0x29e8 <__ultoa_invert+0x84>
    29e4:	a9 f7       	brne	.-22     	; 0x29d0 <__ultoa_invert+0x6c>
    29e6:	ea cf       	rjmp	.-44     	; 0x29bc <__ultoa_invert+0x58>
    29e8:	b4 e0       	ldi	r27, 0x04	; 4
    29ea:	a6 95       	lsr	r26
    29ec:	97 95       	ror	r25
    29ee:	87 95       	ror	r24
    29f0:	77 95       	ror	r23
    29f2:	67 95       	ror	r22
    29f4:	ba 95       	dec	r27
    29f6:	c9 f7       	brne	.-14     	; 0x29ea <__ultoa_invert+0x86>
    29f8:	00 97       	sbiw	r24, 0x00	; 0
    29fa:	61 05       	cpc	r22, r1
    29fc:	71 05       	cpc	r23, r1
    29fe:	08 95       	ret
    2a00:	9b 01       	movw	r18, r22
    2a02:	ac 01       	movw	r20, r24
    2a04:	0a 2e       	mov	r0, r26
    2a06:	06 94       	lsr	r0
    2a08:	57 95       	ror	r21
    2a0a:	47 95       	ror	r20
    2a0c:	37 95       	ror	r19
    2a0e:	27 95       	ror	r18
    2a10:	ba 95       	dec	r27
    2a12:	c9 f7       	brne	.-14     	; 0x2a06 <__ultoa_invert+0xa2>
    2a14:	62 0f       	add	r22, r18
    2a16:	73 1f       	adc	r23, r19
    2a18:	84 1f       	adc	r24, r20
    2a1a:	95 1f       	adc	r25, r21
    2a1c:	a0 1d       	adc	r26, r0
    2a1e:	08 95       	ret

00002a20 <__mulsi3>:
    2a20:	62 9f       	mul	r22, r18
    2a22:	d0 01       	movw	r26, r0
    2a24:	73 9f       	mul	r23, r19
    2a26:	f0 01       	movw	r30, r0
    2a28:	82 9f       	mul	r24, r18
    2a2a:	e0 0d       	add	r30, r0
    2a2c:	f1 1d       	adc	r31, r1
    2a2e:	64 9f       	mul	r22, r20
    2a30:	e0 0d       	add	r30, r0
    2a32:	f1 1d       	adc	r31, r1
    2a34:	92 9f       	mul	r25, r18
    2a36:	f0 0d       	add	r31, r0
    2a38:	83 9f       	mul	r24, r19
    2a3a:	f0 0d       	add	r31, r0
    2a3c:	74 9f       	mul	r23, r20
    2a3e:	f0 0d       	add	r31, r0
    2a40:	65 9f       	mul	r22, r21
    2a42:	f0 0d       	add	r31, r0
    2a44:	99 27       	eor	r25, r25
    2a46:	72 9f       	mul	r23, r18
    2a48:	b0 0d       	add	r27, r0
    2a4a:	e1 1d       	adc	r30, r1
    2a4c:	f9 1f       	adc	r31, r25
    2a4e:	63 9f       	mul	r22, r19
    2a50:	b0 0d       	add	r27, r0
    2a52:	e1 1d       	adc	r30, r1
    2a54:	f9 1f       	adc	r31, r25
    2a56:	bd 01       	movw	r22, r26
    2a58:	cf 01       	movw	r24, r30
    2a5a:	11 24       	eor	r1, r1
    2a5c:	08 95       	ret

00002a5e <__divmodsi4>:
    2a5e:	97 fb       	bst	r25, 7
    2a60:	09 2e       	mov	r0, r25
    2a62:	05 26       	eor	r0, r21
    2a64:	0e d0       	rcall	.+28     	; 0x2a82 <__divmodsi4_neg1>
    2a66:	57 fd       	sbrc	r21, 7
    2a68:	04 d0       	rcall	.+8      	; 0x2a72 <__divmodsi4_neg2>
    2a6a:	14 d0       	rcall	.+40     	; 0x2a94 <__udivmodsi4>
    2a6c:	0a d0       	rcall	.+20     	; 0x2a82 <__divmodsi4_neg1>
    2a6e:	00 1c       	adc	r0, r0
    2a70:	38 f4       	brcc	.+14     	; 0x2a80 <__divmodsi4_exit>

00002a72 <__divmodsi4_neg2>:
    2a72:	50 95       	com	r21
    2a74:	40 95       	com	r20
    2a76:	30 95       	com	r19
    2a78:	21 95       	neg	r18
    2a7a:	3f 4f       	sbci	r19, 0xFF	; 255
    2a7c:	4f 4f       	sbci	r20, 0xFF	; 255
    2a7e:	5f 4f       	sbci	r21, 0xFF	; 255

00002a80 <__divmodsi4_exit>:
    2a80:	08 95       	ret

00002a82 <__divmodsi4_neg1>:
    2a82:	f6 f7       	brtc	.-4      	; 0x2a80 <__divmodsi4_exit>
    2a84:	90 95       	com	r25
    2a86:	80 95       	com	r24
    2a88:	70 95       	com	r23
    2a8a:	61 95       	neg	r22
    2a8c:	7f 4f       	sbci	r23, 0xFF	; 255
    2a8e:	8f 4f       	sbci	r24, 0xFF	; 255
    2a90:	9f 4f       	sbci	r25, 0xFF	; 255
    2a92:	08 95       	ret

00002a94 <__udivmodsi4>:
    2a94:	a1 e2       	ldi	r26, 0x21	; 33
    2a96:	1a 2e       	mov	r1, r26
    2a98:	aa 1b       	sub	r26, r26
    2a9a:	bb 1b       	sub	r27, r27
    2a9c:	fd 01       	movw	r30, r26
    2a9e:	0d c0       	rjmp	.+26     	; 0x2aba <__udivmodsi4_ep>

00002aa0 <__udivmodsi4_loop>:
    2aa0:	aa 1f       	adc	r26, r26
    2aa2:	bb 1f       	adc	r27, r27
    2aa4:	ee 1f       	adc	r30, r30
    2aa6:	ff 1f       	adc	r31, r31
    2aa8:	a2 17       	cp	r26, r18
    2aaa:	b3 07       	cpc	r27, r19
    2aac:	e4 07       	cpc	r30, r20
    2aae:	f5 07       	cpc	r31, r21
    2ab0:	20 f0       	brcs	.+8      	; 0x2aba <__udivmodsi4_ep>
    2ab2:	a2 1b       	sub	r26, r18
    2ab4:	b3 0b       	sbc	r27, r19
    2ab6:	e4 0b       	sbc	r30, r20
    2ab8:	f5 0b       	sbc	r31, r21

00002aba <__udivmodsi4_ep>:
    2aba:	66 1f       	adc	r22, r22
    2abc:	77 1f       	adc	r23, r23
    2abe:	88 1f       	adc	r24, r24
    2ac0:	99 1f       	adc	r25, r25
    2ac2:	1a 94       	dec	r1
    2ac4:	69 f7       	brne	.-38     	; 0x2aa0 <__udivmodsi4_loop>
    2ac6:	60 95       	com	r22
    2ac8:	70 95       	com	r23
    2aca:	80 95       	com	r24
    2acc:	90 95       	com	r25
    2ace:	9b 01       	movw	r18, r22
    2ad0:	ac 01       	movw	r20, r24
    2ad2:	bd 01       	movw	r22, r26
    2ad4:	cf 01       	movw	r24, r30
    2ad6:	08 95       	ret

00002ad8 <_exit>:
    2ad8:	f8 94       	cli

00002ada <__stop_program>:
    2ada:	ff cf       	rjmp	.-2      	; 0x2ada <__stop_program>
