
ec.exe:     file format elf32-avr

Sections:
Idx Name          Size      VMA       LMA       File off  Algn
  0 .data         00000122  00800100  00002adc  00002b70  2**0
                  CONTENTS, ALLOC, LOAD, DATA
  1 .text         00002adc  00000000  00000000  00000094  2**1
                  CONTENTS, ALLOC, LOAD, READONLY, CODE
  2 .bss          00001100  00800222  00800222  00002c92  2**0
                  ALLOC
  3 .stab         00002bb0  00000000  00000000  00002c94  2**2
                  CONTENTS, READONLY, DEBUGGING
  4 .stabstr      0000100d  00000000  00000000  00005844  2**0
                  CONTENTS, READONLY, DEBUGGING

Disassembly of section .data:

00800100 <__data_start>:
  800100:	70 61       	ori	r23, 0x10	; 16
  800102:	72 65       	ori	r23, 0x52	; 82
  800104:	6e 74       	andi	r22, 0x4E	; 78
  800106:	00 72       	andi	r16, 0x20	; 32
  800108:	65 63       	ori	r22, 0x35	; 53
  80010a:	65 69       	ori	r22, 0x95	; 149
  80010c:	76 65       	ori	r23, 0x56	; 86
  80010e:	5f 6c       	ori	r21, 0xCF	; 207
  800110:	6f 67       	ori	r22, 0x7F	; 127
  800112:	00 73       	andi	r16, 0x30	; 48
  800114:	65 6e       	ori	r22, 0xE5	; 229
  800116:	73 6f       	ori	r23, 0xF3	; 243
  800118:	72 5f       	subi	r23, 0xF2	; 242
  80011a:	6c 6f       	ori	r22, 0xFC	; 252
  80011c:	67 00       	.word	0x0067	; ????
  80011e:	63 68       	ori	r22, 0x83	; 131
  800120:	69 6c       	ori	r22, 0xC9	; 201
  800122:	64 00       	.word	0x0064	; ????
  800124:	73 65       	ori	r23, 0x53	; 83
  800126:	6e 73       	andi	r22, 0x3E	; 62
  800128:	6f 72       	andi	r22, 0x2F	; 47
  80012a:	00 ff       	sbrs	r16, 0

0080012b <ctid>:
  80012b:	ff ff       	.word	0xffff	; ????
  80012d:	73 65       	ori	r23, 0x53	; 83
  80012f:	6e 73       	andi	r22, 0x3E	; 62
  800131:	6f 72       	andi	r22, 0x2F	; 47
  800133:	5f 72       	andi	r21, 0x2F	; 47
  800135:	65 61       	ori	r22, 0x15	; 21
  800137:	64 00       	.word	0x0064	; ????
  800139:	25 64       	ori	r18, 0x45	; 69
  80013b:	2c 20       	and	r2, r12
  80013d:	25 75       	andi	r18, 0x55	; 85
  80013f:	00 73       	andi	r16, 0x30	; 48
  800141:	6c 65       	ori	r22, 0x5C	; 92
  800143:	65 70       	andi	r22, 0x05	; 5
  800145:	00 25       	eor	r16, r0
  800147:	75 00       	.word	0x0075	; ????
  800149:	66 6c       	ori	r22, 0xC6	; 198
  80014b:	61 73       	andi	r22, 0x31	; 49
  80014d:	68 5f       	subi	r22, 0xF8	; 248
  80014f:	77 72       	andi	r23, 0x27	; 39
  800151:	69 74       	andi	r22, 0x49	; 73
  800153:	65 00       	.word	0x0065	; ????
  800155:	25 64       	ori	r18, 0x45	; 69
  800157:	2c 20       	and	r2, r12
  800159:	25 73       	andi	r18, 0x35	; 53
  80015b:	00 66       	ori	r16, 0x60	; 96
  80015d:	6c 61       	ori	r22, 0x1C	; 28
  80015f:	73 68       	ori	r23, 0x83	; 131
  800161:	5f 72       	andi	r21, 0x2F	; 47
  800163:	65 61       	ori	r22, 0x15	; 21
  800165:	64 00       	.word	0x0064	; ????
  800167:	25 64       	ori	r18, 0x45	; 69
  800169:	2c 20       	and	r2, r12
  80016b:	25 6c       	ori	r18, 0xC5	; 197
  80016d:	75 2c       	mov	r7, r5
  80016f:	20 25       	eor	r18, r0
  800171:	73 00       	.word	0x0073	; ????
  800173:	73 65       	ori	r23, 0x53	; 83
  800175:	6e 64       	ori	r22, 0x4E	; 78
  800177:	00 72       	andi	r16, 0x20	; 32
  800179:	65 63       	ori	r22, 0x35	; 53
  80017b:	65 69       	ori	r22, 0x95	; 149
  80017d:	76 65       	ori	r23, 0x56	; 86
  80017f:	00 3c       	cpi	r16, 0xC0	; 192
  800181:	25 6c       	ori	r18, 0xC5	; 197
  800183:	75 3e       	cpi	r23, 0xE5	; 229
  800185:	20 30       	cpi	r18, 0x00	; 0
  800187:	78 00       	.word	0x0078	; ????
  800189:	25 78       	andi	r18, 0x85	; 133
  80018b:	00 25       	eor	r16, r0
  80018d:	75 2c       	mov	r7, r5
  80018f:	20 25       	eor	r18, r0
  800191:	64 2c       	mov	r6, r4
  800193:	20 3c       	cpi	r18, 0xC0	; 192
  800195:	2d 0a       	sbc	r2, r29
  800197:	00 25       	eor	r16, r0
  800199:	75 2c       	mov	r7, r5
  80019b:	20 25       	eor	r18, r0
  80019d:	64 2c       	mov	r6, r4
  80019f:	20 2d       	mov	r18, r0
  8001a1:	3e 2c       	mov	r3, r14
  8001a3:	20 25       	eor	r18, r0
  8001a5:	73 2c       	mov	r7, r3
  8001a7:	20 25       	eor	r18, r0
  8001a9:	73 0a       	sbc	r7, r19
  8001ab:	00 25       	eor	r16, r0
  8001ad:	73 3a       	cpi	r23, 0xA3	; 163
  8001af:	20 25       	eor	r18, r0
  8001b1:	73 0a       	sbc	r7, r19
  8001b3:	00 3f       	cpi	r16, 0xF0	; 240
  8001b5:	3f 3f       	cpi	r19, 0xFF	; 255
  8001b7:	00 77       	andi	r16, 0x70	; 112
  8001b9:	61 72       	andi	r22, 0x21	; 33
  8001bb:	6e 69       	ori	r22, 0x9E	; 158
  8001bd:	6e 67       	ori	r22, 0x7E	; 126
  8001bf:	00 69       	ori	r16, 0x90	; 144
  8001c1:	6e 66       	ori	r22, 0x6E	; 110
  8001c3:	6f 00       	.word	0x006f	; ????
  8001c5:	65 72       	andi	r22, 0x25	; 37
  8001c7:	72 6f       	ori	r23, 0xF2	; 242
  8001c9:	72 00       	.word	0x0072	; ????
  8001cb:	00 72       	andi	r16, 0x20	; 32
  8001cd:	75 6e       	ori	r23, 0xE5	; 229
  8001cf:	6e 69       	ori	r22, 0x9E	; 158
  8001d1:	6e 67       	ori	r22, 0x7E	; 126
  8001d3:	20 64       	ori	r18, 0x40	; 64
  8001d5:	69 73       	andi	r22, 0x39	; 57
  8001d7:	70 61       	ori	r23, 0x10	; 16
  8001d9:	74 63       	ori	r23, 0x34	; 52
  8001db:	68 65       	ori	r22, 0x58	; 88
  8001dd:	72 00       	.word	0x0072	; ????
  8001df:	6d 61       	ori	r22, 0x1D	; 29
  8001e1:	78 69       	ori	r23, 0x98	; 152
  8001e3:	6d 75       	andi	r22, 0x5D	; 93
  8001e5:	6d 20       	and	r6, r13
  8001e7:	73 69       	ori	r23, 0x93	; 147
  8001e9:	6d 75       	andi	r22, 0x5D	; 93
  8001eb:	6c 61       	ori	r22, 0x1C	; 28
  8001ed:	74 69       	ori	r23, 0x94	; 148
  8001ef:	6f 6e       	ori	r22, 0xEF	; 239
  8001f1:	20 74       	andi	r18, 0x40	; 64
  8001f3:	69 6d       	ori	r22, 0xD9	; 217
  8001f5:	65 20       	and	r6, r5
  8001f7:	72 65       	ori	r23, 0x52	; 82
  8001f9:	61 63       	ori	r22, 0x31	; 49
  8001fb:	68 65       	ori	r22, 0x58	; 88
  8001fd:	64 2e       	mov	r6, r20
  8001ff:	20 51       	subi	r18, 0x10	; 16
  800201:	75 69       	ori	r23, 0x95	; 149
  800203:	74 74       	andi	r23, 0x44	; 68
  800205:	69 6e       	ori	r22, 0xE9	; 233
  800207:	67 2e       	mov	r6, r23
  800209:	00 75       	andi	r16, 0x50	; 80
  80020b:	73 69       	ori	r23, 0x93	; 147
  80020d:	6e 67       	ori	r22, 0x7E	; 126
  80020f:	20 73       	andi	r18, 0x30	; 48
  800211:	65 65       	ori	r22, 0x55	; 85
  800213:	64 20       	and	r6, r4
  800215:	25 64       	ori	r18, 0x45	; 69
  800217:	00 20       	and	r0, r0

00800218 <__malloc_margin>:
  800218:	20 00       	.word	0x0020	; ????

0080021a <__malloc_heap_start>:
  80021a:	22 13       	cpse	r18, r18

0080021c <__malloc_heap_end>:
  80021c:	00 00       	nop

0080021e <next>:
  80021e:	01 00       	.word	0x0001	; ????
  800220:	00 00       	nop

Disassembly of section .text:

00000000 <__vectors>:
       0:	0c 94 46 00 	jmp	0x8c	; 0x8c <__ctors_end>
       4:	0c 94 65 00 	jmp	0xca	; 0xca <__bad_interrupt>
       8:	0c 94 65 00 	jmp	0xca	; 0xca <__bad_interrupt>
       c:	0c 94 65 00 	jmp	0xca	; 0xca <__bad_interrupt>
      10:	0c 94 65 00 	jmp	0xca	; 0xca <__bad_interrupt>
      14:	0c 94 65 00 	jmp	0xca	; 0xca <__bad_interrupt>
      18:	0c 94 65 00 	jmp	0xca	; 0xca <__bad_interrupt>
      1c:	0c 94 65 00 	jmp	0xca	; 0xca <__bad_interrupt>
      20:	0c 94 65 00 	jmp	0xca	; 0xca <__bad_interrupt>
      24:	0c 94 65 00 	jmp	0xca	; 0xca <__bad_interrupt>
      28:	0c 94 65 00 	jmp	0xca	; 0xca <__bad_interrupt>
      2c:	0c 94 65 00 	jmp	0xca	; 0xca <__bad_interrupt>
      30:	0c 94 65 00 	jmp	0xca	; 0xca <__bad_interrupt>
      34:	0c 94 65 00 	jmp	0xca	; 0xca <__bad_interrupt>
      38:	0c 94 65 00 	jmp	0xca	; 0xca <__bad_interrupt>
      3c:	0c 94 65 00 	jmp	0xca	; 0xca <__bad_interrupt>
      40:	0c 94 65 00 	jmp	0xca	; 0xca <__bad_interrupt>
      44:	0c 94 65 00 	jmp	0xca	; 0xca <__bad_interrupt>
      48:	0c 94 65 00 	jmp	0xca	; 0xca <__bad_interrupt>
      4c:	0c 94 65 00 	jmp	0xca	; 0xca <__bad_interrupt>
      50:	0c 94 65 00 	jmp	0xca	; 0xca <__bad_interrupt>
      54:	0c 94 65 00 	jmp	0xca	; 0xca <__bad_interrupt>
      58:	0c 94 65 00 	jmp	0xca	; 0xca <__bad_interrupt>
      5c:	0c 94 65 00 	jmp	0xca	; 0xca <__bad_interrupt>
      60:	0c 94 65 00 	jmp	0xca	; 0xca <__bad_interrupt>
      64:	0c 94 65 00 	jmp	0xca	; 0xca <__bad_interrupt>
      68:	0c 94 65 00 	jmp	0xca	; 0xca <__bad_interrupt>
      6c:	0c 94 65 00 	jmp	0xca	; 0xca <__bad_interrupt>
      70:	0c 94 65 00 	jmp	0xca	; 0xca <__bad_interrupt>
      74:	0c 94 65 00 	jmp	0xca	; 0xca <__bad_interrupt>
      78:	0c 94 65 00 	jmp	0xca	; 0xca <__bad_interrupt>
      7c:	0c 94 65 00 	jmp	0xca	; 0xca <__bad_interrupt>
      80:	0c 94 65 00 	jmp	0xca	; 0xca <__bad_interrupt>
      84:	0c 94 65 00 	jmp	0xca	; 0xca <__bad_interrupt>
      88:	0c 94 65 00 	jmp	0xca	; 0xca <__bad_interrupt>

0000008c <__ctors_end>:
      8c:	11 24       	eor	r1, r1
      8e:	1f be       	out	0x3f, r1	; 63
      90:	cf ef       	ldi	r28, 0xFF	; 255
      92:	d0 e1       	ldi	r29, 0x10	; 16
      94:	de bf       	out	0x3e, r29	; 62
      96:	cd bf       	out	0x3d, r28	; 61

00000098 <__do_copy_data>:
      98:	12 e0       	ldi	r17, 0x02	; 2
      9a:	a0 e0       	ldi	r26, 0x00	; 0
      9c:	b1 e0       	ldi	r27, 0x01	; 1
      9e:	ec ed       	ldi	r30, 0xDC	; 220
      a0:	fa e2       	ldi	r31, 0x2A	; 42
      a2:	00 e0       	ldi	r16, 0x00	; 0
      a4:	0b bf       	out	0x3b, r16	; 59
      a6:	02 c0       	rjmp	.+4      	; 0xac <__do_copy_data+0x14>
      a8:	07 90       	elpm	r0, Z+
      aa:	0d 92       	st	X+, r0
      ac:	a2 32       	cpi	r26, 0x22	; 34
      ae:	b1 07       	cpc	r27, r17
      b0:	d9 f7       	brne	.-10     	; 0xa8 <__do_copy_data+0x10>

000000b2 <__do_clear_bss>:
      b2:	13 e1       	ldi	r17, 0x13	; 19
      b4:	a2 e2       	ldi	r26, 0x22	; 34
      b6:	b2 e0       	ldi	r27, 0x02	; 2
      b8:	01 c0       	rjmp	.+2      	; 0xbc <.do_clear_bss_start>

000000ba <.do_clear_bss_loop>:
      ba:	1d 92       	st	X+, r1

000000bc <.do_clear_bss_start>:
      bc:	a2 32       	cpi	r26, 0x22	; 34
      be:	b1 07       	cpc	r27, r17
      c0:	e1 f7       	brne	.-8      	; 0xba <.do_clear_bss_loop>
      c2:	0e 94 03 04 	call	0x806	; 0x806 <main>
      c6:	0c 94 6c 15 	jmp	0x2ad8	; 0x2ad8 <_exit>

000000ca <__bad_interrupt>:
      ca:	0c 94 00 00 	jmp	0	; 0x0 <__vectors>

000000ce <ec_thread_3>:
      ce:	ef 92       	push	r14
      d0:	ff 92       	push	r15
      d2:	0f 93       	push	r16
      d4:	1f 93       	push	r17
      d6:	fc 01       	movw	r30, r24
      d8:	00 97       	sbiw	r24, 0x00	; 0
      da:	09 f0       	breq	.+2      	; 0xde <ec_thread_3+0x10>
      dc:	09 94       	ijmp
      de:	80 e0       	ldi	r24, 0x00	; 0
      e0:	91 e0       	ldi	r25, 0x01	; 1
      e2:	90 93 47 0a 	sts	0x0A47, r25
      e6:	80 93 46 0a 	sts	0x0A46, r24
      ea:	87 e0       	ldi	r24, 0x07	; 7
      ec:	91 e0       	ldi	r25, 0x01	; 1
      ee:	90 93 4b 0a 	sts	0x0A4B, r25
      f2:	80 93 4a 0a 	sts	0x0A4A, r24
      f6:	23 e1       	ldi	r18, 0x13	; 19
      f8:	31 e0       	ldi	r19, 0x01	; 1
      fa:	30 93 4d 0a 	sts	0x0A4D, r19
      fe:	20 93 4c 0a 	sts	0x0A4C, r18
     102:	24 e6       	ldi	r18, 0x64	; 100
     104:	30 e0       	ldi	r19, 0x00	; 0
     106:	30 93 49 0a 	sts	0x0A49, r19
     10a:	20 93 48 0a 	sts	0x0A48, r18
     10e:	22 e5       	ldi	r18, 0x52	; 82
     110:	31 e0       	ldi	r19, 0x01	; 1
     112:	30 93 27 06 	sts	0x0627, r19
     116:	20 93 26 06 	sts	0x0626, r18
     11a:	61 e0       	ldi	r22, 0x01	; 1
     11c:	70 e0       	ldi	r23, 0x00	; 0
     11e:	0e 94 b3 09 	call	0x1366	; 0x1366 <os_flash_open>
     122:	90 93 4f 0a 	sts	0x0A4F, r25
     126:	80 93 4e 0a 	sts	0x0A4E, r24
     12a:	80 91 4c 0a 	lds	r24, 0x0A4C
     12e:	90 91 4d 0a 	lds	r25, 0x0A4D
     132:	61 e0       	ldi	r22, 0x01	; 1
     134:	70 e0       	ldi	r23, 0x00	; 0
     136:	0e 94 b3 09 	call	0x1366	; 0x1366 <os_flash_open>
     13a:	90 93 51 0a 	sts	0x0A51, r25
     13e:	80 93 50 0a 	sts	0x0A50, r24
     142:	80 91 46 0a 	lds	r24, 0x0A46
     146:	90 91 47 0a 	lds	r25, 0x0A47
     14a:	0e 94 1c 06 	call	0xc38	; 0xc38 <os_connect>
     14e:	90 93 5f 0a 	sts	0x0A5F, r25
     152:	80 93 5e 0a 	sts	0x0A5E, r24
     156:	0e 94 06 0a 	call	0x140c	; 0x140c <os_now>
     15a:	60 93 5a 0a 	sts	0x0A5A, r22
     15e:	70 93 5b 0a 	sts	0x0A5B, r23
     162:	80 93 5c 0a 	sts	0x0A5C, r24
     166:	90 93 5d 0a 	sts	0x0A5D, r25
     16a:	80 91 48 0a 	lds	r24, 0x0A48
     16e:	90 91 49 0a 	lds	r25, 0x0A49
     172:	a0 e0       	ldi	r26, 0x00	; 0
     174:	b0 e0       	ldi	r27, 0x00	; 0
     176:	20 91 5a 0a 	lds	r18, 0x0A5A
     17a:	30 91 5b 0a 	lds	r19, 0x0A5B
     17e:	40 91 5c 0a 	lds	r20, 0x0A5C
     182:	50 91 5d 0a 	lds	r21, 0x0A5D
     186:	82 0f       	add	r24, r18
     188:	93 1f       	adc	r25, r19
     18a:	a4 1f       	adc	r26, r20
     18c:	b5 1f       	adc	r27, r21
     18e:	80 93 2c 06 	sts	0x062C, r24
     192:	90 93 2d 06 	sts	0x062D, r25
     196:	a0 93 2e 06 	sts	0x062E, r26
     19a:	b0 93 2f 06 	sts	0x062F, r27
     19e:	8e ed       	ldi	r24, 0xDE	; 222
     1a0:	90 e0       	ldi	r25, 0x00	; 0
     1a2:	90 93 29 06 	sts	0x0629, r25
     1a6:	80 93 28 06 	sts	0x0628, r24
     1aa:	88 e2       	ldi	r24, 0x28	; 40
     1ac:	96 e0       	ldi	r25, 0x06	; 6
     1ae:	0e 94 e7 05 	call	0xbce	; 0xbce <tc_sleep>
     1b2:	1f 91       	pop	r17
     1b4:	0f 91       	pop	r16
     1b6:	ff 90       	pop	r15
     1b8:	ef 90       	pop	r14
     1ba:	08 95       	ret
     1bc:	80 91 48 0a 	lds	r24, 0x0A48
     1c0:	90 91 49 0a 	lds	r25, 0x0A49
     1c4:	a0 e0       	ldi	r26, 0x00	; 0
     1c6:	b0 e0       	ldi	r27, 0x00	; 0
     1c8:	20 91 5a 0a 	lds	r18, 0x0A5A
     1cc:	30 91 5b 0a 	lds	r19, 0x0A5B
     1d0:	40 91 5c 0a 	lds	r20, 0x0A5C
     1d4:	50 91 5d 0a 	lds	r21, 0x0A5D
     1d8:	82 0f       	add	r24, r18
     1da:	93 1f       	adc	r25, r19
     1dc:	a4 1f       	adc	r26, r20
     1de:	b5 1f       	adc	r27, r21
     1e0:	80 93 5a 0a 	sts	0x0A5A, r24
     1e4:	90 93 5b 0a 	sts	0x0A5B, r25
     1e8:	a0 93 5c 0a 	sts	0x0A5C, r26
     1ec:	b0 93 5d 0a 	sts	0x0A5D, r27
     1f0:	26 e5       	ldi	r18, 0x56	; 86
     1f2:	3a e0       	ldi	r19, 0x0A	; 10
     1f4:	8f ef       	ldi	r24, 0xFF	; 255
     1f6:	9f ef       	ldi	r25, 0xFF	; 255
     1f8:	af ef       	ldi	r26, 0xFF	; 255
     1fa:	bf e7       	ldi	r27, 0x7F	; 127
     1fc:	80 93 56 0a 	sts	0x0A56, r24
     200:	90 93 57 0a 	sts	0x0A57, r25
     204:	a0 93 58 0a 	sts	0x0A58, r26
     208:	b0 93 59 0a 	sts	0x0A59, r27
     20c:	8f ef       	ldi	r24, 0xFF	; 255
     20e:	9f ef       	ldi	r25, 0xFF	; 255
     210:	af ef       	ldi	r26, 0xFF	; 255
     212:	bf ef       	ldi	r27, 0xFF	; 255
     214:	80 93 52 0a 	sts	0x0A52, r24
     218:	90 93 53 0a 	sts	0x0A53, r25
     21c:	a0 93 54 0a 	sts	0x0A54, r26
     220:	b0 93 55 0a 	sts	0x0A55, r27
     224:	80 91 4e 0a 	lds	r24, 0x0A4E
     228:	90 91 4f 0a 	lds	r25, 0x0A4F
     22c:	90 93 3b 0a 	sts	0x0A3B, r25
     230:	80 93 3a 0a 	sts	0x0A3A, r24
     234:	30 93 3f 0a 	sts	0x0A3F, r19
     238:	20 93 3e 0a 	sts	0x0A3E, r18
     23c:	24 50       	subi	r18, 0x04	; 4
     23e:	30 40       	sbci	r19, 0x00	; 0
     240:	30 93 3d 0a 	sts	0x0A3D, r19
     244:	20 93 3c 0a 	sts	0x0A3C, r18
     248:	85 e5       	ldi	r24, 0x55	; 85
     24a:	92 e0       	ldi	r25, 0x02	; 2
     24c:	90 93 29 06 	sts	0x0629, r25
     250:	80 93 28 06 	sts	0x0628, r24
     254:	80 91 3a 0a 	lds	r24, 0x0A3A
     258:	90 91 3b 0a 	lds	r25, 0x0A3B
     25c:	90 93 33 06 	sts	0x0633, r25
     260:	80 93 32 06 	sts	0x0632, r24
     264:	86 e3       	ldi	r24, 0x36	; 54
     266:	96 e0       	ldi	r25, 0x06	; 6
     268:	90 93 2f 06 	sts	0x062F, r25
     26c:	80 93 2e 06 	sts	0x062E, r24
     270:	20 e0       	ldi	r18, 0x00	; 0
     272:	34 e0       	ldi	r19, 0x04	; 4
     274:	30 93 31 06 	sts	0x0631, r19
     278:	20 93 30 06 	sts	0x0630, r18
     27c:	28 e3       	ldi	r18, 0x38	; 56
     27e:	3a e0       	ldi	r19, 0x0A	; 10
     280:	30 93 35 06 	sts	0x0635, r19
     284:	20 93 34 06 	sts	0x0634, r18
     288:	24 e6       	ldi	r18, 0x64	; 100
     28a:	31 e0       	ldi	r19, 0x01	; 1
     28c:	30 93 2b 06 	sts	0x062B, r19
     290:	20 93 2a 06 	sts	0x062A, r18
     294:	0c 97       	sbiw	r24, 0x0c	; 12
     296:	0e 94 8a 05 	call	0xb14	; 0xb14 <tc_flash_read>
     29a:	1f 91       	pop	r17
     29c:	0f 91       	pop	r16
     29e:	ff 90       	pop	r15
     2a0:	ef 90       	pop	r14
     2a2:	08 95       	ret
     2a4:	0e 94 84 11 	call	0x2308	; 0x2308 <abort>
     2a8:	80 91 2c 06 	lds	r24, 0x062C
     2ac:	90 91 2d 06 	lds	r25, 0x062D
     2b0:	90 93 35 06 	sts	0x0635, r25
     2b4:	80 93 34 06 	sts	0x0634, r24
     2b8:	89 2b       	or	r24, r25
     2ba:	09 f0       	breq	.+2      	; 0x2be <ec_thread_3+0x1f0>
     2bc:	10 c1       	rjmp	.+544    	; 0x4de <ec_thread_3+0x410>
     2be:	e0 91 28 06 	lds	r30, 0x0628
     2c2:	f0 91 29 06 	lds	r31, 0x0629
     2c6:	09 94       	ijmp
     2c8:	80 91 2c 06 	lds	r24, 0x062C
     2cc:	90 91 2d 06 	lds	r25, 0x062D
     2d0:	90 93 41 0a 	sts	0x0A41, r25
     2d4:	80 93 40 0a 	sts	0x0A40, r24
     2d8:	89 2b       	or	r24, r25
     2da:	21 f7       	brne	.-56     	; 0x2a4 <ec_thread_3+0x1d6>
     2dc:	20 91 38 0a 	lds	r18, 0x0A38
     2e0:	30 91 39 0a 	lds	r19, 0x0A39
     2e4:	c9 01       	movw	r24, r18
     2e6:	83 70       	andi	r24, 0x03	; 3
     2e8:	90 70       	andi	r25, 0x00	; 0
     2ea:	89 2b       	or	r24, r25
     2ec:	d9 f6       	brne	.-74     	; 0x2a4 <ec_thread_3+0x1d6>
     2ee:	20 50       	subi	r18, 0x00	; 0
     2f0:	34 40       	sbci	r19, 0x04	; 4
     2f2:	c0 f6       	brcc	.-80     	; 0x2a4 <ec_thread_3+0x1d6>
     2f4:	80 91 3a 0a 	lds	r24, 0x0A3A
     2f8:	90 91 3b 0a 	lds	r25, 0x0A3B
     2fc:	60 e0       	ldi	r22, 0x00	; 0
     2fe:	70 e0       	ldi	r23, 0x00	; 0
     300:	0e 94 2a 06 	call	0xc54	; 0xc54 <os_flash_seek>
     304:	90 93 41 0a 	sts	0x0A41, r25
     308:	80 93 40 0a 	sts	0x0A40, r24
     30c:	89 2b       	or	r24, r25
     30e:	51 f6       	brne	.-108    	; 0x2a4 <ec_thread_3+0x1d6>
     310:	10 92 37 0a 	sts	0x0A37, r1
     314:	10 92 36 0a 	sts	0x0A36, r1
     318:	80 91 38 0a 	lds	r24, 0x0A38
     31c:	90 91 39 0a 	lds	r25, 0x0A39
     320:	96 95       	lsr	r25
     322:	87 95       	ror	r24
     324:	96 95       	lsr	r25
     326:	87 95       	ror	r24
     328:	89 2b       	or	r24, r25
     32a:	09 f4       	brne	.+2      	; 0x32e <ec_thread_3+0x260>
     32c:	58 c0       	rjmp	.+176    	; 0x3de <ec_thread_3+0x310>
     32e:	e0 e0       	ldi	r30, 0x00	; 0
     330:	f0 e0       	ldi	r31, 0x00	; 0
     332:	ee 0f       	add	r30, r30
     334:	ff 1f       	adc	r31, r31
     336:	ee 0f       	add	r30, r30
     338:	ff 1f       	adc	r31, r31
     33a:	ea 5c       	subi	r30, 0xCA	; 202
     33c:	f9 4f       	sbci	r31, 0xF9	; 249
     33e:	20 81       	ld	r18, Z
     340:	31 81       	ldd	r19, Z+1	; 0x01
     342:	42 81       	ldd	r20, Z+2	; 0x02
     344:	53 81       	ldd	r21, Z+3	; 0x03
     346:	20 93 42 0a 	sts	0x0A42, r18
     34a:	30 93 43 0a 	sts	0x0A43, r19
     34e:	40 93 44 0a 	sts	0x0A44, r20
     352:	50 93 45 0a 	sts	0x0A45, r21
     356:	c9 01       	movw	r24, r18
     358:	da 01       	movw	r26, r20
     35a:	9c 01       	movw	r18, r24
     35c:	ad 01       	movw	r20, r26
     35e:	e0 91 3e 0a 	lds	r30, 0x0A3E
     362:	f0 91 3f 0a 	lds	r31, 0x0A3F
     366:	80 81       	ld	r24, Z
     368:	91 81       	ldd	r25, Z+1	; 0x01
     36a:	a2 81       	ldd	r26, Z+2	; 0x02
     36c:	b3 81       	ldd	r27, Z+3	; 0x03
     36e:	28 17       	cp	r18, r24
     370:	39 07       	cpc	r19, r25
     372:	4a 07       	cpc	r20, r26
     374:	5b 07       	cpc	r21, r27
     376:	64 f4       	brge	.+24     	; 0x390 <ec_thread_3+0x2c2>
     378:	20 83       	st	Z, r18
     37a:	31 83       	std	Z+1, r19	; 0x01
     37c:	42 83       	std	Z+2, r20	; 0x02
     37e:	53 83       	std	Z+3, r21	; 0x03
     380:	20 91 42 0a 	lds	r18, 0x0A42
     384:	30 91 43 0a 	lds	r19, 0x0A43
     388:	40 91 44 0a 	lds	r20, 0x0A44
     38c:	50 91 45 0a 	lds	r21, 0x0A45
     390:	e0 91 3c 0a 	lds	r30, 0x0A3C
     394:	f0 91 3d 0a 	lds	r31, 0x0A3D
     398:	80 81       	ld	r24, Z
     39a:	91 81       	ldd	r25, Z+1	; 0x01
     39c:	a2 81       	ldd	r26, Z+2	; 0x02
     39e:	b3 81       	ldd	r27, Z+3	; 0x03
     3a0:	82 17       	cp	r24, r18
     3a2:	93 07       	cpc	r25, r19
     3a4:	a4 07       	cpc	r26, r20
     3a6:	b5 07       	cpc	r27, r21
     3a8:	24 f4       	brge	.+8      	; 0x3b2 <ec_thread_3+0x2e4>
     3aa:	20 83       	st	Z, r18
     3ac:	31 83       	std	Z+1, r19	; 0x01
     3ae:	42 83       	std	Z+2, r20	; 0x02
     3b0:	53 83       	std	Z+3, r21	; 0x03
     3b2:	80 91 36 0a 	lds	r24, 0x0A36
     3b6:	90 91 37 0a 	lds	r25, 0x0A37
     3ba:	01 96       	adiw	r24, 0x01	; 1
     3bc:	90 93 37 0a 	sts	0x0A37, r25
     3c0:	80 93 36 0a 	sts	0x0A36, r24
     3c4:	fc 01       	movw	r30, r24
     3c6:	80 91 38 0a 	lds	r24, 0x0A38
     3ca:	90 91 39 0a 	lds	r25, 0x0A39
     3ce:	96 95       	lsr	r25
     3d0:	87 95       	ror	r24
     3d2:	96 95       	lsr	r25
     3d4:	87 95       	ror	r24
     3d6:	e8 17       	cp	r30, r24
     3d8:	f9 07       	cpc	r31, r25
     3da:	08 f4       	brcc	.+2      	; 0x3de <ec_thread_3+0x310>
     3dc:	aa cf       	rjmp	.-172    	; 0x332 <ec_thread_3+0x264>
     3de:	e0 91 28 06 	lds	r30, 0x0628
     3e2:	f0 91 29 06 	lds	r31, 0x0629
     3e6:	09 94       	ijmp
     3e8:	80 91 5e 0a 	lds	r24, 0x0A5E
     3ec:	90 91 5f 0a 	lds	r25, 0x0A5F
     3f0:	90 93 47 06 	sts	0x0647, r25
     3f4:	80 93 46 06 	sts	0x0646, r24
     3f8:	e0 90 56 0a 	lds	r14, 0x0A56
     3fc:	f0 90 57 0a 	lds	r15, 0x0A57
     400:	00 91 58 0a 	lds	r16, 0x0A58
     404:	10 91 59 0a 	lds	r17, 0x0A59
     408:	e0 92 3a 06 	sts	0x063A, r14
     40c:	f0 92 3b 06 	sts	0x063B, r15
     410:	00 93 3c 06 	sts	0x063C, r16
     414:	10 93 3d 06 	sts	0x063D, r17
     418:	20 91 52 0a 	lds	r18, 0x0A52
     41c:	30 91 53 0a 	lds	r19, 0x0A53
     420:	40 91 54 0a 	lds	r20, 0x0A54
     424:	50 91 55 0a 	lds	r21, 0x0A55
     428:	20 93 36 06 	sts	0x0636, r18
     42c:	30 93 37 06 	sts	0x0637, r19
     430:	40 93 38 06 	sts	0x0638, r20
     434:	50 93 39 06 	sts	0x0639, r21
     438:	85 eb       	ldi	r24, 0xB5	; 181
     43a:	90 e0       	ldi	r25, 0x00	; 0
     43c:	90 93 29 06 	sts	0x0629, r25
     440:	80 93 28 06 	sts	0x0628, r24
     444:	6e e3       	ldi	r22, 0x3E	; 62
     446:	76 e0       	ldi	r23, 0x06	; 6
     448:	e0 92 3e 06 	sts	0x063E, r14
     44c:	f0 92 3f 06 	sts	0x063F, r15
     450:	00 93 40 06 	sts	0x0640, r16
     454:	10 93 41 06 	sts	0x0641, r17
     458:	20 93 42 06 	sts	0x0642, r18
     45c:	30 93 43 06 	sts	0x0643, r19
     460:	40 93 44 06 	sts	0x0644, r20
     464:	50 93 45 06 	sts	0x0645, r21
     468:	80 91 46 06 	lds	r24, 0x0646
     46c:	90 91 47 06 	lds	r25, 0x0647
     470:	90 93 31 06 	sts	0x0631, r25
     474:	80 93 30 06 	sts	0x0630, r24
     478:	70 93 2f 06 	sts	0x062F, r23
     47c:	60 93 2e 06 	sts	0x062E, r22
     480:	88 e0       	ldi	r24, 0x08	; 8
     482:	90 e0       	ldi	r25, 0x00	; 0
     484:	90 93 33 06 	sts	0x0633, r25
     488:	80 93 32 06 	sts	0x0632, r24
     48c:	84 e5       	ldi	r24, 0x54	; 84
     48e:	91 e0       	ldi	r25, 0x01	; 1
     490:	90 93 2b 06 	sts	0x062B, r25
     494:	80 93 2a 06 	sts	0x062A, r24
     498:	cb 01       	movw	r24, r22
     49a:	44 97       	sbiw	r24, 0x14	; 20
     49c:	0e 94 a9 05 	call	0xb52	; 0xb52 <tc_send>
     4a0:	1f 91       	pop	r17
     4a2:	0f 91       	pop	r16
     4a4:	ff 90       	pop	r15
     4a6:	ef 90       	pop	r14
     4a8:	08 95       	ret
     4aa:	80 91 50 0a 	lds	r24, 0x0A50
     4ae:	90 91 51 0a 	lds	r25, 0x0A51
     4b2:	90 93 3b 0a 	sts	0x0A3B, r25
     4b6:	80 93 3a 0a 	sts	0x0A3A, r24
     4ba:	86 e5       	ldi	r24, 0x56	; 86
     4bc:	9a e0       	ldi	r25, 0x0A	; 10
     4be:	90 93 3f 0a 	sts	0x0A3F, r25
     4c2:	80 93 3e 0a 	sts	0x0A3E, r24
     4c6:	04 97       	sbiw	r24, 0x04	; 4
     4c8:	90 93 3d 0a 	sts	0x0A3D, r25
     4cc:	80 93 3c 0a 	sts	0x0A3C, r24
     4d0:	84 ef       	ldi	r24, 0xF4	; 244
     4d2:	91 e0       	ldi	r25, 0x01	; 1
     4d4:	90 93 29 06 	sts	0x0629, r25
     4d8:	80 93 28 06 	sts	0x0628, r24
     4dc:	bb ce       	rjmp	.-650    	; 0x254 <ec_thread_3+0x186>
     4de:	6e e3       	ldi	r22, 0x3E	; 62
     4e0:	76 e0       	ldi	r23, 0x06	; 6
     4e2:	c2 cf       	rjmp	.-124    	; 0x468 <ec_thread_3+0x39a>

000004e4 <ec_thread_2>:
     4e4:	fc 01       	movw	r30, r24
     4e6:	00 97       	sbiw	r24, 0x00	; 0
     4e8:	09 f0       	breq	.+2      	; 0x4ec <ec_thread_2+0x8>
     4ea:	09 94       	ijmp
     4ec:	8e e1       	ldi	r24, 0x1E	; 30
     4ee:	91 e0       	ldi	r25, 0x01	; 1
     4f0:	90 93 81 0a 	sts	0x0A81, r25
     4f4:	80 93 80 0a 	sts	0x0A80, r24
     4f8:	27 e0       	ldi	r18, 0x07	; 7
     4fa:	31 e0       	ldi	r19, 0x01	; 1
     4fc:	30 93 85 0a 	sts	0x0A85, r19
     500:	20 93 84 0a 	sts	0x0A84, r18
     504:	2d eb       	ldi	r18, 0xBD	; 189
     506:	32 e0       	ldi	r19, 0x02	; 2
     508:	30 93 61 0a 	sts	0x0A61, r19
     50c:	20 93 60 0a 	sts	0x0A60, r18
     510:	0e 94 0e 06 	call	0xc1c	; 0xc1c <os_listen>
     514:	90 93 8b 0a 	sts	0x0A8B, r25
     518:	80 93 8a 0a 	sts	0x0A8A, r24
     51c:	80 91 84 0a 	lds	r24, 0x0A84
     520:	90 91 85 0a 	lds	r25, 0x0A85
     524:	62 e0       	ldi	r22, 0x02	; 2
     526:	70 e0       	ldi	r23, 0x00	; 0
     528:	0e 94 b3 09 	call	0x1366	; 0x1366 <os_flash_open>
     52c:	90 93 89 0a 	sts	0x0A89, r25
     530:	80 93 88 0a 	sts	0x0A88, r24
     534:	80 91 8a 0a 	lds	r24, 0x0A8A
     538:	90 91 8b 0a 	lds	r25, 0x0A8B
     53c:	90 93 6b 0a 	sts	0x0A6B, r25
     540:	80 93 6a 0a 	sts	0x0A6A, r24
     544:	86 e7       	ldi	r24, 0x76	; 118
     546:	9a e0       	ldi	r25, 0x0A	; 10
     548:	90 93 67 0a 	sts	0x0A67, r25
     54c:	80 93 66 0a 	sts	0x0A66, r24
     550:	2a e0       	ldi	r18, 0x0A	; 10
     552:	30 e0       	ldi	r19, 0x00	; 0
     554:	30 93 69 0a 	sts	0x0A69, r19
     558:	20 93 68 0a 	sts	0x0A68, r18
     55c:	40 96       	adiw	r24, 0x10	; 16
     55e:	90 93 6d 0a 	sts	0x0A6D, r25
     562:	80 93 6c 0a 	sts	0x0A6C, r24
     566:	2f eb       	ldi	r18, 0xBF	; 191
     568:	32 e0       	ldi	r19, 0x02	; 2
     56a:	30 93 63 0a 	sts	0x0A63, r19
     56e:	20 93 62 0a 	sts	0x0A62, r18
     572:	84 97       	sbiw	r24, 0x24	; 36
     574:	0e 94 c8 05 	call	0xb90	; 0xb90 <tc_receive>
     578:	08 95       	ret
     57a:	0e 94 84 11 	call	0x2308	; 0x2308 <abort>
     57e:	80 91 64 0a 	lds	r24, 0x0A64
     582:	90 91 65 0a 	lds	r25, 0x0A65
     586:	90 93 83 0a 	sts	0x0A83, r25
     58a:	80 93 82 0a 	sts	0x0A82, r24
     58e:	89 2b       	or	r24, r25
     590:	89 f6       	brne	.-94     	; 0x534 <ec_thread_2+0x50>
     592:	20 91 86 0a 	lds	r18, 0x0A86
     596:	30 91 87 0a 	lds	r19, 0x0A87
     59a:	2c 7f       	andi	r18, 0xFC	; 252
     59c:	30 93 87 0a 	sts	0x0A87, r19
     5a0:	20 93 86 0a 	sts	0x0A86, r18
     5a4:	80 91 88 0a 	lds	r24, 0x0A88
     5a8:	90 91 89 0a 	lds	r25, 0x0A89
     5ac:	90 93 75 0a 	sts	0x0A75, r25
     5b0:	80 93 74 0a 	sts	0x0A74, r24
     5b4:	86 e7       	ldi	r24, 0x76	; 118
     5b6:	9a e0       	ldi	r25, 0x0A	; 10
     5b8:	90 93 6f 0a 	sts	0x0A6F, r25
     5bc:	80 93 6e 0a 	sts	0x0A6E, r24
     5c0:	30 93 73 0a 	sts	0x0A73, r19
     5c4:	20 93 72 0a 	sts	0x0A72, r18
     5c8:	8a e9       	ldi	r24, 0x9A	; 154
     5ca:	92 e0       	ldi	r25, 0x02	; 2
     5cc:	90 93 63 0a 	sts	0x0A63, r25
     5d0:	80 93 62 0a 	sts	0x0A62, r24
     5d4:	80 91 74 0a 	lds	r24, 0x0A74
     5d8:	90 91 75 0a 	lds	r25, 0x0A75
     5dc:	90 93 6b 0a 	sts	0x0A6B, r25
     5e0:	80 93 6a 0a 	sts	0x0A6A, r24
     5e4:	80 91 6e 0a 	lds	r24, 0x0A6E
     5e8:	90 91 6f 0a 	lds	r25, 0x0A6F
     5ec:	90 93 69 0a 	sts	0x0A69, r25
     5f0:	80 93 68 0a 	sts	0x0A68, r24
     5f4:	80 91 72 0a 	lds	r24, 0x0A72
     5f8:	90 91 73 0a 	lds	r25, 0x0A73
     5fc:	90 93 6d 0a 	sts	0x0A6D, r25
     600:	80 93 6c 0a 	sts	0x0A6C, r24
     604:	8d e0       	ldi	r24, 0x0D	; 13
     606:	93 e0       	ldi	r25, 0x03	; 3
     608:	90 93 65 0a 	sts	0x0A65, r25
     60c:	80 93 64 0a 	sts	0x0A64, r24
     610:	84 e6       	ldi	r24, 0x64	; 100
     612:	9a e0       	ldi	r25, 0x0A	; 10
     614:	0e 94 6b 05 	call	0xad6	; 0xad6 <tc_flash_write>
     618:	08 95       	ret
     61a:	80 91 66 0a 	lds	r24, 0x0A66
     61e:	90 91 67 0a 	lds	r25, 0x0A67
     622:	90 93 71 0a 	sts	0x0A71, r25
     626:	80 93 70 0a 	sts	0x0A70, r24
     62a:	89 2b       	or	r24, r25
     62c:	99 f6       	brne	.-90     	; 0x5d4 <ec_thread_2+0xf0>
     62e:	e0 91 62 0a 	lds	r30, 0x0A62
     632:	f0 91 63 0a 	lds	r31, 0x0A63
     636:	09 94       	ijmp

00000638 <ec_thread_1>:
     638:	fc 01       	movw	r30, r24
     63a:	00 97       	sbiw	r24, 0x00	; 0
     63c:	09 f0       	breq	.+2      	; 0x640 <ec_thread_1+0x8>
     63e:	09 94       	ijmp
     640:	84 e2       	ldi	r24, 0x24	; 36
     642:	91 e0       	ldi	r25, 0x01	; 1
     644:	90 93 a3 0a 	sts	0x0AA3, r25
     648:	80 93 a2 0a 	sts	0x0AA2, r24
     64c:	23 e1       	ldi	r18, 0x13	; 19
     64e:	31 e0       	ldi	r19, 0x01	; 1
     650:	30 93 a9 0a 	sts	0x0AA9, r19
     654:	20 93 a8 0a 	sts	0x0AA8, r18
     658:	22 e3       	ldi	r18, 0x32	; 50
     65a:	30 e0       	ldi	r19, 0x00	; 0
     65c:	30 93 a5 0a 	sts	0x0AA5, r19
     660:	20 93 a4 0a 	sts	0x0AA4, r18
     664:	21 e0       	ldi	r18, 0x01	; 1
     666:	34 e0       	ldi	r19, 0x04	; 4
     668:	30 93 8d 0a 	sts	0x0A8D, r19
     66c:	20 93 8c 0a 	sts	0x0A8C, r18
     670:	0e 94 2d 06 	call	0xc5a	; 0xc5a <os_sensor_open>
     674:	90 93 b1 0a 	sts	0x0AB1, r25
     678:	80 93 b0 0a 	sts	0x0AB0, r24
     67c:	80 91 a8 0a 	lds	r24, 0x0AA8
     680:	90 91 a9 0a 	lds	r25, 0x0AA9
     684:	62 e0       	ldi	r22, 0x02	; 2
     686:	70 e0       	ldi	r23, 0x00	; 0
     688:	0e 94 b3 09 	call	0x1366	; 0x1366 <os_flash_open>
     68c:	90 93 ab 0a 	sts	0x0AAB, r25
     690:	80 93 aa 0a 	sts	0x0AAA, r24
     694:	0e 94 06 0a 	call	0x140c	; 0x140c <os_now>
     698:	60 93 ac 0a 	sts	0x0AAC, r22
     69c:	70 93 ad 0a 	sts	0x0AAD, r23
     6a0:	80 93 ae 0a 	sts	0x0AAE, r24
     6a4:	90 93 af 0a 	sts	0x0AAF, r25
     6a8:	80 91 a4 0a 	lds	r24, 0x0AA4
     6ac:	90 91 a5 0a 	lds	r25, 0x0AA5
     6b0:	a0 e0       	ldi	r26, 0x00	; 0
     6b2:	b0 e0       	ldi	r27, 0x00	; 0
     6b4:	20 91 ac 0a 	lds	r18, 0x0AAC
     6b8:	30 91 ad 0a 	lds	r19, 0x0AAD
     6bc:	40 91 ae 0a 	lds	r20, 0x0AAE
     6c0:	50 91 af 0a 	lds	r21, 0x0AAF
     6c4:	82 0f       	add	r24, r18
     6c6:	93 1f       	adc	r25, r19
     6c8:	a4 1f       	adc	r26, r20
     6ca:	b5 1f       	adc	r27, r21
     6cc:	80 93 92 0a 	sts	0x0A92, r24
     6d0:	90 93 93 0a 	sts	0x0A93, r25
     6d4:	a0 93 94 0a 	sts	0x0A94, r26
     6d8:	b0 93 95 0a 	sts	0x0A95, r27
     6dc:	89 e7       	ldi	r24, 0x79	; 121
     6de:	93 e0       	ldi	r25, 0x03	; 3
     6e0:	90 93 8f 0a 	sts	0x0A8F, r25
     6e4:	80 93 8e 0a 	sts	0x0A8E, r24
     6e8:	8e e8       	ldi	r24, 0x8E	; 142
     6ea:	9a e0       	ldi	r25, 0x0A	; 10
     6ec:	0e 94 e7 05 	call	0xbce	; 0xbce <tc_sleep>
     6f0:	08 95       	ret
     6f2:	80 91 a4 0a 	lds	r24, 0x0AA4
     6f6:	90 91 a5 0a 	lds	r25, 0x0AA5
     6fa:	a0 e0       	ldi	r26, 0x00	; 0
     6fc:	b0 e0       	ldi	r27, 0x00	; 0
     6fe:	20 91 ac 0a 	lds	r18, 0x0AAC
     702:	30 91 ad 0a 	lds	r19, 0x0AAD
     706:	40 91 ae 0a 	lds	r20, 0x0AAE
     70a:	50 91 af 0a 	lds	r21, 0x0AAF
     70e:	82 0f       	add	r24, r18
     710:	93 1f       	adc	r25, r19
     712:	a4 1f       	adc	r26, r20
     714:	b5 1f       	adc	r27, r21
     716:	80 93 ac 0a 	sts	0x0AAC, r24
     71a:	90 93 ad 0a 	sts	0x0AAD, r25
     71e:	a0 93 ae 0a 	sts	0x0AAE, r26
     722:	b0 93 af 0a 	sts	0x0AAF, r27
     726:	80 91 b0 0a 	lds	r24, 0x0AB0
     72a:	90 91 b1 0a 	lds	r25, 0x0AB1
     72e:	90 93 93 0a 	sts	0x0A93, r25
     732:	80 93 92 0a 	sts	0x0A92, r24
     736:	82 eb       	ldi	r24, 0xB2	; 178
     738:	9a e0       	ldi	r25, 0x0A	; 10
     73a:	90 93 95 0a 	sts	0x0A95, r25
     73e:	80 93 94 0a 	sts	0x0A94, r24
     742:	2b ea       	ldi	r18, 0xAB	; 171
     744:	33 e0       	ldi	r19, 0x03	; 3
     746:	30 93 8f 0a 	sts	0x0A8F, r19
     74a:	20 93 8e 0a 	sts	0x0A8E, r18
     74e:	84 97       	sbiw	r24, 0x24	; 36
     750:	0e 94 31 04 	call	0x862	; 0x862 <tc_sensor_read>
     754:	08 95       	ret
     756:	80 91 90 0a 	lds	r24, 0x0A90
     75a:	90 91 91 0a 	lds	r25, 0x0A91
     75e:	90 93 a7 0a 	sts	0x0AA7, r25
     762:	80 93 a6 0a 	sts	0x0AA6, r24
     766:	89 2b       	or	r24, r25
     768:	f1 f6       	brne	.-68     	; 0x726 <ec_thread_1+0xee>
     76a:	80 91 aa 0a 	lds	r24, 0x0AAA
     76e:	90 91 ab 0a 	lds	r25, 0x0AAB
     772:	90 93 a1 0a 	sts	0x0AA1, r25
     776:	80 93 a0 0a 	sts	0x0AA0, r24
     77a:	82 eb       	ldi	r24, 0xB2	; 178
     77c:	9a e0       	ldi	r25, 0x0A	; 10
     77e:	90 93 9b 0a 	sts	0x0A9B, r25
     782:	80 93 9a 0a 	sts	0x0A9A, r24
     786:	84 e0       	ldi	r24, 0x04	; 4
     788:	90 e0       	ldi	r25, 0x00	; 0
     78a:	90 93 9f 0a 	sts	0x0A9F, r25
     78e:	80 93 9e 0a 	sts	0x0A9E, r24
     792:	84 e5       	ldi	r24, 0x54	; 84
     794:	93 e0       	ldi	r25, 0x03	; 3
     796:	90 93 8f 0a 	sts	0x0A8F, r25
     79a:	80 93 8e 0a 	sts	0x0A8E, r24
     79e:	80 91 a0 0a 	lds	r24, 0x0AA0
     7a2:	90 91 a1 0a 	lds	r25, 0x0AA1
     7a6:	90 93 97 0a 	sts	0x0A97, r25
     7aa:	80 93 96 0a 	sts	0x0A96, r24
     7ae:	80 91 9a 0a 	lds	r24, 0x0A9A
     7b2:	90 91 9b 0a 	lds	r25, 0x0A9B
     7b6:	90 93 95 0a 	sts	0x0A95, r25
     7ba:	80 93 94 0a 	sts	0x0A94, r24
     7be:	80 91 9e 0a 	lds	r24, 0x0A9E
     7c2:	90 91 9f 0a 	lds	r25, 0x0A9F
     7c6:	90 93 99 0a 	sts	0x0A99, r25
     7ca:	80 93 98 0a 	sts	0x0A98, r24
     7ce:	82 ef       	ldi	r24, 0xF2	; 242
     7d0:	93 e0       	ldi	r25, 0x03	; 3
     7d2:	90 93 91 0a 	sts	0x0A91, r25
     7d6:	80 93 90 0a 	sts	0x0A90, r24
     7da:	80 e9       	ldi	r24, 0x90	; 144
     7dc:	9a e0       	ldi	r25, 0x0A	; 10
     7de:	0e 94 6b 05 	call	0xad6	; 0xad6 <tc_flash_write>
     7e2:	08 95       	ret
     7e4:	80 91 92 0a 	lds	r24, 0x0A92
     7e8:	90 91 93 0a 	lds	r25, 0x0A93
     7ec:	90 93 9d 0a 	sts	0x0A9D, r25
     7f0:	80 93 9c 0a 	sts	0x0A9C, r24
     7f4:	89 2b       	or	r24, r25
     7f6:	99 f6       	brne	.-90     	; 0x79e <ec_thread_1+0x166>
     7f8:	e0 91 8e 0a 	lds	r30, 0x0A8E
     7fc:	f0 91 8f 0a 	lds	r31, 0x0A8F
     800:	09 94       	ijmp
     802:	0e 94 84 11 	call	0x2308	; 0x2308 <abort>

00000806 <main>:
     806:	83 e0       	ldi	r24, 0x03	; 3
     808:	90 e0       	ldi	r25, 0x00	; 0
     80a:	0e 94 03 06 	call	0xc06	; 0xc06 <pal_init>
     80e:	8c e1       	ldi	r24, 0x1C	; 28
     810:	93 e0       	ldi	r25, 0x03	; 3
     812:	0e 94 18 04 	call	0x830	; 0x830 <pal_start_thread>
     816:	82 e7       	ldi	r24, 0x72	; 114
     818:	92 e0       	ldi	r25, 0x02	; 2
     81a:	0e 94 18 04 	call	0x830	; 0x830 <pal_start_thread>
     81e:	87 e6       	ldi	r24, 0x67	; 103
     820:	90 e0       	ldi	r25, 0x00	; 0
     822:	0e 94 18 04 	call	0x830	; 0x830 <pal_start_thread>
     826:	0e 94 00 06 	call	0xc00	; 0xc00 <pal_run>
     82a:	80 e0       	ldi	r24, 0x00	; 0
     82c:	90 e0       	ldi	r25, 0x00	; 0
     82e:	08 95       	ret

00000830 <pal_start_thread>:
     830:	9c 01       	movw	r18, r24
     832:	80 91 2b 01 	lds	r24, 0x012B
     836:	90 91 2c 01 	lds	r25, 0x012C
     83a:	01 96       	adiw	r24, 0x01	; 1
     83c:	90 93 2c 01 	sts	0x012C, r25
     840:	80 93 2b 01 	sts	0x012B, r24
     844:	88 0f       	add	r24, r24
     846:	99 1f       	adc	r25, r25
     848:	e0 91 22 02 	lds	r30, 0x0222
     84c:	f0 91 23 02 	lds	r31, 0x0223
     850:	e8 0f       	add	r30, r24
     852:	f9 1f       	adc	r31, r25
     854:	31 83       	std	Z+1, r19	; 0x01
     856:	20 83       	st	Z, r18
     858:	80 e0       	ldi	r24, 0x00	; 0
     85a:	90 e0       	ldi	r25, 0x00	; 0
     85c:	f9 01       	movw	r30, r18
     85e:	09 95       	icall
     860:	08 95       	ret

00000862 <tc_sensor_read>:
     862:	0f 93       	push	r16
     864:	1f 93       	push	r17
     866:	8c 01       	movw	r16, r24
     868:	84 e0       	ldi	r24, 0x04	; 4
     86a:	90 e0       	ldi	r25, 0x00	; 0
     86c:	0e 94 14 10 	call	0x2028	; 0x2028 <malloc>
     870:	fc 01       	movw	r30, r24
     872:	11 83       	std	Z+1, r17	; 0x01
     874:	00 83       	st	Z, r16
     876:	d8 01       	movw	r26, r16
     878:	14 96       	adiw	r26, 0x04	; 4
     87a:	4d 91       	ld	r20, X+
     87c:	5c 91       	ld	r21, X
     87e:	15 97       	sbiw	r26, 0x05	; 5
     880:	88 e4       	ldi	r24, 0x48	; 72
     882:	94 e0       	ldi	r25, 0x04	; 4
     884:	bf 01       	movw	r22, r30
     886:	0e 94 3b 06 	call	0xc76	; 0xc76 <os_sensor_read>
     88a:	1f 91       	pop	r17
     88c:	0f 91       	pop	r16
     88e:	08 95       	ret

00000890 <sensor_read_cb>:
     890:	ef 92       	push	r14
     892:	ff 92       	push	r15
     894:	0f 93       	push	r16
     896:	1f 93       	push	r17
     898:	cf 93       	push	r28
     89a:	df 93       	push	r29
     89c:	7b 01       	movw	r14, r22
     89e:	fc 01       	movw	r30, r24
     8a0:	00 81       	ld	r16, Z
     8a2:	11 81       	ldd	r17, Z+1	; 0x01
     8a4:	e8 01       	movw	r28, r16
     8a6:	ae 81       	ldd	r26, Y+6	; 0x06
     8a8:	bf 81       	ldd	r27, Y+7	; 0x07
     8aa:	2d 93       	st	X+, r18
     8ac:	3d 93       	st	X+, r19
     8ae:	4d 93       	st	X+, r20
     8b0:	5c 93       	st	X, r21
     8b2:	13 97       	sbiw	r26, 0x03	; 3
     8b4:	82 81       	ldd	r24, Z+2	; 0x02
     8b6:	93 81       	ldd	r25, Z+3	; 0x03
     8b8:	90 93 2c 01 	sts	0x012C, r25
     8bc:	80 93 2b 01 	sts	0x012B, r24
     8c0:	cf 01       	movw	r24, r30
     8c2:	0e 94 c1 10 	call	0x2182	; 0x2182 <free>
     8c6:	fb 82       	std	Y+3, r15	; 0x03
     8c8:	ea 82       	std	Y+2, r14	; 0x02
     8ca:	80 91 2b 01 	lds	r24, 0x012B
     8ce:	90 91 2c 01 	lds	r25, 0x012C
     8d2:	88 0f       	add	r24, r24
     8d4:	99 1f       	adc	r25, r25
     8d6:	e0 91 22 02 	lds	r30, 0x0222
     8da:	f0 91 23 02 	lds	r31, 0x0223
     8de:	e8 0f       	add	r30, r24
     8e0:	f9 1f       	adc	r31, r25
     8e2:	01 90       	ld	r0, Z+
     8e4:	f0 81       	ld	r31, Z
     8e6:	e0 2d       	mov	r30, r0
     8e8:	88 81       	ld	r24, Y
     8ea:	99 81       	ldd	r25, Y+1	; 0x01
     8ec:	09 95       	icall
     8ee:	df 91       	pop	r29
     8f0:	cf 91       	pop	r28
     8f2:	1f 91       	pop	r17
     8f4:	0f 91       	pop	r16
     8f6:	ff 90       	pop	r15
     8f8:	ef 90       	pop	r14
     8fa:	08 95       	ret

000008fc <flash_write_cb>:
     8fc:	ef 92       	push	r14
     8fe:	ff 92       	push	r15
     900:	0f 93       	push	r16
     902:	1f 93       	push	r17
     904:	7b 01       	movw	r14, r22
     906:	fc 01       	movw	r30, r24
     908:	00 81       	ld	r16, Z
     90a:	11 81       	ldd	r17, Z+1	; 0x01
     90c:	82 81       	ldd	r24, Z+2	; 0x02
     90e:	93 81       	ldd	r25, Z+3	; 0x03
     910:	90 93 2c 01 	sts	0x012C, r25
     914:	80 93 2b 01 	sts	0x012B, r24
     918:	cf 01       	movw	r24, r30
     91a:	0e 94 c1 10 	call	0x2182	; 0x2182 <free>
     91e:	d8 01       	movw	r26, r16
     920:	13 96       	adiw	r26, 0x03	; 3
     922:	fc 92       	st	X, r15
     924:	ee 92       	st	-X, r14
     926:	12 97       	sbiw	r26, 0x02	; 2
     928:	80 91 2b 01 	lds	r24, 0x012B
     92c:	90 91 2c 01 	lds	r25, 0x012C
     930:	88 0f       	add	r24, r24
     932:	99 1f       	adc	r25, r25
     934:	e0 91 22 02 	lds	r30, 0x0222
     938:	f0 91 23 02 	lds	r31, 0x0223
     93c:	e8 0f       	add	r30, r24
     93e:	f9 1f       	adc	r31, r25
     940:	01 90       	ld	r0, Z+
     942:	f0 81       	ld	r31, Z
     944:	e0 2d       	mov	r30, r0
     946:	8d 91       	ld	r24, X+
     948:	9c 91       	ld	r25, X
     94a:	09 95       	icall
     94c:	1f 91       	pop	r17
     94e:	0f 91       	pop	r16
     950:	ff 90       	pop	r15
     952:	ef 90       	pop	r14
     954:	08 95       	ret

00000956 <flash_read_cb>:
     956:	ef 92       	push	r14
     958:	ff 92       	push	r15
     95a:	0f 93       	push	r16
     95c:	1f 93       	push	r17
     95e:	cf 93       	push	r28
     960:	df 93       	push	r29
     962:	7b 01       	movw	r14, r22
     964:	fc 01       	movw	r30, r24
     966:	00 81       	ld	r16, Z
     968:	11 81       	ldd	r17, Z+1	; 0x01
     96a:	e8 01       	movw	r28, r16
     96c:	aa 85       	ldd	r26, Y+10	; 0x0a
     96e:	bb 85       	ldd	r27, Y+11	; 0x0b
     970:	4d 93       	st	X+, r20
     972:	5c 93       	st	X, r21
     974:	82 81       	ldd	r24, Z+2	; 0x02
     976:	93 81       	ldd	r25, Z+3	; 0x03
     978:	90 93 2c 01 	sts	0x012C, r25
     97c:	80 93 2b 01 	sts	0x012B, r24
     980:	cf 01       	movw	r24, r30
     982:	0e 94 c1 10 	call	0x2182	; 0x2182 <free>
     986:	fb 82       	std	Y+3, r15	; 0x03
     988:	ea 82       	std	Y+2, r14	; 0x02
     98a:	80 91 2b 01 	lds	r24, 0x012B
     98e:	90 91 2c 01 	lds	r25, 0x012C
     992:	88 0f       	add	r24, r24
     994:	99 1f       	adc	r25, r25
     996:	e0 91 22 02 	lds	r30, 0x0222
     99a:	f0 91 23 02 	lds	r31, 0x0223
     99e:	e8 0f       	add	r30, r24
     9a0:	f9 1f       	adc	r31, r25
     9a2:	01 90       	ld	r0, Z+
     9a4:	f0 81       	ld	r31, Z
     9a6:	e0 2d       	mov	r30, r0
     9a8:	88 81       	ld	r24, Y
     9aa:	99 81       	ldd	r25, Y+1	; 0x01
     9ac:	09 95       	icall
     9ae:	df 91       	pop	r29
     9b0:	cf 91       	pop	r28
     9b2:	1f 91       	pop	r17
     9b4:	0f 91       	pop	r16
     9b6:	ff 90       	pop	r15
     9b8:	ef 90       	pop	r14
     9ba:	08 95       	ret

000009bc <send_cb>:
     9bc:	ef 92       	push	r14
     9be:	ff 92       	push	r15
     9c0:	0f 93       	push	r16
     9c2:	1f 93       	push	r17
     9c4:	7b 01       	movw	r14, r22
     9c6:	fc 01       	movw	r30, r24
     9c8:	00 81       	ld	r16, Z
     9ca:	11 81       	ldd	r17, Z+1	; 0x01
     9cc:	82 81       	ldd	r24, Z+2	; 0x02
     9ce:	93 81       	ldd	r25, Z+3	; 0x03
     9d0:	90 93 2c 01 	sts	0x012C, r25
     9d4:	80 93 2b 01 	sts	0x012B, r24
     9d8:	cf 01       	movw	r24, r30
     9da:	0e 94 c1 10 	call	0x2182	; 0x2182 <free>
     9de:	d8 01       	movw	r26, r16
     9e0:	13 96       	adiw	r26, 0x03	; 3
     9e2:	fc 92       	st	X, r15
     9e4:	ee 92       	st	-X, r14
     9e6:	12 97       	sbiw	r26, 0x02	; 2
     9e8:	80 91 2b 01 	lds	r24, 0x012B
     9ec:	90 91 2c 01 	lds	r25, 0x012C
     9f0:	88 0f       	add	r24, r24
     9f2:	99 1f       	adc	r25, r25
     9f4:	e0 91 22 02 	lds	r30, 0x0222
     9f8:	f0 91 23 02 	lds	r31, 0x0223
     9fc:	e8 0f       	add	r30, r24
     9fe:	f9 1f       	adc	r31, r25
     a00:	01 90       	ld	r0, Z+
     a02:	f0 81       	ld	r31, Z
     a04:	e0 2d       	mov	r30, r0
     a06:	8d 91       	ld	r24, X+
     a08:	9c 91       	ld	r25, X
     a0a:	09 95       	icall
     a0c:	1f 91       	pop	r17
     a0e:	0f 91       	pop	r16
     a10:	ff 90       	pop	r15
     a12:	ef 90       	pop	r14
     a14:	08 95       	ret

00000a16 <receive_cb>:
     a16:	ef 92       	push	r14
     a18:	ff 92       	push	r15
     a1a:	0f 93       	push	r16
     a1c:	1f 93       	push	r17
     a1e:	cf 93       	push	r28
     a20:	df 93       	push	r29
     a22:	7b 01       	movw	r14, r22
     a24:	fc 01       	movw	r30, r24
     a26:	00 81       	ld	r16, Z
     a28:	11 81       	ldd	r17, Z+1	; 0x01
     a2a:	e8 01       	movw	r28, r16
     a2c:	aa 85       	ldd	r26, Y+10	; 0x0a
     a2e:	bb 85       	ldd	r27, Y+11	; 0x0b
     a30:	4d 93       	st	X+, r20
     a32:	5c 93       	st	X, r21
     a34:	82 81       	ldd	r24, Z+2	; 0x02
     a36:	93 81       	ldd	r25, Z+3	; 0x03
     a38:	90 93 2c 01 	sts	0x012C, r25
     a3c:	80 93 2b 01 	sts	0x012B, r24
     a40:	cf 01       	movw	r24, r30
     a42:	0e 94 c1 10 	call	0x2182	; 0x2182 <free>
     a46:	fb 82       	std	Y+3, r15	; 0x03
     a48:	ea 82       	std	Y+2, r14	; 0x02
     a4a:	80 91 2b 01 	lds	r24, 0x012B
     a4e:	90 91 2c 01 	lds	r25, 0x012C
     a52:	88 0f       	add	r24, r24
     a54:	99 1f       	adc	r25, r25
     a56:	e0 91 22 02 	lds	r30, 0x0222
     a5a:	f0 91 23 02 	lds	r31, 0x0223
     a5e:	e8 0f       	add	r30, r24
     a60:	f9 1f       	adc	r31, r25
     a62:	01 90       	ld	r0, Z+
     a64:	f0 81       	ld	r31, Z
     a66:	e0 2d       	mov	r30, r0
     a68:	88 81       	ld	r24, Y
     a6a:	99 81       	ldd	r25, Y+1	; 0x01
     a6c:	09 95       	icall
     a6e:	df 91       	pop	r29
     a70:	cf 91       	pop	r28
     a72:	1f 91       	pop	r17
     a74:	0f 91       	pop	r16
     a76:	ff 90       	pop	r15
     a78:	ef 90       	pop	r14
     a7a:	08 95       	ret

00000a7c <sleep_cb>:
     a7c:	ef 92       	push	r14
     a7e:	ff 92       	push	r15
     a80:	0f 93       	push	r16
     a82:	1f 93       	push	r17
     a84:	7b 01       	movw	r14, r22
     a86:	fc 01       	movw	r30, r24
     a88:	00 81       	ld	r16, Z
     a8a:	11 81       	ldd	r17, Z+1	; 0x01
     a8c:	82 81       	ldd	r24, Z+2	; 0x02
     a8e:	93 81       	ldd	r25, Z+3	; 0x03
     a90:	90 93 2c 01 	sts	0x012C, r25
     a94:	80 93 2b 01 	sts	0x012B, r24
     a98:	cf 01       	movw	r24, r30
     a9a:	0e 94 c1 10 	call	0x2182	; 0x2182 <free>
     a9e:	d8 01       	movw	r26, r16
     aa0:	13 96       	adiw	r26, 0x03	; 3
     aa2:	fc 92       	st	X, r15
     aa4:	ee 92       	st	-X, r14
     aa6:	12 97       	sbiw	r26, 0x02	; 2
     aa8:	80 91 2b 01 	lds	r24, 0x012B
     aac:	90 91 2c 01 	lds	r25, 0x012C
     ab0:	88 0f       	add	r24, r24
     ab2:	99 1f       	adc	r25, r25
     ab4:	e0 91 22 02 	lds	r30, 0x0222
     ab8:	f0 91 23 02 	lds	r31, 0x0223
     abc:	e8 0f       	add	r30, r24
     abe:	f9 1f       	adc	r31, r25
     ac0:	01 90       	ld	r0, Z+
     ac2:	f0 81       	ld	r31, Z
     ac4:	e0 2d       	mov	r30, r0
     ac6:	8d 91       	ld	r24, X+
     ac8:	9c 91       	ld	r25, X
     aca:	09 95       	icall
     acc:	1f 91       	pop	r17
     ace:	0f 91       	pop	r16
     ad0:	ff 90       	pop	r15
     ad2:	ef 90       	pop	r14
     ad4:	08 95       	ret

00000ad6 <tc_flash_write>:
     ad6:	0f 93       	push	r16
     ad8:	1f 93       	push	r17
     ada:	8c 01       	movw	r16, r24
     adc:	84 e0       	ldi	r24, 0x04	; 4
     ade:	90 e0       	ldi	r25, 0x00	; 0
     ae0:	0e 94 14 10 	call	0x2028	; 0x2028 <malloc>
     ae4:	fc 01       	movw	r30, r24
     ae6:	11 83       	std	Z+1, r17	; 0x01
     ae8:	00 83       	st	Z, r16
     aea:	d8 01       	movw	r26, r16
     aec:	16 96       	adiw	r26, 0x06	; 6
     aee:	4d 91       	ld	r20, X+
     af0:	5c 91       	ld	r21, X
     af2:	17 97       	sbiw	r26, 0x07	; 7
     af4:	14 96       	adiw	r26, 0x04	; 4
     af6:	2d 91       	ld	r18, X+
     af8:	3c 91       	ld	r19, X
     afa:	15 97       	sbiw	r26, 0x05	; 5
     afc:	18 96       	adiw	r26, 0x08	; 8
     afe:	0d 91       	ld	r16, X+
     b00:	1c 91       	ld	r17, X
     b02:	19 97       	sbiw	r26, 0x09	; 9
     b04:	8e e7       	ldi	r24, 0x7E	; 126
     b06:	94 e0       	ldi	r25, 0x04	; 4
     b08:	bf 01       	movw	r22, r30
     b0a:	0e 94 61 07 	call	0xec2	; 0xec2 <os_flash_write>
     b0e:	1f 91       	pop	r17
     b10:	0f 91       	pop	r16
     b12:	08 95       	ret

00000b14 <tc_flash_read>:
     b14:	0f 93       	push	r16
     b16:	1f 93       	push	r17
     b18:	8c 01       	movw	r16, r24
     b1a:	84 e0       	ldi	r24, 0x04	; 4
     b1c:	90 e0       	ldi	r25, 0x00	; 0
     b1e:	0e 94 14 10 	call	0x2028	; 0x2028 <malloc>
     b22:	fc 01       	movw	r30, r24
     b24:	11 83       	std	Z+1, r17	; 0x01
     b26:	00 83       	st	Z, r16
     b28:	d8 01       	movw	r26, r16
     b2a:	18 96       	adiw	r26, 0x08	; 8
     b2c:	4d 91       	ld	r20, X+
     b2e:	5c 91       	ld	r21, X
     b30:	19 97       	sbiw	r26, 0x09	; 9
     b32:	14 96       	adiw	r26, 0x04	; 4
     b34:	2d 91       	ld	r18, X+
     b36:	3c 91       	ld	r19, X
     b38:	15 97       	sbiw	r26, 0x05	; 5
     b3a:	16 96       	adiw	r26, 0x06	; 6
     b3c:	0d 91       	ld	r16, X+
     b3e:	1c 91       	ld	r17, X
     b40:	17 97       	sbiw	r26, 0x07	; 7
     b42:	8b ea       	ldi	r24, 0xAB	; 171
     b44:	94 e0       	ldi	r25, 0x04	; 4
     b46:	bf 01       	movw	r22, r30
     b48:	0e 94 07 08 	call	0x100e	; 0x100e <os_flash_read>
     b4c:	1f 91       	pop	r17
     b4e:	0f 91       	pop	r16
     b50:	08 95       	ret

00000b52 <tc_send>:
     b52:	0f 93       	push	r16
     b54:	1f 93       	push	r17
     b56:	8c 01       	movw	r16, r24
     b58:	84 e0       	ldi	r24, 0x04	; 4
     b5a:	90 e0       	ldi	r25, 0x00	; 0
     b5c:	0e 94 14 10 	call	0x2028	; 0x2028 <malloc>
     b60:	fc 01       	movw	r30, r24
     b62:	11 83       	std	Z+1, r17	; 0x01
     b64:	00 83       	st	Z, r16
     b66:	d8 01       	movw	r26, r16
     b68:	16 96       	adiw	r26, 0x06	; 6
     b6a:	4d 91       	ld	r20, X+
     b6c:	5c 91       	ld	r21, X
     b6e:	17 97       	sbiw	r26, 0x07	; 7
     b70:	14 96       	adiw	r26, 0x04	; 4
     b72:	2d 91       	ld	r18, X+
     b74:	3c 91       	ld	r19, X
     b76:	15 97       	sbiw	r26, 0x05	; 5
     b78:	18 96       	adiw	r26, 0x08	; 8
     b7a:	0d 91       	ld	r16, X+
     b7c:	1c 91       	ld	r17, X
     b7e:	19 97       	sbiw	r26, 0x09	; 9
     b80:	8e ed       	ldi	r24, 0xDE	; 222
     b82:	94 e0       	ldi	r25, 0x04	; 4
     b84:	bf 01       	movw	r22, r30
     b86:	0e 94 b7 08 	call	0x116e	; 0x116e <os_send>
     b8a:	1f 91       	pop	r17
     b8c:	0f 91       	pop	r16
     b8e:	08 95       	ret

00000b90 <tc_receive>:
     b90:	0f 93       	push	r16
     b92:	1f 93       	push	r17
     b94:	8c 01       	movw	r16, r24
     b96:	84 e0       	ldi	r24, 0x04	; 4
     b98:	90 e0       	ldi	r25, 0x00	; 0
     b9a:	0e 94 14 10 	call	0x2028	; 0x2028 <malloc>
     b9e:	fc 01       	movw	r30, r24
     ba0:	11 83       	std	Z+1, r17	; 0x01
     ba2:	00 83       	st	Z, r16
     ba4:	d8 01       	movw	r26, r16
     ba6:	18 96       	adiw	r26, 0x08	; 8
     ba8:	4d 91       	ld	r20, X+
     baa:	5c 91       	ld	r21, X
     bac:	19 97       	sbiw	r26, 0x09	; 9
     bae:	14 96       	adiw	r26, 0x04	; 4
     bb0:	2d 91       	ld	r18, X+
     bb2:	3c 91       	ld	r19, X
     bb4:	15 97       	sbiw	r26, 0x05	; 5
     bb6:	16 96       	adiw	r26, 0x06	; 6
     bb8:	0d 91       	ld	r16, X+
     bba:	1c 91       	ld	r17, X
     bbc:	17 97       	sbiw	r26, 0x07	; 7
     bbe:	8b e0       	ldi	r24, 0x0B	; 11
     bc0:	95 e0       	ldi	r25, 0x05	; 5
     bc2:	bf 01       	movw	r22, r30
     bc4:	0e 94 27 09 	call	0x124e	; 0x124e <os_receive>
     bc8:	1f 91       	pop	r17
     bca:	0f 91       	pop	r16
     bcc:	08 95       	ret

00000bce <tc_sleep>:
     bce:	0f 93       	push	r16
     bd0:	1f 93       	push	r17
     bd2:	8c 01       	movw	r16, r24
     bd4:	84 e0       	ldi	r24, 0x04	; 4
     bd6:	90 e0       	ldi	r25, 0x00	; 0
     bd8:	0e 94 14 10 	call	0x2028	; 0x2028 <malloc>
     bdc:	fc 01       	movw	r30, r24
     bde:	11 83       	std	Z+1, r17	; 0x01
     be0:	00 83       	st	Z, r16
     be2:	d8 01       	movw	r26, r16
     be4:	14 96       	adiw	r26, 0x04	; 4
     be6:	2d 91       	ld	r18, X+
     be8:	3d 91       	ld	r19, X+
     bea:	4d 91       	ld	r20, X+
     bec:	5c 91       	ld	r21, X
     bee:	17 97       	sbiw	r26, 0x07	; 7
     bf0:	8e e3       	ldi	r24, 0x3E	; 62
     bf2:	95 e0       	ldi	r25, 0x05	; 5
     bf4:	bf 01       	movw	r22, r30
     bf6:	0e 94 b2 06 	call	0xd64	; 0xd64 <os_sleep>
     bfa:	1f 91       	pop	r17
     bfc:	0f 91       	pop	r16
     bfe:	08 95       	ret

00000c00 <pal_run>:
     c00:	0e 94 09 0a 	call	0x1412	; 0x1412 <os_run>
     c04:	08 95       	ret

00000c06 <pal_init>:
     c06:	88 0f       	add	r24, r24
     c08:	99 1f       	adc	r25, r25
     c0a:	0e 94 14 10 	call	0x2028	; 0x2028 <malloc>
     c0e:	80 93 22 02 	sts	0x0222, r24
     c12:	90 93 23 02 	sts	0x0223, r25
     c16:	0e 94 0c 0a 	call	0x1418	; 0x1418 <os_init>
     c1a:	08 95       	ret

00000c1c <os_listen>:
     c1c:	20 91 b6 0a 	lds	r18, 0x0AB6
     c20:	30 91 b7 0a 	lds	r19, 0x0AB7
     c24:	2f 5f       	subi	r18, 0xFF	; 255
     c26:	3f 4f       	sbci	r19, 0xFF	; 255
     c28:	30 93 b7 0a 	sts	0x0AB7, r19
     c2c:	20 93 b6 0a 	sts	0x0AB6, r18
     c30:	21 50       	subi	r18, 0x01	; 1
     c32:	30 40       	sbci	r19, 0x00	; 0
     c34:	c9 01       	movw	r24, r18
     c36:	08 95       	ret

00000c38 <os_connect>:
     c38:	20 91 b6 0a 	lds	r18, 0x0AB6
     c3c:	30 91 b7 0a 	lds	r19, 0x0AB7
     c40:	2f 5f       	subi	r18, 0xFF	; 255
     c42:	3f 4f       	sbci	r19, 0xFF	; 255
     c44:	30 93 b7 0a 	sts	0x0AB7, r19
     c48:	20 93 b6 0a 	sts	0x0AB6, r18
     c4c:	21 50       	subi	r18, 0x01	; 1
     c4e:	30 40       	sbci	r19, 0x00	; 0
     c50:	c9 01       	movw	r24, r18
     c52:	08 95       	ret

00000c54 <os_flash_seek>:
     c54:	80 e0       	ldi	r24, 0x00	; 0
     c56:	90 e0       	ldi	r25, 0x00	; 0
     c58:	08 95       	ret

00000c5a <os_sensor_open>:
     c5a:	20 91 b6 0a 	lds	r18, 0x0AB6
     c5e:	30 91 b7 0a 	lds	r19, 0x0AB7
     c62:	2f 5f       	subi	r18, 0xFF	; 255
     c64:	3f 4f       	sbci	r19, 0xFF	; 255
     c66:	30 93 b7 0a 	sts	0x0AB7, r19
     c6a:	20 93 b6 0a 	sts	0x0AB6, r18
     c6e:	21 50       	subi	r18, 0x01	; 1
     c70:	30 40       	sbci	r19, 0x00	; 0
     c72:	c9 01       	movw	r24, r18
     c74:	08 95       	ret

00000c76 <os_sensor_read>:
     c76:	af 92       	push	r10
     c78:	bf 92       	push	r11
     c7a:	cf 92       	push	r12
     c7c:	df 92       	push	r13
     c7e:	ef 92       	push	r14
     c80:	ff 92       	push	r15
     c82:	0f 93       	push	r16
     c84:	1f 93       	push	r17
     c86:	cf 93       	push	r28
     c88:	df 93       	push	r29
     c8a:	7c 01       	movw	r14, r24
     c8c:	6b 01       	movw	r12, r22
     c8e:	5a 01       	movw	r10, r20
     c90:	8c e0       	ldi	r24, 0x0C	; 12
     c92:	90 e0       	ldi	r25, 0x00	; 0
     c94:	0e 94 14 10 	call	0x2028	; 0x2028 <malloc>
     c98:	8c 01       	movw	r16, r24
     c9a:	dc 01       	movw	r26, r24
     c9c:	13 96       	adiw	r26, 0x03	; 3
     c9e:	fc 92       	st	X, r15
     ca0:	ee 92       	st	-X, r14
     ca2:	12 97       	sbiw	r26, 0x02	; 2
     ca4:	15 96       	adiw	r26, 0x05	; 5
     ca6:	dc 92       	st	X, r13
     ca8:	ce 92       	st	-X, r12
     caa:	14 97       	sbiw	r26, 0x04	; 4
     cac:	0e 94 55 0f 	call	0x1eaa	; 0x1eaa <random_error>
     cb0:	e8 01       	movw	r28, r16
     cb2:	9f 83       	std	Y+7, r25	; 0x07
     cb4:	8e 83       	std	Y+6, r24	; 0x06
     cb6:	84 e6       	ldi	r24, 0x64	; 100
     cb8:	90 e0       	ldi	r25, 0x00	; 0
     cba:	0e 94 27 0f 	call	0x1e4e	; 0x1e4e <random_integer>
     cbe:	aa 27       	eor	r26, r26
     cc0:	97 fd       	sbrc	r25, 7
     cc2:	a0 95       	com	r26
     cc4:	ba 2f       	mov	r27, r26
     cc6:	f8 01       	movw	r30, r16
     cc8:	80 87       	std	Z+8, r24	; 0x08
     cca:	91 87       	std	Z+9, r25	; 0x09
     ccc:	a2 87       	std	Z+10, r26	; 0x0a
     cce:	b3 87       	std	Z+11, r27	; 0x0b
     cd0:	81 e0       	ldi	r24, 0x01	; 1
     cd2:	90 e0       	ldi	r25, 0x00	; 0
     cd4:	63 e0       	ldi	r22, 0x03	; 3
     cd6:	70 e0       	ldi	r23, 0x00	; 0
     cd8:	0e 94 b0 0f 	call	0x1f60	; 0x1f60 <random_integer_range>
     cdc:	6c 01       	movw	r12, r24
     cde:	8d b7       	in	r24, 0x3d	; 61
     ce0:	9e b7       	in	r25, 0x3e	; 62
     ce2:	0a 97       	sbiw	r24, 0x0a	; 10
     ce4:	0f b6       	in	r0, 0x3f	; 63
     ce6:	f8 94       	cli
     ce8:	9e bf       	out	0x3e, r25	; 62
     cea:	0f be       	out	0x3f, r0	; 63
     cec:	8d bf       	out	0x3d, r24	; 61
     cee:	ed b7       	in	r30, 0x3d	; 61
     cf0:	fe b7       	in	r31, 0x3e	; 62
     cf2:	31 96       	adiw	r30, 0x01	; 1
     cf4:	8d e2       	ldi	r24, 0x2D	; 45
     cf6:	91 e0       	ldi	r25, 0x01	; 1
     cf8:	ad b7       	in	r26, 0x3d	; 61
     cfa:	be b7       	in	r27, 0x3e	; 62
     cfc:	12 96       	adiw	r26, 0x02	; 2
     cfe:	9c 93       	st	X, r25
     d00:	8e 93       	st	-X, r24
     d02:	11 97       	sbiw	r26, 0x01	; 1
     d04:	89 e3       	ldi	r24, 0x39	; 57
     d06:	91 e0       	ldi	r25, 0x01	; 1
     d08:	93 83       	std	Z+3, r25	; 0x03
     d0a:	82 83       	std	Z+2, r24	; 0x02
     d0c:	b5 82       	std	Z+5, r11	; 0x05
     d0e:	a4 82       	std	Z+4, r10	; 0x04
     d10:	88 85       	ldd	r24, Y+8	; 0x08
     d12:	99 85       	ldd	r25, Y+9	; 0x09
     d14:	aa 85       	ldd	r26, Y+10	; 0x0a
     d16:	bb 85       	ldd	r27, Y+11	; 0x0b
     d18:	86 83       	std	Z+6, r24	; 0x06
     d1a:	97 83       	std	Z+7, r25	; 0x07
     d1c:	a0 87       	std	Z+8, r26	; 0x08
     d1e:	b1 87       	std	Z+9, r27	; 0x09
     d20:	0e 94 4b 0b 	call	0x1696	; 0x1696 <logger_syscall>
     d24:	99 83       	std	Y+1, r25	; 0x01
     d26:	88 83       	st	Y, r24
     d28:	ed b7       	in	r30, 0x3d	; 61
     d2a:	fe b7       	in	r31, 0x3e	; 62
     d2c:	3a 96       	adiw	r30, 0x0a	; 10
     d2e:	0f b6       	in	r0, 0x3f	; 63
     d30:	f8 94       	cli
     d32:	fe bf       	out	0x3e, r31	; 62
     d34:	0f be       	out	0x3f, r0	; 63
     d36:	ed bf       	out	0x3d, r30	; 61
     d38:	ee 24       	eor	r14, r14
     d3a:	d7 fc       	sbrc	r13, 7
     d3c:	e0 94       	com	r14
     d3e:	fe 2c       	mov	r15, r14
     d40:	c7 01       	movw	r24, r14
     d42:	b6 01       	movw	r22, r12
     d44:	4d e0       	ldi	r20, 0x0D	; 13
     d46:	57 e0       	ldi	r21, 0x07	; 7
     d48:	98 01       	movw	r18, r16
     d4a:	0e 94 b8 0e 	call	0x1d70	; 0x1d70 <dispatcher_enqueue>
     d4e:	df 91       	pop	r29
     d50:	cf 91       	pop	r28
     d52:	1f 91       	pop	r17
     d54:	0f 91       	pop	r16
     d56:	ff 90       	pop	r15
     d58:	ef 90       	pop	r14
     d5a:	df 90       	pop	r13
     d5c:	cf 90       	pop	r12
     d5e:	bf 90       	pop	r11
     d60:	af 90       	pop	r10
     d62:	08 95       	ret

00000d64 <os_sleep>:
     d64:	8f 92       	push	r8
     d66:	9f 92       	push	r9
     d68:	af 92       	push	r10
     d6a:	bf 92       	push	r11
     d6c:	cf 92       	push	r12
     d6e:	df 92       	push	r13
     d70:	ef 92       	push	r14
     d72:	ff 92       	push	r15
     d74:	0f 93       	push	r16
     d76:	1f 93       	push	r17
     d78:	5c 01       	movw	r10, r24
     d7a:	4b 01       	movw	r8, r22
     d7c:	69 01       	movw	r12, r18
     d7e:	7a 01       	movw	r14, r20
     d80:	88 e0       	ldi	r24, 0x08	; 8
     d82:	90 e0       	ldi	r25, 0x00	; 0
     d84:	0e 94 14 10 	call	0x2028	; 0x2028 <malloc>
     d88:	8c 01       	movw	r16, r24
     d8a:	dc 01       	movw	r26, r24
     d8c:	13 96       	adiw	r26, 0x03	; 3
     d8e:	bc 92       	st	X, r11
     d90:	ae 92       	st	-X, r10
     d92:	12 97       	sbiw	r26, 0x02	; 2
     d94:	15 96       	adiw	r26, 0x05	; 5
     d96:	9c 92       	st	X, r9
     d98:	8e 92       	st	-X, r8
     d9a:	14 97       	sbiw	r26, 0x04	; 4
     d9c:	0e 94 55 0f 	call	0x1eaa	; 0x1eaa <random_error>
     da0:	f8 01       	movw	r30, r16
     da2:	97 83       	std	Z+7, r25	; 0x07
     da4:	86 83       	std	Z+6, r24	; 0x06
     da6:	8d b7       	in	r24, 0x3d	; 61
     da8:	9e b7       	in	r25, 0x3e	; 62
     daa:	08 97       	sbiw	r24, 0x08	; 8
     dac:	0f b6       	in	r0, 0x3f	; 63
     dae:	f8 94       	cli
     db0:	9e bf       	out	0x3e, r25	; 62
     db2:	0f be       	out	0x3f, r0	; 63
     db4:	8d bf       	out	0x3d, r24	; 61
     db6:	ed b7       	in	r30, 0x3d	; 61
     db8:	fe b7       	in	r31, 0x3e	; 62
     dba:	31 96       	adiw	r30, 0x01	; 1
     dbc:	80 e4       	ldi	r24, 0x40	; 64
     dbe:	91 e0       	ldi	r25, 0x01	; 1
     dc0:	ad b7       	in	r26, 0x3d	; 61
     dc2:	be b7       	in	r27, 0x3e	; 62
     dc4:	12 96       	adiw	r26, 0x02	; 2
     dc6:	9c 93       	st	X, r25
     dc8:	8e 93       	st	-X, r24
     dca:	11 97       	sbiw	r26, 0x01	; 1
     dcc:	86 e4       	ldi	r24, 0x46	; 70
     dce:	91 e0       	ldi	r25, 0x01	; 1
     dd0:	93 83       	std	Z+3, r25	; 0x03
     dd2:	82 83       	std	Z+2, r24	; 0x02
     dd4:	c4 82       	std	Z+4, r12	; 0x04
     dd6:	d5 82       	std	Z+5, r13	; 0x05
     dd8:	e6 82       	std	Z+6, r14	; 0x06
     dda:	f7 82       	std	Z+7, r15	; 0x07
     ddc:	0e 94 4b 0b 	call	0x1696	; 0x1696 <logger_syscall>
     de0:	f8 01       	movw	r30, r16
     de2:	91 83       	std	Z+1, r25	; 0x01
     de4:	80 83       	st	Z, r24
     de6:	8d b7       	in	r24, 0x3d	; 61
     de8:	9e b7       	in	r25, 0x3e	; 62
     dea:	08 96       	adiw	r24, 0x08	; 8
     dec:	0f b6       	in	r0, 0x3f	; 63
     dee:	f8 94       	cli
     df0:	9e bf       	out	0x3e, r25	; 62
     df2:	0f be       	out	0x3f, r0	; 63
     df4:	8d bf       	out	0x3d, r24	; 61
     df6:	c7 01       	movw	r24, r14
     df8:	b6 01       	movw	r22, r12
     dfa:	4b e2       	ldi	r20, 0x2B	; 43
     dfc:	57 e0       	ldi	r21, 0x07	; 7
     dfe:	98 01       	movw	r18, r16
     e00:	0e 94 b8 0e 	call	0x1d70	; 0x1d70 <dispatcher_enqueue>
     e04:	1f 91       	pop	r17
     e06:	0f 91       	pop	r16
     e08:	ff 90       	pop	r15
     e0a:	ef 90       	pop	r14
     e0c:	df 90       	pop	r13
     e0e:	cf 90       	pop	r12
     e10:	bf 90       	pop	r11
     e12:	af 90       	pop	r10
     e14:	9f 90       	pop	r9
     e16:	8f 90       	pop	r8
     e18:	08 95       	ret

00000e1a <cb_sensor_read>:
     e1a:	0f 93       	push	r16
     e1c:	1f 93       	push	r17
     e1e:	8c 01       	movw	r16, r24
     e20:	dc 01       	movw	r26, r24
     e22:	8d 91       	ld	r24, X+
     e24:	9c 91       	ld	r25, X
     e26:	0e 94 c0 0a 	call	0x1580	; 0x1580 <logger_syscall_return>
     e2a:	f8 01       	movw	r30, r16
     e2c:	66 81       	ldd	r22, Z+6	; 0x06
     e2e:	77 81       	ldd	r23, Z+7	; 0x07
     e30:	20 85       	ldd	r18, Z+8	; 0x08
     e32:	31 85       	ldd	r19, Z+9	; 0x09
     e34:	42 85       	ldd	r20, Z+10	; 0x0a
     e36:	53 85       	ldd	r21, Z+11	; 0x0b
     e38:	02 80       	ldd	r0, Z+2	; 0x02
     e3a:	f3 81       	ldd	r31, Z+3	; 0x03
     e3c:	e0 2d       	mov	r30, r0
     e3e:	d8 01       	movw	r26, r16
     e40:	14 96       	adiw	r26, 0x04	; 4
     e42:	8d 91       	ld	r24, X+
     e44:	9c 91       	ld	r25, X
     e46:	15 97       	sbiw	r26, 0x05	; 5
     e48:	09 95       	icall
     e4a:	c8 01       	movw	r24, r16
     e4c:	0e 94 c1 10 	call	0x2182	; 0x2182 <free>
     e50:	1f 91       	pop	r17
     e52:	0f 91       	pop	r16
     e54:	08 95       	ret

00000e56 <cb_default>:
     e56:	0f 93       	push	r16
     e58:	1f 93       	push	r17
     e5a:	8c 01       	movw	r16, r24
     e5c:	dc 01       	movw	r26, r24
     e5e:	8d 91       	ld	r24, X+
     e60:	9c 91       	ld	r25, X
     e62:	0e 94 c0 0a 	call	0x1580	; 0x1580 <logger_syscall_return>
     e66:	f8 01       	movw	r30, r16
     e68:	66 81       	ldd	r22, Z+6	; 0x06
     e6a:	77 81       	ldd	r23, Z+7	; 0x07
     e6c:	02 80       	ldd	r0, Z+2	; 0x02
     e6e:	f3 81       	ldd	r31, Z+3	; 0x03
     e70:	e0 2d       	mov	r30, r0
     e72:	d8 01       	movw	r26, r16
     e74:	14 96       	adiw	r26, 0x04	; 4
     e76:	8d 91       	ld	r24, X+
     e78:	9c 91       	ld	r25, X
     e7a:	15 97       	sbiw	r26, 0x05	; 5
     e7c:	09 95       	icall
     e7e:	c8 01       	movw	r24, r16
     e80:	0e 94 c1 10 	call	0x2182	; 0x2182 <free>
     e84:	1f 91       	pop	r17
     e86:	0f 91       	pop	r16
     e88:	08 95       	ret

00000e8a <cb_receive>:
     e8a:	0f 93       	push	r16
     e8c:	1f 93       	push	r17
     e8e:	8c 01       	movw	r16, r24
     e90:	dc 01       	movw	r26, r24
     e92:	8d 91       	ld	r24, X+
     e94:	9c 91       	ld	r25, X
     e96:	0e 94 c0 0a 	call	0x1580	; 0x1580 <logger_syscall_return>
     e9a:	f8 01       	movw	r30, r16
     e9c:	66 81       	ldd	r22, Z+6	; 0x06
     e9e:	77 81       	ldd	r23, Z+7	; 0x07
     ea0:	40 85       	ldd	r20, Z+8	; 0x08
     ea2:	51 85       	ldd	r21, Z+9	; 0x09
     ea4:	02 80       	ldd	r0, Z+2	; 0x02
     ea6:	f3 81       	ldd	r31, Z+3	; 0x03
     ea8:	e0 2d       	mov	r30, r0
     eaa:	d8 01       	movw	r26, r16
     eac:	14 96       	adiw	r26, 0x04	; 4
     eae:	8d 91       	ld	r24, X+
     eb0:	9c 91       	ld	r25, X
     eb2:	15 97       	sbiw	r26, 0x05	; 5
     eb4:	09 95       	icall
     eb6:	c8 01       	movw	r24, r16
     eb8:	0e 94 c1 10 	call	0x2182	; 0x2182 <free>
     ebc:	1f 91       	pop	r17
     ebe:	0f 91       	pop	r16
     ec0:	08 95       	ret

00000ec2 <os_flash_write>:
     ec2:	4f 92       	push	r4
     ec4:	5f 92       	push	r5
     ec6:	6f 92       	push	r6
     ec8:	7f 92       	push	r7
     eca:	8f 92       	push	r8
     ecc:	9f 92       	push	r9
     ece:	af 92       	push	r10
     ed0:	bf 92       	push	r11
     ed2:	cf 92       	push	r12
     ed4:	df 92       	push	r13
     ed6:	ef 92       	push	r14
     ed8:	ff 92       	push	r15
     eda:	0f 93       	push	r16
     edc:	1f 93       	push	r17
     ede:	cf 93       	push	r28
     ee0:	df 93       	push	r29
     ee2:	4c 01       	movw	r8, r24
     ee4:	3b 01       	movw	r6, r22
     ee6:	5a 01       	movw	r10, r20
     ee8:	52 2e       	mov	r5, r18
     eea:	43 2e       	mov	r4, r19
     eec:	68 01       	movw	r12, r16
     eee:	80 91 bc 12 	lds	r24, 0x12BC
     ef2:	90 91 bd 12 	lds	r25, 0x12BD
     ef6:	48 17       	cp	r20, r24
     ef8:	59 07       	cpc	r21, r25
     efa:	0c f0       	brlt	.+2      	; 0xefe <os_flash_write+0x3c>
     efc:	86 c0       	rjmp	.+268    	; 0x100a <os_flash_write+0x148>
     efe:	82 e0       	ldi	r24, 0x02	; 2
     f00:	94 e0       	ldi	r25, 0x04	; 4
     f02:	48 9f       	mul	r20, r24
     f04:	70 01       	movw	r14, r0
     f06:	49 9f       	mul	r20, r25
     f08:	f0 0c       	add	r15, r0
     f0a:	58 9f       	mul	r21, r24
     f0c:	f0 0c       	add	r15, r0
     f0e:	11 24       	eor	r1, r1
     f10:	87 01       	movw	r16, r14
     f12:	08 54       	subi	r16, 0x48	; 72
     f14:	11 4f       	sbci	r17, 0xF1	; 241
     f16:	d8 01       	movw	r26, r16
     f18:	8d 91       	ld	r24, X+
     f1a:	9c 91       	ld	r25, X
     f1c:	8c 0d       	add	r24, r12
     f1e:	9d 1d       	adc	r25, r13
     f20:	80 50       	subi	r24, 0x00	; 0
     f22:	94 40       	sbci	r25, 0x04	; 4
     f24:	08 f0       	brcs	.+2      	; 0xf28 <os_flash_write+0x66>
     f26:	71 c0       	rjmp	.+226    	; 0x100a <os_flash_write+0x148>
     f28:	88 e0       	ldi	r24, 0x08	; 8
     f2a:	90 e0       	ldi	r25, 0x00	; 0
     f2c:	0e 94 14 10 	call	0x2028	; 0x2028 <malloc>
     f30:	ec 01       	movw	r28, r24
     f32:	9b 82       	std	Y+3, r9	; 0x03
     f34:	8a 82       	std	Y+2, r8	; 0x02
     f36:	7d 82       	std	Y+5, r7	; 0x05
     f38:	6c 82       	std	Y+4, r6	; 0x04
     f3a:	0e 94 55 0f 	call	0x1eaa	; 0x1eaa <random_error>
     f3e:	9f 83       	std	Y+7, r25	; 0x07
     f40:	8e 83       	std	Y+6, r24	; 0x06
     f42:	89 2b       	or	r24, r25
     f44:	a9 f4       	brne	.+42     	; 0xf70 <os_flash_write+0xae>
     f46:	f8 01       	movw	r30, r16
     f48:	20 81       	ld	r18, Z
     f4a:	31 81       	ldd	r19, Z+1	; 0x01
     f4c:	2e 0d       	add	r18, r14
     f4e:	3f 1d       	adc	r19, r15
     f50:	28 54       	subi	r18, 0x48	; 72
     f52:	35 4f       	sbci	r19, 0xF5	; 245
     f54:	c9 01       	movw	r24, r18
     f56:	65 2d       	mov	r22, r5
     f58:	74 2d       	mov	r23, r4
     f5a:	a6 01       	movw	r20, r12
     f5c:	0e 94 89 11 	call	0x2312	; 0x2312 <memcpy>
     f60:	d8 01       	movw	r26, r16
     f62:	8d 91       	ld	r24, X+
     f64:	9c 91       	ld	r25, X
     f66:	11 97       	sbiw	r26, 0x01	; 1
     f68:	8c 0d       	add	r24, r12
     f6a:	9d 1d       	adc	r25, r13
     f6c:	8d 93       	st	X+, r24
     f6e:	9c 93       	st	X, r25
     f70:	81 e0       	ldi	r24, 0x01	; 1
     f72:	90 e0       	ldi	r25, 0x00	; 0
     f74:	67 e0       	ldi	r22, 0x07	; 7
     f76:	70 e0       	ldi	r23, 0x00	; 0
     f78:	0e 94 b0 0f 	call	0x1f60	; 0x1f60 <random_integer_range>
     f7c:	7c 01       	movw	r14, r24
     f7e:	85 2d       	mov	r24, r5
     f80:	94 2d       	mov	r25, r4
     f82:	b6 01       	movw	r22, r12
     f84:	0e 94 23 0a 	call	0x1446	; 0x1446 <array>
     f88:	ed b7       	in	r30, 0x3d	; 61
     f8a:	fe b7       	in	r31, 0x3e	; 62
     f8c:	38 97       	sbiw	r30, 0x08	; 8
     f8e:	0f b6       	in	r0, 0x3f	; 63
     f90:	f8 94       	cli
     f92:	fe bf       	out	0x3e, r31	; 62
     f94:	0f be       	out	0x3f, r0	; 63
     f96:	ed bf       	out	0x3d, r30	; 61
     f98:	31 96       	adiw	r30, 0x01	; 1
     f9a:	29 e4       	ldi	r18, 0x49	; 73
     f9c:	31 e0       	ldi	r19, 0x01	; 1
     f9e:	ad b7       	in	r26, 0x3d	; 61
     fa0:	be b7       	in	r27, 0x3e	; 62
     fa2:	12 96       	adiw	r26, 0x02	; 2
     fa4:	3c 93       	st	X, r19
     fa6:	2e 93       	st	-X, r18
     fa8:	11 97       	sbiw	r26, 0x01	; 1
     faa:	25 e5       	ldi	r18, 0x55	; 85
     fac:	31 e0       	ldi	r19, 0x01	; 1
     fae:	33 83       	std	Z+3, r19	; 0x03
     fb0:	22 83       	std	Z+2, r18	; 0x02
     fb2:	b5 82       	std	Z+5, r11	; 0x05
     fb4:	a4 82       	std	Z+4, r10	; 0x04
     fb6:	97 83       	std	Z+7, r25	; 0x07
     fb8:	86 83       	std	Z+6, r24	; 0x06
     fba:	0e 94 4b 0b 	call	0x1696	; 0x1696 <logger_syscall>
     fbe:	99 83       	std	Y+1, r25	; 0x01
     fc0:	88 83       	st	Y, r24
     fc2:	ed b7       	in	r30, 0x3d	; 61
     fc4:	fe b7       	in	r31, 0x3e	; 62
     fc6:	38 96       	adiw	r30, 0x08	; 8
     fc8:	0f b6       	in	r0, 0x3f	; 63
     fca:	f8 94       	cli
     fcc:	fe bf       	out	0x3e, r31	; 62
     fce:	0f be       	out	0x3f, r0	; 63
     fd0:	ed bf       	out	0x3d, r30	; 61
     fd2:	00 27       	eor	r16, r16
     fd4:	f7 fc       	sbrc	r15, 7
     fd6:	00 95       	com	r16
     fd8:	10 2f       	mov	r17, r16
     fda:	c8 01       	movw	r24, r16
     fdc:	b7 01       	movw	r22, r14
     fde:	4b e2       	ldi	r20, 0x2B	; 43
     fe0:	57 e0       	ldi	r21, 0x07	; 7
     fe2:	9e 01       	movw	r18, r28
     fe4:	0e 94 b8 0e 	call	0x1d70	; 0x1d70 <dispatcher_enqueue>
     fe8:	df 91       	pop	r29
     fea:	cf 91       	pop	r28
     fec:	1f 91       	pop	r17
     fee:	0f 91       	pop	r16
     ff0:	ff 90       	pop	r15
     ff2:	ef 90       	pop	r14
     ff4:	df 90       	pop	r13
     ff6:	cf 90       	pop	r12
     ff8:	bf 90       	pop	r11
     ffa:	af 90       	pop	r10
     ffc:	9f 90       	pop	r9
     ffe:	8f 90       	pop	r8
    1000:	7f 90       	pop	r7
    1002:	6f 90       	pop	r6
    1004:	5f 90       	pop	r5
    1006:	4f 90       	pop	r4
    1008:	08 95       	ret
    100a:	0e 94 84 11 	call	0x2308	; 0x2308 <abort>

0000100e <os_flash_read>:
    100e:	4f 92       	push	r4
    1010:	5f 92       	push	r5
    1012:	6f 92       	push	r6
    1014:	7f 92       	push	r7
    1016:	8f 92       	push	r8
    1018:	9f 92       	push	r9
    101a:	af 92       	push	r10
    101c:	bf 92       	push	r11
    101e:	cf 92       	push	r12
    1020:	df 92       	push	r13
    1022:	ef 92       	push	r14
    1024:	ff 92       	push	r15
    1026:	0f 93       	push	r16
    1028:	1f 93       	push	r17
    102a:	cf 93       	push	r28
    102c:	df 93       	push	r29
    102e:	6c 01       	movw	r12, r24
    1030:	4b 01       	movw	r8, r22
    1032:	5a 01       	movw	r10, r20
    1034:	52 2e       	mov	r5, r18
    1036:	43 2e       	mov	r4, r19
    1038:	38 01       	movw	r6, r16
    103a:	80 91 bc 12 	lds	r24, 0x12BC
    103e:	90 91 bd 12 	lds	r25, 0x12BD
    1042:	48 17       	cp	r20, r24
    1044:	59 07       	cpc	r21, r25
    1046:	0c f0       	brlt	.+2      	; 0x104a <os_flash_read+0x3c>
    1048:	90 c0       	rjmp	.+288    	; 0x116a <__stack+0x6b>
    104a:	82 e0       	ldi	r24, 0x02	; 2
    104c:	94 e0       	ldi	r25, 0x04	; 4
    104e:	48 9f       	mul	r20, r24
    1050:	e0 01       	movw	r28, r0
    1052:	49 9f       	mul	r20, r25
    1054:	d0 0d       	add	r29, r0
    1056:	58 9f       	mul	r21, r24
    1058:	d0 0d       	add	r29, r0
    105a:	11 24       	eor	r1, r1
    105c:	c8 54       	subi	r28, 0x48	; 72
    105e:	d5 4f       	sbci	r29, 0xF5	; 245
    1060:	e1 2c       	mov	r14, r1
    1062:	84 e0       	ldi	r24, 0x04	; 4
    1064:	f8 2e       	mov	r15, r24
    1066:	ec 0e       	add	r14, r28
    1068:	fd 1e       	adc	r15, r29
    106a:	d7 01       	movw	r26, r14
    106c:	8d 91       	ld	r24, X+
    106e:	9c 91       	ld	r25, X
    1070:	08 17       	cp	r16, r24
    1072:	19 07       	cpc	r17, r25
    1074:	08 f4       	brcc	.+2      	; 0x1078 <os_flash_read+0x6a>
    1076:	79 c0       	rjmp	.+242    	; 0x116a <__stack+0x6b>
    1078:	8a e0       	ldi	r24, 0x0A	; 10
    107a:	90 e0       	ldi	r25, 0x00	; 0
    107c:	0e 94 14 10 	call	0x2028	; 0x2028 <malloc>
    1080:	8c 01       	movw	r16, r24
    1082:	fc 01       	movw	r30, r24
    1084:	d3 82       	std	Z+3, r13	; 0x03
    1086:	c2 82       	std	Z+2, r12	; 0x02
    1088:	95 82       	std	Z+5, r9	; 0x05
    108a:	84 82       	std	Z+4, r8	; 0x04
    108c:	17 82       	std	Z+7, r1	; 0x07
    108e:	16 82       	std	Z+6, r1	; 0x06
    1090:	d7 01       	movw	r26, r14
    1092:	4d 91       	ld	r20, X+
    1094:	5c 91       	ld	r21, X
    1096:	85 2d       	mov	r24, r5
    1098:	94 2d       	mov	r25, r4
    109a:	be 01       	movw	r22, r28
    109c:	0e 94 89 11 	call	0x2312	; 0x2312 <memcpy>
    10a0:	f7 01       	movw	r30, r14
    10a2:	80 81       	ld	r24, Z
    10a4:	91 81       	ldd	r25, Z+1	; 0x01
    10a6:	d8 01       	movw	r26, r16
    10a8:	19 96       	adiw	r26, 0x09	; 9
    10aa:	9c 93       	st	X, r25
    10ac:	8e 93       	st	-X, r24
    10ae:	18 97       	sbiw	r26, 0x08	; 8
    10b0:	11 82       	std	Z+1, r1	; 0x01
    10b2:	10 82       	st	Z, r1
    10b4:	81 e0       	ldi	r24, 0x01	; 1
    10b6:	90 e0       	ldi	r25, 0x00	; 0
    10b8:	6a e0       	ldi	r22, 0x0A	; 10
    10ba:	70 e0       	ldi	r23, 0x00	; 0
    10bc:	0e 94 b0 0f 	call	0x1f60	; 0x1f60 <random_integer_range>
    10c0:	6c 01       	movw	r12, r24
    10c2:	f8 01       	movw	r30, r16
    10c4:	60 85       	ldd	r22, Z+8	; 0x08
    10c6:	71 85       	ldd	r23, Z+9	; 0x09
    10c8:	85 2d       	mov	r24, r5
    10ca:	94 2d       	mov	r25, r4
    10cc:	0e 94 23 0a 	call	0x1446	; 0x1446 <array>
    10d0:	2d b7       	in	r18, 0x3d	; 61
    10d2:	3e b7       	in	r19, 0x3e	; 62
    10d4:	2c 50       	subi	r18, 0x0C	; 12
    10d6:	30 40       	sbci	r19, 0x00	; 0
    10d8:	0f b6       	in	r0, 0x3f	; 63
    10da:	f8 94       	cli
    10dc:	3e bf       	out	0x3e, r19	; 62
    10de:	0f be       	out	0x3f, r0	; 63
    10e0:	2d bf       	out	0x3d, r18	; 61
    10e2:	ed b7       	in	r30, 0x3d	; 61
    10e4:	fe b7       	in	r31, 0x3e	; 62
    10e6:	31 96       	adiw	r30, 0x01	; 1
    10e8:	2c e5       	ldi	r18, 0x5C	; 92
    10ea:	31 e0       	ldi	r19, 0x01	; 1
    10ec:	ad b7       	in	r26, 0x3d	; 61
    10ee:	be b7       	in	r27, 0x3e	; 62
    10f0:	12 96       	adiw	r26, 0x02	; 2
    10f2:	3c 93       	st	X, r19
    10f4:	2e 93       	st	-X, r18
    10f6:	11 97       	sbiw	r26, 0x01	; 1
    10f8:	27 e6       	ldi	r18, 0x67	; 103
    10fa:	31 e0       	ldi	r19, 0x01	; 1
    10fc:	33 83       	std	Z+3, r19	; 0x03
    10fe:	22 83       	std	Z+2, r18	; 0x02
    1100:	b5 82       	std	Z+5, r11	; 0x05
    1102:	a4 82       	std	Z+4, r10	; 0x04
    1104:	93 01       	movw	r18, r6
    1106:	40 e0       	ldi	r20, 0x00	; 0
    1108:	50 e0       	ldi	r21, 0x00	; 0
    110a:	26 83       	std	Z+6, r18	; 0x06
    110c:	37 83       	std	Z+7, r19	; 0x07
    110e:	40 87       	std	Z+8, r20	; 0x08
    1110:	51 87       	std	Z+9, r21	; 0x09
    1112:	93 87       	std	Z+11, r25	; 0x0b
    1114:	82 87       	std	Z+10, r24	; 0x0a
    1116:	0e 94 4b 0b 	call	0x1696	; 0x1696 <logger_syscall>
    111a:	f8 01       	movw	r30, r16
    111c:	91 83       	std	Z+1, r25	; 0x01
    111e:	80 83       	st	Z, r24
    1120:	2d b7       	in	r18, 0x3d	; 61
    1122:	3e b7       	in	r19, 0x3e	; 62
    1124:	24 5f       	subi	r18, 0xF4	; 244
    1126:	3f 4f       	sbci	r19, 0xFF	; 255
    1128:	0f b6       	in	r0, 0x3f	; 63
    112a:	f8 94       	cli
    112c:	3e bf       	out	0x3e, r19	; 62
    112e:	0f be       	out	0x3f, r0	; 63
    1130:	2d bf       	out	0x3d, r18	; 61
    1132:	ee 24       	eor	r14, r14
    1134:	d7 fc       	sbrc	r13, 7
    1136:	e0 94       	com	r14
    1138:	fe 2c       	mov	r15, r14
    113a:	c7 01       	movw	r24, r14
    113c:	b6 01       	movw	r22, r12
    113e:	45 e4       	ldi	r20, 0x45	; 69
    1140:	57 e0       	ldi	r21, 0x07	; 7
    1142:	98 01       	movw	r18, r16
    1144:	0e 94 b8 0e 	call	0x1d70	; 0x1d70 <dispatcher_enqueue>
    1148:	df 91       	pop	r29
    114a:	cf 91       	pop	r28
    114c:	1f 91       	pop	r17
    114e:	0f 91       	pop	r16
    1150:	ff 90       	pop	r15
    1152:	ef 90       	pop	r14
    1154:	df 90       	pop	r13
    1156:	cf 90       	pop	r12
    1158:	bf 90       	pop	r11
    115a:	af 90       	pop	r10
    115c:	9f 90       	pop	r9
    115e:	8f 90       	pop	r8
    1160:	7f 90       	pop	r7
    1162:	6f 90       	pop	r6
    1164:	5f 90       	pop	r5
    1166:	4f 90       	pop	r4
    1168:	08 95       	ret
    116a:	0e 94 84 11 	call	0x2308	; 0x2308 <abort>

0000116e <os_send>:
    116e:	6f 92       	push	r6
    1170:	7f 92       	push	r7
    1172:	8f 92       	push	r8
    1174:	9f 92       	push	r9
    1176:	af 92       	push	r10
    1178:	bf 92       	push	r11
    117a:	cf 92       	push	r12
    117c:	df 92       	push	r13
    117e:	ef 92       	push	r14
    1180:	ff 92       	push	r15
    1182:	0f 93       	push	r16
    1184:	1f 93       	push	r17
    1186:	6c 01       	movw	r12, r24
    1188:	5b 01       	movw	r10, r22
    118a:	3a 01       	movw	r6, r20
    118c:	49 01       	movw	r8, r18
    118e:	88 e0       	ldi	r24, 0x08	; 8
    1190:	90 e0       	ldi	r25, 0x00	; 0
    1192:	0e 94 14 10 	call	0x2028	; 0x2028 <malloc>
    1196:	7c 01       	movw	r14, r24
    1198:	dc 01       	movw	r26, r24
    119a:	13 96       	adiw	r26, 0x03	; 3
    119c:	dc 92       	st	X, r13
    119e:	ce 92       	st	-X, r12
    11a0:	12 97       	sbiw	r26, 0x02	; 2
    11a2:	15 96       	adiw	r26, 0x05	; 5
    11a4:	bc 92       	st	X, r11
    11a6:	ae 92       	st	-X, r10
    11a8:	14 97       	sbiw	r26, 0x04	; 4
    11aa:	0e 94 55 0f 	call	0x1eaa	; 0x1eaa <random_error>
    11ae:	f7 01       	movw	r30, r14
    11b0:	97 83       	std	Z+7, r25	; 0x07
    11b2:	86 83       	std	Z+6, r24	; 0x06
    11b4:	81 e0       	ldi	r24, 0x01	; 1
    11b6:	90 e0       	ldi	r25, 0x00	; 0
    11b8:	65 e0       	ldi	r22, 0x05	; 5
    11ba:	70 e0       	ldi	r23, 0x00	; 0
    11bc:	0e 94 b0 0f 	call	0x1f60	; 0x1f60 <random_integer_range>
    11c0:	5c 01       	movw	r10, r24
    11c2:	c4 01       	movw	r24, r8
    11c4:	b8 01       	movw	r22, r16
    11c6:	0e 94 23 0a 	call	0x1446	; 0x1446 <array>
    11ca:	2d b7       	in	r18, 0x3d	; 61
    11cc:	3e b7       	in	r19, 0x3e	; 62
    11ce:	28 50       	subi	r18, 0x08	; 8
    11d0:	30 40       	sbci	r19, 0x00	; 0
    11d2:	0f b6       	in	r0, 0x3f	; 63
    11d4:	f8 94       	cli
    11d6:	3e bf       	out	0x3e, r19	; 62
    11d8:	0f be       	out	0x3f, r0	; 63
    11da:	2d bf       	out	0x3d, r18	; 61
    11dc:	ed b7       	in	r30, 0x3d	; 61
    11de:	fe b7       	in	r31, 0x3e	; 62
    11e0:	31 96       	adiw	r30, 0x01	; 1
    11e2:	23 e7       	ldi	r18, 0x73	; 115
    11e4:	31 e0       	ldi	r19, 0x01	; 1
    11e6:	ad b7       	in	r26, 0x3d	; 61
    11e8:	be b7       	in	r27, 0x3e	; 62
    11ea:	12 96       	adiw	r26, 0x02	; 2
    11ec:	3c 93       	st	X, r19
    11ee:	2e 93       	st	-X, r18
    11f0:	11 97       	sbiw	r26, 0x01	; 1
    11f2:	25 e5       	ldi	r18, 0x55	; 85
    11f4:	31 e0       	ldi	r19, 0x01	; 1
    11f6:	33 83       	std	Z+3, r19	; 0x03
    11f8:	22 83       	std	Z+2, r18	; 0x02
    11fa:	75 82       	std	Z+5, r7	; 0x05
    11fc:	64 82       	std	Z+4, r6	; 0x04
    11fe:	97 83       	std	Z+7, r25	; 0x07
    1200:	86 83       	std	Z+6, r24	; 0x06
    1202:	0e 94 4b 0b 	call	0x1696	; 0x1696 <logger_syscall>
    1206:	f7 01       	movw	r30, r14
    1208:	91 83       	std	Z+1, r25	; 0x01
    120a:	80 83       	st	Z, r24
    120c:	2d b7       	in	r18, 0x3d	; 61
    120e:	3e b7       	in	r19, 0x3e	; 62
    1210:	28 5f       	subi	r18, 0xF8	; 248
    1212:	3f 4f       	sbci	r19, 0xFF	; 255
    1214:	0f b6       	in	r0, 0x3f	; 63
    1216:	f8 94       	cli
    1218:	3e bf       	out	0x3e, r19	; 62
    121a:	0f be       	out	0x3f, r0	; 63
    121c:	2d bf       	out	0x3d, r18	; 61
    121e:	cc 24       	eor	r12, r12
    1220:	b7 fc       	sbrc	r11, 7
    1222:	c0 94       	com	r12
    1224:	dc 2c       	mov	r13, r12
    1226:	c6 01       	movw	r24, r12
    1228:	b5 01       	movw	r22, r10
    122a:	4b e2       	ldi	r20, 0x2B	; 43
    122c:	57 e0       	ldi	r21, 0x07	; 7
    122e:	97 01       	movw	r18, r14
    1230:	0e 94 b8 0e 	call	0x1d70	; 0x1d70 <dispatcher_enqueue>
    1234:	1f 91       	pop	r17
    1236:	0f 91       	pop	r16
    1238:	ff 90       	pop	r15
    123a:	ef 90       	pop	r14
    123c:	df 90       	pop	r13
    123e:	cf 90       	pop	r12
    1240:	bf 90       	pop	r11
    1242:	af 90       	pop	r10
    1244:	9f 90       	pop	r9
    1246:	8f 90       	pop	r8
    1248:	7f 90       	pop	r7
    124a:	6f 90       	pop	r6
    124c:	08 95       	ret

0000124e <os_receive>:
    124e:	4f 92       	push	r4
    1250:	5f 92       	push	r5
    1252:	6f 92       	push	r6
    1254:	7f 92       	push	r7
    1256:	8f 92       	push	r8
    1258:	9f 92       	push	r9
    125a:	af 92       	push	r10
    125c:	bf 92       	push	r11
    125e:	cf 92       	push	r12
    1260:	df 92       	push	r13
    1262:	ef 92       	push	r14
    1264:	ff 92       	push	r15
    1266:	0f 93       	push	r16
    1268:	1f 93       	push	r17
    126a:	7c 01       	movw	r14, r24
    126c:	6b 01       	movw	r12, r22
    126e:	2a 01       	movw	r4, r20
    1270:	39 01       	movw	r6, r18
    1272:	48 01       	movw	r8, r16
    1274:	8a e0       	ldi	r24, 0x0A	; 10
    1276:	90 e0       	ldi	r25, 0x00	; 0
    1278:	0e 94 14 10 	call	0x2028	; 0x2028 <malloc>
    127c:	8c 01       	movw	r16, r24
    127e:	dc 01       	movw	r26, r24
    1280:	13 96       	adiw	r26, 0x03	; 3
    1282:	fc 92       	st	X, r15
    1284:	ee 92       	st	-X, r14
    1286:	12 97       	sbiw	r26, 0x02	; 2
    1288:	15 96       	adiw	r26, 0x05	; 5
    128a:	dc 92       	st	X, r13
    128c:	ce 92       	st	-X, r12
    128e:	14 97       	sbiw	r26, 0x04	; 4
    1290:	0e 94 55 0f 	call	0x1eaa	; 0x1eaa <random_error>
    1294:	f8 01       	movw	r30, r16
    1296:	97 83       	std	Z+7, r25	; 0x07
    1298:	86 83       	std	Z+6, r24	; 0x06
    129a:	81 e0       	ldi	r24, 0x01	; 1
    129c:	90 e0       	ldi	r25, 0x00	; 0
    129e:	b4 01       	movw	r22, r8
    12a0:	0e 94 b0 0f 	call	0x1f60	; 0x1f60 <random_integer_range>
    12a4:	bc 01       	movw	r22, r24
    12a6:	d8 01       	movw	r26, r16
    12a8:	18 96       	adiw	r26, 0x08	; 8
    12aa:	8c 93       	st	X, r24
    12ac:	18 97       	sbiw	r26, 0x08	; 8
    12ae:	19 96       	adiw	r26, 0x09	; 9
    12b0:	7c 93       	st	X, r23
    12b2:	c3 01       	movw	r24, r6
    12b4:	0e 94 81 0f 	call	0x1f02	; 0x1f02 <random_string>
    12b8:	8a e0       	ldi	r24, 0x0A	; 10
    12ba:	90 e0       	ldi	r25, 0x00	; 0
    12bc:	68 ee       	ldi	r22, 0xE8	; 232
    12be:	73 e0       	ldi	r23, 0x03	; 3
    12c0:	0e 94 b0 0f 	call	0x1f60	; 0x1f60 <random_integer_range>
    12c4:	6c 01       	movw	r12, r24
    12c6:	f8 01       	movw	r30, r16
    12c8:	60 85       	ldd	r22, Z+8	; 0x08
    12ca:	71 85       	ldd	r23, Z+9	; 0x09
    12cc:	c3 01       	movw	r24, r6
    12ce:	0e 94 23 0a 	call	0x1446	; 0x1446 <array>
    12d2:	2d b7       	in	r18, 0x3d	; 61
    12d4:	3e b7       	in	r19, 0x3e	; 62
    12d6:	2c 50       	subi	r18, 0x0C	; 12
    12d8:	30 40       	sbci	r19, 0x00	; 0
    12da:	0f b6       	in	r0, 0x3f	; 63
    12dc:	f8 94       	cli
    12de:	3e bf       	out	0x3e, r19	; 62
    12e0:	0f be       	out	0x3f, r0	; 63
    12e2:	2d bf       	out	0x3d, r18	; 61
    12e4:	ed b7       	in	r30, 0x3d	; 61
    12e6:	fe b7       	in	r31, 0x3e	; 62
    12e8:	31 96       	adiw	r30, 0x01	; 1
    12ea:	28 e7       	ldi	r18, 0x78	; 120
    12ec:	31 e0       	ldi	r19, 0x01	; 1
    12ee:	ad b7       	in	r26, 0x3d	; 61
    12f0:	be b7       	in	r27, 0x3e	; 62
    12f2:	12 96       	adiw	r26, 0x02	; 2
    12f4:	3c 93       	st	X, r19
    12f6:	2e 93       	st	-X, r18
    12f8:	11 97       	sbiw	r26, 0x01	; 1
    12fa:	27 e6       	ldi	r18, 0x67	; 103
    12fc:	31 e0       	ldi	r19, 0x01	; 1
    12fe:	33 83       	std	Z+3, r19	; 0x03
    1300:	22 83       	std	Z+2, r18	; 0x02
    1302:	55 82       	std	Z+5, r5	; 0x05
    1304:	44 82       	std	Z+4, r4	; 0x04
    1306:	aa 24       	eor	r10, r10
    1308:	bb 24       	eor	r11, r11
    130a:	86 82       	std	Z+6, r8	; 0x06
    130c:	97 82       	std	Z+7, r9	; 0x07
    130e:	a0 86       	std	Z+8, r10	; 0x08
    1310:	b1 86       	std	Z+9, r11	; 0x09
    1312:	93 87       	std	Z+11, r25	; 0x0b
    1314:	82 87       	std	Z+10, r24	; 0x0a
    1316:	0e 94 4b 0b 	call	0x1696	; 0x1696 <logger_syscall>
    131a:	f8 01       	movw	r30, r16
    131c:	91 83       	std	Z+1, r25	; 0x01
    131e:	80 83       	st	Z, r24
    1320:	2d b7       	in	r18, 0x3d	; 61
    1322:	3e b7       	in	r19, 0x3e	; 62
    1324:	24 5f       	subi	r18, 0xF4	; 244
    1326:	3f 4f       	sbci	r19, 0xFF	; 255
    1328:	0f b6       	in	r0, 0x3f	; 63
    132a:	f8 94       	cli
    132c:	3e bf       	out	0x3e, r19	; 62
    132e:	0f be       	out	0x3f, r0	; 63
    1330:	2d bf       	out	0x3d, r18	; 61
    1332:	ee 24       	eor	r14, r14
    1334:	d7 fc       	sbrc	r13, 7
    1336:	e0 94       	com	r14
    1338:	fe 2c       	mov	r15, r14
    133a:	c7 01       	movw	r24, r14
    133c:	b6 01       	movw	r22, r12
    133e:	45 e4       	ldi	r20, 0x45	; 69
    1340:	57 e0       	ldi	r21, 0x07	; 7
    1342:	98 01       	movw	r18, r16
    1344:	0e 94 b8 0e 	call	0x1d70	; 0x1d70 <dispatcher_enqueue>
    1348:	1f 91       	pop	r17
    134a:	0f 91       	pop	r16
    134c:	ff 90       	pop	r15
    134e:	ef 90       	pop	r14
    1350:	df 90       	pop	r13
    1352:	cf 90       	pop	r12
    1354:	bf 90       	pop	r11
    1356:	af 90       	pop	r10
    1358:	9f 90       	pop	r9
    135a:	8f 90       	pop	r8
    135c:	7f 90       	pop	r7
    135e:	6f 90       	pop	r6
    1360:	5f 90       	pop	r5
    1362:	4f 90       	pop	r4
    1364:	08 95       	ret

00001366 <os_flash_open>:
    1366:	cf 92       	push	r12
    1368:	df 92       	push	r13
    136a:	ef 92       	push	r14
    136c:	ff 92       	push	r15
    136e:	0f 93       	push	r16
    1370:	1f 93       	push	r17
    1372:	cf 93       	push	r28
    1374:	df 93       	push	r29
    1376:	6c 01       	movw	r12, r24
    1378:	e0 90 bc 12 	lds	r14, 0x12BC
    137c:	f0 90 bd 12 	lds	r15, 0x12BD
    1380:	1e 14       	cp	r1, r14
    1382:	1f 04       	cpc	r1, r15
    1384:	ac f4       	brge	.+42     	; 0x13b0 <os_flash_open+0x4a>
    1386:	0e eb       	ldi	r16, 0xBE	; 190
    1388:	12 e1       	ldi	r17, 0x12	; 18
    138a:	c0 e0       	ldi	r28, 0x00	; 0
    138c:	d0 e0       	ldi	r29, 0x00	; 0
    138e:	06 c0       	rjmp	.+12     	; 0x139c <os_flash_open+0x36>
    1390:	21 96       	adiw	r28, 0x01	; 1
    1392:	0e 5f       	subi	r16, 0xFE	; 254
    1394:	1f 4f       	sbci	r17, 0xFF	; 255
    1396:	ce 15       	cp	r28, r14
    1398:	df 05       	cpc	r29, r15
    139a:	54 f4       	brge	.+20     	; 0x13b0 <os_flash_open+0x4a>
    139c:	f8 01       	movw	r30, r16
    139e:	60 81       	ld	r22, Z
    13a0:	71 81       	ldd	r23, Z+1	; 0x01
    13a2:	c6 01       	movw	r24, r12
    13a4:	0e 94 92 11 	call	0x2324	; 0x2324 <strcmp>
    13a8:	00 97       	sbiw	r24, 0x00	; 0
    13aa:	91 f7       	brne	.-28     	; 0x1390 <os_flash_open+0x2a>
    13ac:	7e 01       	movw	r14, r28
    13ae:	22 c0       	rjmp	.+68     	; 0x13f4 <os_flash_open+0x8e>
    13b0:	f2 e0       	ldi	r31, 0x02	; 2
    13b2:	ef 16       	cp	r14, r31
    13b4:	f1 04       	cpc	r15, r1
    13b6:	44 f5       	brge	.+80     	; 0x1408 <os_flash_open+0xa2>
    13b8:	f7 01       	movw	r30, r14
    13ba:	ee 0f       	add	r30, r30
    13bc:	ff 1f       	adc	r31, r31
    13be:	e2 54       	subi	r30, 0x42	; 66
    13c0:	fd 4e       	sbci	r31, 0xED	; 237
    13c2:	d1 82       	std	Z+1, r13	; 0x01
    13c4:	c0 82       	st	Z, r12
    13c6:	82 e0       	ldi	r24, 0x02	; 2
    13c8:	94 e0       	ldi	r25, 0x04	; 4
    13ca:	e8 9e       	mul	r14, r24
    13cc:	f0 01       	movw	r30, r0
    13ce:	e9 9e       	mul	r14, r25
    13d0:	f0 0d       	add	r31, r0
    13d2:	f8 9e       	mul	r15, r24
    13d4:	f0 0d       	add	r31, r0
    13d6:	11 24       	eor	r1, r1
    13d8:	e8 54       	subi	r30, 0x48	; 72
    13da:	f1 4f       	sbci	r31, 0xF1	; 241
    13dc:	11 82       	std	Z+1, r1	; 0x01
    13de:	10 82       	st	Z, r1
    13e0:	08 94       	sec
    13e2:	e1 1c       	adc	r14, r1
    13e4:	f1 1c       	adc	r15, r1
    13e6:	f0 92 bd 12 	sts	0x12BD, r15
    13ea:	e0 92 bc 12 	sts	0x12BC, r14
    13ee:	08 94       	sec
    13f0:	e1 08       	sbc	r14, r1
    13f2:	f1 08       	sbc	r15, r1
    13f4:	c7 01       	movw	r24, r14
    13f6:	df 91       	pop	r29
    13f8:	cf 91       	pop	r28
    13fa:	1f 91       	pop	r17
    13fc:	0f 91       	pop	r16
    13fe:	ff 90       	pop	r15
    1400:	ef 90       	pop	r14
    1402:	df 90       	pop	r13
    1404:	cf 90       	pop	r12
    1406:	08 95       	ret
    1408:	0e 94 84 11 	call	0x2308	; 0x2308 <abort>

0000140c <os_now>:
    140c:	0e 94 a8 0d 	call	0x1b50	; 0x1b50 <dispatcher_now>
    1410:	08 95       	ret

00001412 <os_run>:
    1412:	0e 94 b1 0d 	call	0x1b62	; 0x1b62 <dispatcher_run>
    1416:	08 95       	ret

00001418 <os_init>:
    1418:	10 92 b7 0a 	sts	0x0AB7, r1
    141c:	10 92 b6 0a 	sts	0x0AB6, r1
    1420:	10 92 bd 12 	sts	0x12BD, r1
    1424:	10 92 bc 12 	sts	0x12BC, r1
    1428:	10 92 bf 12 	sts	0x12BF, r1
    142c:	10 92 be 12 	sts	0x12BE, r1
    1430:	10 92 c1 12 	sts	0x12C1, r1
    1434:	10 92 c0 12 	sts	0x12C0, r1
    1438:	0e 94 72 0d 	call	0x1ae4	; 0x1ae4 <logger_init>
    143c:	0e 94 0c 0f 	call	0x1e18	; 0x1e18 <dispatcher_init>
    1440:	0e 94 c6 0f 	call	0x1f8c	; 0x1f8c <random_init>
    1444:	08 95       	ret

00001446 <array>:
    1446:	6f 92       	push	r6
    1448:	7f 92       	push	r7
    144a:	8f 92       	push	r8
    144c:	9f 92       	push	r9
    144e:	af 92       	push	r10
    1450:	bf 92       	push	r11
    1452:	cf 92       	push	r12
    1454:	df 92       	push	r13
    1456:	ef 92       	push	r14
    1458:	ff 92       	push	r15
    145a:	0f 93       	push	r16
    145c:	1f 93       	push	r17
    145e:	cf 93       	push	r28
    1460:	df 93       	push	r29
    1462:	3c 01       	movw	r6, r24
    1464:	6b 01       	movw	r12, r22
    1466:	8d b7       	in	r24, 0x3d	; 61
    1468:	9e b7       	in	r25, 0x3e	; 62
    146a:	0a 97       	sbiw	r24, 0x0a	; 10
    146c:	0f b6       	in	r0, 0x3f	; 63
    146e:	f8 94       	cli
    1470:	9e bf       	out	0x3e, r25	; 62
    1472:	0f be       	out	0x3f, r0	; 63
    1474:	8d bf       	out	0x3d, r24	; 61
    1476:	ed b7       	in	r30, 0x3d	; 61
    1478:	fe b7       	in	r31, 0x3e	; 62
    147a:	31 96       	adiw	r30, 0x01	; 1
    147c:	84 e2       	ldi	r24, 0x24	; 36
    147e:	92 e0       	ldi	r25, 0x02	; 2
    1480:	ad b7       	in	r26, 0x3d	; 61
    1482:	be b7       	in	r27, 0x3e	; 62
    1484:	12 96       	adiw	r26, 0x02	; 2
    1486:	9c 93       	st	X, r25
    1488:	8e 93       	st	-X, r24
    148a:	11 97       	sbiw	r26, 0x01	; 1
    148c:	80 e0       	ldi	r24, 0x00	; 0
    148e:	94 e0       	ldi	r25, 0x04	; 4
    1490:	93 83       	std	Z+3, r25	; 0x03
    1492:	82 83       	std	Z+2, r24	; 0x02
    1494:	80 e8       	ldi	r24, 0x80	; 128
    1496:	91 e0       	ldi	r25, 0x01	; 1
    1498:	95 83       	std	Z+5, r25	; 0x05
    149a:	84 83       	std	Z+4, r24	; 0x04
    149c:	cb 01       	movw	r24, r22
    149e:	a0 e0       	ldi	r26, 0x00	; 0
    14a0:	b0 e0       	ldi	r27, 0x00	; 0
    14a2:	86 83       	std	Z+6, r24	; 0x06
    14a4:	97 83       	std	Z+7, r25	; 0x07
    14a6:	a0 87       	std	Z+8, r26	; 0x08
    14a8:	b1 87       	std	Z+9, r27	; 0x09
    14aa:	0e 94 9b 11 	call	0x2336	; 0x2336 <snprintf>
    14ae:	7c 01       	movw	r14, r24
    14b0:	ed b7       	in	r30, 0x3d	; 61
    14b2:	fe b7       	in	r31, 0x3e	; 62
    14b4:	3a 96       	adiw	r30, 0x0a	; 10
    14b6:	0f b6       	in	r0, 0x3f	; 63
    14b8:	f8 94       	cli
    14ba:	fe bf       	out	0x3e, r31	; 62
    14bc:	0f be       	out	0x3f, r0	; 63
    14be:	ed bf       	out	0x3d, r30	; 61
    14c0:	f4 e0       	ldi	r31, 0x04	; 4
    14c2:	80 30       	cpi	r24, 0x00	; 0
    14c4:	9f 07       	cpc	r25, r31
    14c6:	08 f0       	brcs	.+2      	; 0x14ca <array+0x84>
    14c8:	59 c0       	rjmp	.+178    	; 0x157c <array+0x136>
    14ca:	c1 14       	cp	r12, r1
    14cc:	d1 04       	cpc	r13, r1
    14ce:	09 f4       	brne	.+2      	; 0x14d2 <array+0x8c>
    14d0:	44 c0       	rjmp	.+136    	; 0x155a <array+0x114>
    14d2:	c0 e0       	ldi	r28, 0x00	; 0
    14d4:	d0 e0       	ldi	r29, 0x00	; 0
    14d6:	99 e8       	ldi	r25, 0x89	; 137
    14d8:	89 2e       	mov	r8, r25
    14da:	91 e0       	ldi	r25, 0x01	; 1
    14dc:	99 2e       	mov	r9, r25
    14de:	a1 2c       	mov	r10, r1
    14e0:	84 e0       	ldi	r24, 0x04	; 4
    14e2:	b8 2e       	mov	r11, r24
    14e4:	02 c0       	rjmp	.+4      	; 0x14ea <array+0xa4>
    14e6:	e2 0e       	add	r14, r18
    14e8:	f3 1e       	adc	r15, r19
    14ea:	85 01       	movw	r16, r10
    14ec:	0e 19       	sub	r16, r14
    14ee:	1f 09       	sbc	r17, r15
    14f0:	8d b7       	in	r24, 0x3d	; 61
    14f2:	9e b7       	in	r25, 0x3e	; 62
    14f4:	08 97       	sbiw	r24, 0x08	; 8
    14f6:	0f b6       	in	r0, 0x3f	; 63
    14f8:	f8 94       	cli
    14fa:	9e bf       	out	0x3e, r25	; 62
    14fc:	0f be       	out	0x3f, r0	; 63
    14fe:	8d bf       	out	0x3d, r24	; 61
    1500:	ad b7       	in	r26, 0x3d	; 61
    1502:	be b7       	in	r27, 0x3e	; 62
    1504:	11 96       	adiw	r26, 0x01	; 1
    1506:	c7 01       	movw	r24, r14
    1508:	8c 5d       	subi	r24, 0xDC	; 220
    150a:	9d 4f       	sbci	r25, 0xFD	; 253
    150c:	ed b7       	in	r30, 0x3d	; 61
    150e:	fe b7       	in	r31, 0x3e	; 62
    1510:	92 83       	std	Z+2, r25	; 0x02
    1512:	81 83       	std	Z+1, r24	; 0x01
    1514:	13 96       	adiw	r26, 0x03	; 3
    1516:	1c 93       	st	X, r17
    1518:	0e 93       	st	-X, r16
    151a:	12 97       	sbiw	r26, 0x02	; 2
    151c:	15 96       	adiw	r26, 0x05	; 5
    151e:	9c 92       	st	X, r9
    1520:	8e 92       	st	-X, r8
    1522:	14 97       	sbiw	r26, 0x04	; 4
    1524:	f3 01       	movw	r30, r6
    1526:	ec 0f       	add	r30, r28
    1528:	fd 1f       	adc	r31, r29
    152a:	80 81       	ld	r24, Z
    152c:	16 96       	adiw	r26, 0x06	; 6
    152e:	8c 93       	st	X, r24
    1530:	16 97       	sbiw	r26, 0x06	; 6
    1532:	17 96       	adiw	r26, 0x07	; 7
    1534:	1c 92       	st	X, r1
    1536:	0e 94 9b 11 	call	0x2336	; 0x2336 <snprintf>
    153a:	9c 01       	movw	r18, r24
    153c:	8d b7       	in	r24, 0x3d	; 61
    153e:	9e b7       	in	r25, 0x3e	; 62
    1540:	08 96       	adiw	r24, 0x08	; 8
    1542:	0f b6       	in	r0, 0x3f	; 63
    1544:	f8 94       	cli
    1546:	9e bf       	out	0x3e, r25	; 62
    1548:	0f be       	out	0x3f, r0	; 63
    154a:	8d bf       	out	0x3d, r24	; 61
    154c:	20 17       	cp	r18, r16
    154e:	31 07       	cpc	r19, r17
    1550:	a8 f4       	brcc	.+42     	; 0x157c <array+0x136>
    1552:	21 96       	adiw	r28, 0x01	; 1
    1554:	cc 15       	cp	r28, r12
    1556:	dd 05       	cpc	r29, r13
    1558:	30 f2       	brcs	.-116    	; 0x14e6 <array+0xa0>
    155a:	84 e2       	ldi	r24, 0x24	; 36
    155c:	92 e0       	ldi	r25, 0x02	; 2
    155e:	df 91       	pop	r29
    1560:	cf 91       	pop	r28
    1562:	1f 91       	pop	r17
    1564:	0f 91       	pop	r16
    1566:	ff 90       	pop	r15
    1568:	ef 90       	pop	r14
    156a:	df 90       	pop	r13
    156c:	cf 90       	pop	r12
    156e:	bf 90       	pop	r11
    1570:	af 90       	pop	r10
    1572:	9f 90       	pop	r9
    1574:	8f 90       	pop	r8
    1576:	7f 90       	pop	r7
    1578:	6f 90       	pop	r6
    157a:	08 95       	ret
    157c:	0e 94 84 11 	call	0x2308	; 0x2308 <abort>

00001580 <logger_syscall_return>:
    1580:	6f 92       	push	r6
    1582:	7f 92       	push	r7
    1584:	8f 92       	push	r8
    1586:	9f 92       	push	r9
    1588:	af 92       	push	r10
    158a:	bf 92       	push	r11
    158c:	cf 92       	push	r12
    158e:	df 92       	push	r13
    1590:	ef 92       	push	r14
    1592:	ff 92       	push	r15
    1594:	0f 93       	push	r16
    1596:	1f 93       	push	r17
    1598:	df 93       	push	r29
    159a:	cf 93       	push	r28
    159c:	cd b7       	in	r28, 0x3d	; 61
    159e:	de b7       	in	r29, 0x3e	; 62
    15a0:	4c 01       	movw	r8, r24
    15a2:	6d b6       	in	r6, 0x3d	; 61
    15a4:	7e b6       	in	r7, 0x3e	; 62
    15a6:	0e 94 a8 0d 	call	0x1b50	; 0x1b50 <dispatcher_now>
    15aa:	6b 01       	movw	r12, r22
    15ac:	7c 01       	movw	r14, r24
    15ae:	2d b7       	in	r18, 0x3d	; 61
    15b0:	3e b7       	in	r19, 0x3e	; 62
    15b2:	2c 50       	subi	r18, 0x0C	; 12
    15b4:	30 40       	sbci	r19, 0x00	; 0
    15b6:	0f b6       	in	r0, 0x3f	; 63
    15b8:	f8 94       	cli
    15ba:	3e bf       	out	0x3e, r19	; 62
    15bc:	0f be       	out	0x3f, r0	; 63
    15be:	2d bf       	out	0x3d, r18	; 61
    15c0:	ed b7       	in	r30, 0x3d	; 61
    15c2:	fe b7       	in	r31, 0x3e	; 62
    15c4:	31 96       	adiw	r30, 0x01	; 1
    15c6:	ad b7       	in	r26, 0x3d	; 61
    15c8:	be b7       	in	r27, 0x3e	; 62
    15ca:	12 96       	adiw	r26, 0x02	; 2
    15cc:	1c 92       	st	X, r1
    15ce:	1e 92       	st	-X, r1
    15d0:	11 97       	sbiw	r26, 0x01	; 1
    15d2:	13 82       	std	Z+3, r1	; 0x03
    15d4:	12 82       	std	Z+2, r1	; 0x02
    15d6:	2c e8       	ldi	r18, 0x8C	; 140
    15d8:	a2 2e       	mov	r10, r18
    15da:	21 e0       	ldi	r18, 0x01	; 1
    15dc:	b2 2e       	mov	r11, r18
    15de:	b5 82       	std	Z+5, r11	; 0x05
    15e0:	a4 82       	std	Z+4, r10	; 0x04
    15e2:	66 83       	std	Z+6, r22	; 0x06
    15e4:	77 83       	std	Z+7, r23	; 0x07
    15e6:	80 87       	std	Z+8, r24	; 0x08
    15e8:	91 87       	std	Z+9, r25	; 0x09
    15ea:	93 86       	std	Z+11, r9	; 0x0b
    15ec:	82 86       	std	Z+10, r8	; 0x0a
    15ee:	0e 94 9b 11 	call	0x2336	; 0x2336 <snprintf>
    15f2:	01 96       	adiw	r24, 0x01	; 1
    15f4:	2d b7       	in	r18, 0x3d	; 61
    15f6:	3e b7       	in	r19, 0x3e	; 62
    15f8:	24 5f       	subi	r18, 0xF4	; 244
    15fa:	3f 4f       	sbci	r19, 0xFF	; 255
    15fc:	0f b6       	in	r0, 0x3f	; 63
    15fe:	f8 94       	cli
    1600:	3e bf       	out	0x3e, r19	; 62
    1602:	0f be       	out	0x3f, r0	; 63
    1604:	2d bf       	out	0x3d, r18	; 61
    1606:	ad b7       	in	r26, 0x3d	; 61
    1608:	be b7       	in	r27, 0x3e	; 62
    160a:	a8 1b       	sub	r26, r24
    160c:	b9 0b       	sbc	r27, r25
    160e:	0f b6       	in	r0, 0x3f	; 63
    1610:	f8 94       	cli
    1612:	be bf       	out	0x3e, r27	; 62
    1614:	0f be       	out	0x3f, r0	; 63
    1616:	ad bf       	out	0x3d, r26	; 61
    1618:	0d b7       	in	r16, 0x3d	; 61
    161a:	1e b7       	in	r17, 0x3e	; 62
    161c:	0f 5f       	subi	r16, 0xFF	; 255
    161e:	1f 4f       	sbci	r17, 0xFF	; 255
    1620:	2d b7       	in	r18, 0x3d	; 61
    1622:	3e b7       	in	r19, 0x3e	; 62
    1624:	2a 50       	subi	r18, 0x0A	; 10
    1626:	30 40       	sbci	r19, 0x00	; 0
    1628:	0f b6       	in	r0, 0x3f	; 63
    162a:	f8 94       	cli
    162c:	3e bf       	out	0x3e, r19	; 62
    162e:	0f be       	out	0x3f, r0	; 63
    1630:	2d bf       	out	0x3d, r18	; 61
    1632:	ed b7       	in	r30, 0x3d	; 61
    1634:	fe b7       	in	r31, 0x3e	; 62
    1636:	31 96       	adiw	r30, 0x01	; 1
    1638:	ad b7       	in	r26, 0x3d	; 61
    163a:	be b7       	in	r27, 0x3e	; 62
    163c:	11 96       	adiw	r26, 0x01	; 1
    163e:	0c 93       	st	X, r16
    1640:	11 83       	std	Z+1, r17	; 0x01
    1642:	b3 82       	std	Z+3, r11	; 0x03
    1644:	a2 82       	std	Z+2, r10	; 0x02
    1646:	c4 82       	std	Z+4, r12	; 0x04
    1648:	d5 82       	std	Z+5, r13	; 0x05
    164a:	e6 82       	std	Z+6, r14	; 0x06
    164c:	f7 82       	std	Z+7, r15	; 0x07
    164e:	91 86       	std	Z+9, r9	; 0x09
    1650:	80 86       	std	Z+8, r8	; 0x08
    1652:	0e 94 d9 11 	call	0x23b2	; 0x23b2 <sprintf>
    1656:	2d b7       	in	r18, 0x3d	; 61
    1658:	3e b7       	in	r19, 0x3e	; 62
    165a:	26 5f       	subi	r18, 0xF6	; 246
    165c:	3f 4f       	sbci	r19, 0xFF	; 255
    165e:	0f b6       	in	r0, 0x3f	; 63
    1660:	f8 94       	cli
    1662:	3e bf       	out	0x3e, r19	; 62
    1664:	0f be       	out	0x3f, r0	; 63
    1666:	2d bf       	out	0x3d, r18	; 61
    1668:	c8 01       	movw	r24, r16
    166a:	0e 94 78 0d 	call	0x1af0	; 0x1af0 <logger_platform_trace>
    166e:	0f b6       	in	r0, 0x3f	; 63
    1670:	f8 94       	cli
    1672:	7e be       	out	0x3e, r7	; 62
    1674:	0f be       	out	0x3f, r0	; 63
    1676:	6d be       	out	0x3d, r6	; 61
    1678:	cf 91       	pop	r28
    167a:	df 91       	pop	r29
    167c:	1f 91       	pop	r17
    167e:	0f 91       	pop	r16
    1680:	ff 90       	pop	r15
    1682:	ef 90       	pop	r14
    1684:	df 90       	pop	r13
    1686:	cf 90       	pop	r12
    1688:	bf 90       	pop	r11
    168a:	af 90       	pop	r10
    168c:	9f 90       	pop	r9
    168e:	8f 90       	pop	r8
    1690:	7f 90       	pop	r7
    1692:	6f 90       	pop	r6
    1694:	08 95       	ret

00001696 <logger_syscall>:
    1696:	4f 92       	push	r4
    1698:	5f 92       	push	r5
    169a:	6f 92       	push	r6
    169c:	7f 92       	push	r7
    169e:	8f 92       	push	r8
    16a0:	9f 92       	push	r9
    16a2:	af 92       	push	r10
    16a4:	bf 92       	push	r11
    16a6:	cf 92       	push	r12
    16a8:	df 92       	push	r13
    16aa:	ef 92       	push	r14
    16ac:	ff 92       	push	r15
    16ae:	0f 93       	push	r16
    16b0:	1f 93       	push	r17
    16b2:	df 93       	push	r29
    16b4:	cf 93       	push	r28
    16b6:	cd b7       	in	r28, 0x3d	; 61
    16b8:	de b7       	in	r29, 0x3e	; 62
    16ba:	6b 88       	ldd	r6, Y+19	; 0x13
    16bc:	7c 88       	ldd	r7, Y+20	; 0x14
    16be:	cd 88       	ldd	r12, Y+21	; 0x15
    16c0:	de 88       	ldd	r13, Y+22	; 0x16
    16c2:	4d b6       	in	r4, 0x3d	; 61
    16c4:	5e b6       	in	r5, 0x3e	; 62
    16c6:	8e 01       	movw	r16, r28
    16c8:	09 5e       	subi	r16, 0xE9	; 233
    16ca:	1f 4f       	sbci	r17, 0xFF	; 255
    16cc:	0e 94 a8 0d 	call	0x1b50	; 0x1b50 <dispatcher_now>
    16d0:	4b 01       	movw	r8, r22
    16d2:	5c 01       	movw	r10, r24
    16d4:	80 e0       	ldi	r24, 0x00	; 0
    16d6:	90 e0       	ldi	r25, 0x00	; 0
    16d8:	60 e0       	ldi	r22, 0x00	; 0
    16da:	70 e0       	ldi	r23, 0x00	; 0
    16dc:	a6 01       	movw	r20, r12
    16de:	98 01       	movw	r18, r16
    16e0:	0e 94 0a 12 	call	0x2414	; 0x2414 <vsnprintf>
    16e4:	01 96       	adiw	r24, 0x01	; 1
    16e6:	2d b7       	in	r18, 0x3d	; 61
    16e8:	3e b7       	in	r19, 0x3e	; 62
    16ea:	28 1b       	sub	r18, r24
    16ec:	39 0b       	sbc	r19, r25
    16ee:	0f b6       	in	r0, 0x3f	; 63
    16f0:	f8 94       	cli
    16f2:	3e bf       	out	0x3e, r19	; 62
    16f4:	0f be       	out	0x3f, r0	; 63
    16f6:	2d bf       	out	0x3d, r18	; 61
    16f8:	ed b6       	in	r14, 0x3d	; 61
    16fa:	fe b6       	in	r15, 0x3e	; 62
    16fc:	08 94       	sec
    16fe:	e1 1c       	adc	r14, r1
    1700:	f1 1c       	adc	r15, r1
    1702:	c7 01       	movw	r24, r14
    1704:	b6 01       	movw	r22, r12
    1706:	a8 01       	movw	r20, r16
    1708:	0e 94 41 12 	call	0x2482	; 0x2482 <vsprintf>
    170c:	8d b7       	in	r24, 0x3d	; 61
    170e:	9e b7       	in	r25, 0x3e	; 62
    1710:	40 97       	sbiw	r24, 0x10	; 16
    1712:	0f b6       	in	r0, 0x3f	; 63
    1714:	f8 94       	cli
    1716:	9e bf       	out	0x3e, r25	; 62
    1718:	0f be       	out	0x3f, r0	; 63
    171a:	8d bf       	out	0x3d, r24	; 61
    171c:	ed b7       	in	r30, 0x3d	; 61
    171e:	fe b7       	in	r31, 0x3e	; 62
    1720:	31 96       	adiw	r30, 0x01	; 1
    1722:	ad b7       	in	r26, 0x3d	; 61
    1724:	be b7       	in	r27, 0x3e	; 62
    1726:	12 96       	adiw	r26, 0x02	; 2
    1728:	1c 92       	st	X, r1
    172a:	1e 92       	st	-X, r1
    172c:	11 97       	sbiw	r26, 0x01	; 1
    172e:	13 82       	std	Z+3, r1	; 0x03
    1730:	12 82       	std	Z+2, r1	; 0x02
    1732:	38 e9       	ldi	r19, 0x98	; 152
    1734:	c3 2e       	mov	r12, r19
    1736:	31 e0       	ldi	r19, 0x01	; 1
    1738:	d3 2e       	mov	r13, r19
    173a:	d5 82       	std	Z+5, r13	; 0x05
    173c:	c4 82       	std	Z+4, r12	; 0x04
    173e:	86 82       	std	Z+6, r8	; 0x06
    1740:	97 82       	std	Z+7, r9	; 0x07
    1742:	a0 86       	std	Z+8, r10	; 0x08
    1744:	b1 86       	std	Z+9, r11	; 0x09
    1746:	80 91 24 06 	lds	r24, 0x0624
    174a:	90 91 25 06 	lds	r25, 0x0625
    174e:	93 87       	std	Z+11, r25	; 0x0b
    1750:	82 87       	std	Z+10, r24	; 0x0a
    1752:	75 86       	std	Z+13, r7	; 0x0d
    1754:	64 86       	std	Z+12, r6	; 0x0c
    1756:	e6 86       	std	Z+14, r14	; 0x0e
    1758:	f7 86       	std	Z+15, r15	; 0x0f
    175a:	0e 94 9b 11 	call	0x2336	; 0x2336 <snprintf>
    175e:	01 96       	adiw	r24, 0x01	; 1
    1760:	2d b7       	in	r18, 0x3d	; 61
    1762:	3e b7       	in	r19, 0x3e	; 62
    1764:	20 5f       	subi	r18, 0xF0	; 240
    1766:	3f 4f       	sbci	r19, 0xFF	; 255
    1768:	0f b6       	in	r0, 0x3f	; 63
    176a:	f8 94       	cli
    176c:	3e bf       	out	0x3e, r19	; 62
    176e:	0f be       	out	0x3f, r0	; 63
    1770:	2d bf       	out	0x3d, r18	; 61
    1772:	ad b7       	in	r26, 0x3d	; 61
    1774:	be b7       	in	r27, 0x3e	; 62
    1776:	a8 1b       	sub	r26, r24
    1778:	b9 0b       	sbc	r27, r25
    177a:	0f b6       	in	r0, 0x3f	; 63
    177c:	f8 94       	cli
    177e:	be bf       	out	0x3e, r27	; 62
    1780:	0f be       	out	0x3f, r0	; 63
    1782:	ad bf       	out	0x3d, r26	; 61
    1784:	0d b7       	in	r16, 0x3d	; 61
    1786:	1e b7       	in	r17, 0x3e	; 62
    1788:	0f 5f       	subi	r16, 0xFF	; 255
    178a:	1f 4f       	sbci	r17, 0xFF	; 255
    178c:	2d b7       	in	r18, 0x3d	; 61
    178e:	3e b7       	in	r19, 0x3e	; 62
    1790:	2e 50       	subi	r18, 0x0E	; 14
    1792:	30 40       	sbci	r19, 0x00	; 0
    1794:	0f b6       	in	r0, 0x3f	; 63
    1796:	f8 94       	cli
    1798:	3e bf       	out	0x3e, r19	; 62
    179a:	0f be       	out	0x3f, r0	; 63
    179c:	2d bf       	out	0x3d, r18	; 61
    179e:	ed b7       	in	r30, 0x3d	; 61
    17a0:	fe b7       	in	r31, 0x3e	; 62
    17a2:	31 96       	adiw	r30, 0x01	; 1
    17a4:	ad b7       	in	r26, 0x3d	; 61
    17a6:	be b7       	in	r27, 0x3e	; 62
    17a8:	11 96       	adiw	r26, 0x01	; 1
    17aa:	0c 93       	st	X, r16
    17ac:	11 83       	std	Z+1, r17	; 0x01
    17ae:	d3 82       	std	Z+3, r13	; 0x03
    17b0:	c2 82       	std	Z+2, r12	; 0x02
    17b2:	84 82       	std	Z+4, r8	; 0x04
    17b4:	95 82       	std	Z+5, r9	; 0x05
    17b6:	a6 82       	std	Z+6, r10	; 0x06
    17b8:	b7 82       	std	Z+7, r11	; 0x07
    17ba:	80 91 24 06 	lds	r24, 0x0624
    17be:	90 91 25 06 	lds	r25, 0x0625
    17c2:	91 87       	std	Z+9, r25	; 0x09
    17c4:	80 87       	std	Z+8, r24	; 0x08
    17c6:	73 86       	std	Z+11, r7	; 0x0b
    17c8:	62 86       	std	Z+10, r6	; 0x0a
    17ca:	e4 86       	std	Z+12, r14	; 0x0c
    17cc:	f5 86       	std	Z+13, r15	; 0x0d
    17ce:	0e 94 d9 11 	call	0x23b2	; 0x23b2 <sprintf>
    17d2:	2d b7       	in	r18, 0x3d	; 61
    17d4:	3e b7       	in	r19, 0x3e	; 62
    17d6:	22 5f       	subi	r18, 0xF2	; 242
    17d8:	3f 4f       	sbci	r19, 0xFF	; 255
    17da:	0f b6       	in	r0, 0x3f	; 63
    17dc:	f8 94       	cli
    17de:	3e bf       	out	0x3e, r19	; 62
    17e0:	0f be       	out	0x3f, r0	; 63
    17e2:	2d bf       	out	0x3d, r18	; 61
    17e4:	c8 01       	movw	r24, r16
    17e6:	0e 94 78 0d 	call	0x1af0	; 0x1af0 <logger_platform_trace>
    17ea:	20 91 24 06 	lds	r18, 0x0624
    17ee:	30 91 25 06 	lds	r19, 0x0625
    17f2:	2f 5f       	subi	r18, 0xFF	; 255
    17f4:	3f 4f       	sbci	r19, 0xFF	; 255
    17f6:	30 93 25 06 	sts	0x0625, r19
    17fa:	20 93 24 06 	sts	0x0624, r18
    17fe:	21 50       	subi	r18, 0x01	; 1
    1800:	30 40       	sbci	r19, 0x00	; 0
    1802:	c9 01       	movw	r24, r18
    1804:	0f b6       	in	r0, 0x3f	; 63
    1806:	f8 94       	cli
    1808:	5e be       	out	0x3e, r5	; 62
    180a:	0f be       	out	0x3f, r0	; 63
    180c:	4d be       	out	0x3d, r4	; 61
    180e:	cf 91       	pop	r28
    1810:	df 91       	pop	r29
    1812:	1f 91       	pop	r17
    1814:	0f 91       	pop	r16
    1816:	ff 90       	pop	r15
    1818:	ef 90       	pop	r14
    181a:	df 90       	pop	r13
    181c:	cf 90       	pop	r12
    181e:	bf 90       	pop	r11
    1820:	af 90       	pop	r10
    1822:	9f 90       	pop	r9
    1824:	8f 90       	pop	r8
    1826:	7f 90       	pop	r7
    1828:	6f 90       	pop	r6
    182a:	5f 90       	pop	r5
    182c:	4f 90       	pop	r4
    182e:	08 95       	ret

00001830 <logger_log>:
    1830:	6f 92       	push	r6
    1832:	7f 92       	push	r7
    1834:	8f 92       	push	r8
    1836:	9f 92       	push	r9
    1838:	af 92       	push	r10
    183a:	bf 92       	push	r11
    183c:	cf 92       	push	r12
    183e:	df 92       	push	r13
    1840:	ef 92       	push	r14
    1842:	ff 92       	push	r15
    1844:	0f 93       	push	r16
    1846:	1f 93       	push	r17
    1848:	df 93       	push	r29
    184a:	cf 93       	push	r28
    184c:	cd b7       	in	r28, 0x3d	; 61
    184e:	de b7       	in	r29, 0x3e	; 62
    1850:	a9 88       	ldd	r10, Y+17	; 0x11
    1852:	ba 88       	ldd	r11, Y+18	; 0x12
    1854:	eb 88       	ldd	r14, Y+19	; 0x13
    1856:	fc 88       	ldd	r15, Y+20	; 0x14
    1858:	8d b6       	in	r8, 0x3d	; 61
    185a:	9e b6       	in	r9, 0x3e	; 62
    185c:	8e 01       	movw	r16, r28
    185e:	0b 5e       	subi	r16, 0xEB	; 235
    1860:	1f 4f       	sbci	r17, 0xFF	; 255
    1862:	80 e0       	ldi	r24, 0x00	; 0
    1864:	90 e0       	ldi	r25, 0x00	; 0
    1866:	60 e0       	ldi	r22, 0x00	; 0
    1868:	70 e0       	ldi	r23, 0x00	; 0
    186a:	a7 01       	movw	r20, r14
    186c:	98 01       	movw	r18, r16
    186e:	0e 94 0a 12 	call	0x2414	; 0x2414 <vsnprintf>
    1872:	01 96       	adiw	r24, 0x01	; 1
    1874:	2d b7       	in	r18, 0x3d	; 61
    1876:	3e b7       	in	r19, 0x3e	; 62
    1878:	28 1b       	sub	r18, r24
    187a:	39 0b       	sbc	r19, r25
    187c:	0f b6       	in	r0, 0x3f	; 63
    187e:	f8 94       	cli
    1880:	3e bf       	out	0x3e, r19	; 62
    1882:	0f be       	out	0x3f, r0	; 63
    1884:	2d bf       	out	0x3d, r18	; 61
    1886:	cd b6       	in	r12, 0x3d	; 61
    1888:	de b6       	in	r13, 0x3e	; 62
    188a:	08 94       	sec
    188c:	c1 1c       	adc	r12, r1
    188e:	d1 1c       	adc	r13, r1
    1890:	7c 2c       	mov	r7, r12
    1892:	6d 2c       	mov	r6, r13
    1894:	c6 01       	movw	r24, r12
    1896:	b7 01       	movw	r22, r14
    1898:	a8 01       	movw	r20, r16
    189a:	0e 94 41 12 	call	0x2482	; 0x2482 <vsprintf>
    189e:	31 e0       	ldi	r19, 0x01	; 1
    18a0:	a3 16       	cp	r10, r19
    18a2:	b1 04       	cpc	r11, r1
    18a4:	09 f4       	brne	.+2      	; 0x18a8 <logger_log+0x78>
    18a6:	bd c0       	rjmp	.+378    	; 0x1a22 <logger_log+0x1f2>
    18a8:	81 e0       	ldi	r24, 0x01	; 1
    18aa:	a8 16       	cp	r10, r24
    18ac:	b1 04       	cpc	r11, r1
    18ae:	08 f0       	brcs	.+2      	; 0x18b2 <logger_log+0x82>
    18b0:	70 c0       	rjmp	.+224    	; 0x1992 <logger_log+0x162>
    18b2:	2d b7       	in	r18, 0x3d	; 61
    18b4:	3e b7       	in	r19, 0x3e	; 62
    18b6:	2a 50       	subi	r18, 0x0A	; 10
    18b8:	30 40       	sbci	r19, 0x00	; 0
    18ba:	0f b6       	in	r0, 0x3f	; 63
    18bc:	f8 94       	cli
    18be:	3e bf       	out	0x3e, r19	; 62
    18c0:	0f be       	out	0x3f, r0	; 63
    18c2:	2d bf       	out	0x3d, r18	; 61
    18c4:	ed b7       	in	r30, 0x3d	; 61
    18c6:	fe b7       	in	r31, 0x3e	; 62
    18c8:	31 96       	adiw	r30, 0x01	; 1
    18ca:	ad b7       	in	r26, 0x3d	; 61
    18cc:	be b7       	in	r27, 0x3e	; 62
    18ce:	12 96       	adiw	r26, 0x02	; 2
    18d0:	1c 92       	st	X, r1
    18d2:	1e 92       	st	-X, r1
    18d4:	11 97       	sbiw	r26, 0x01	; 1
    18d6:	13 82       	std	Z+3, r1	; 0x03
    18d8:	12 82       	std	Z+2, r1	; 0x02
    18da:	5c ea       	ldi	r21, 0xAC	; 172
    18dc:	e5 2e       	mov	r14, r21
    18de:	51 e0       	ldi	r21, 0x01	; 1
    18e0:	f5 2e       	mov	r15, r21
    18e2:	f5 82       	std	Z+5, r15	; 0x05
    18e4:	e4 82       	std	Z+4, r14	; 0x04
    18e6:	00 ec       	ldi	r16, 0xC0	; 192
    18e8:	11 e0       	ldi	r17, 0x01	; 1
    18ea:	17 83       	std	Z+7, r17	; 0x07
    18ec:	06 83       	std	Z+6, r16	; 0x06
    18ee:	c0 86       	std	Z+8, r12	; 0x08
    18f0:	d1 86       	std	Z+9, r13	; 0x09
    18f2:	0e 94 9b 11 	call	0x2336	; 0x2336 <snprintf>
    18f6:	01 96       	adiw	r24, 0x01	; 1
    18f8:	2d b7       	in	r18, 0x3d	; 61
    18fa:	3e b7       	in	r19, 0x3e	; 62
    18fc:	26 5f       	subi	r18, 0xF6	; 246
    18fe:	3f 4f       	sbci	r19, 0xFF	; 255
    1900:	0f b6       	in	r0, 0x3f	; 63
    1902:	f8 94       	cli
    1904:	3e bf       	out	0x3e, r19	; 62
    1906:	0f be       	out	0x3f, r0	; 63
    1908:	2d bf       	out	0x3d, r18	; 61
    190a:	ad b7       	in	r26, 0x3d	; 61
    190c:	be b7       	in	r27, 0x3e	; 62
    190e:	a8 1b       	sub	r26, r24
    1910:	b9 0b       	sbc	r27, r25
    1912:	0f b6       	in	r0, 0x3f	; 63
    1914:	f8 94       	cli
    1916:	be bf       	out	0x3e, r27	; 62
    1918:	0f be       	out	0x3f, r0	; 63
    191a:	ad bf       	out	0x3d, r26	; 61
    191c:	8d b7       	in	r24, 0x3d	; 61
    191e:	9e b7       	in	r25, 0x3e	; 62
    1920:	01 96       	adiw	r24, 0x01	; 1
    1922:	6c 01       	movw	r12, r24
    1924:	c8 01       	movw	r24, r16
    1926:	ad b7       	in	r26, 0x3d	; 61
    1928:	be b7       	in	r27, 0x3e	; 62
    192a:	18 97       	sbiw	r26, 0x08	; 8
    192c:	0f b6       	in	r0, 0x3f	; 63
    192e:	f8 94       	cli
    1930:	be bf       	out	0x3e, r27	; 62
    1932:	0f be       	out	0x3f, r0	; 63
    1934:	ad bf       	out	0x3d, r26	; 61
    1936:	ed b7       	in	r30, 0x3d	; 61
    1938:	fe b7       	in	r31, 0x3e	; 62
    193a:	31 96       	adiw	r30, 0x01	; 1
    193c:	11 96       	adiw	r26, 0x01	; 1
    193e:	cc 92       	st	X, r12
    1940:	d1 82       	std	Z+1, r13	; 0x01
    1942:	f3 82       	std	Z+3, r15	; 0x03
    1944:	e2 82       	std	Z+2, r14	; 0x02
    1946:	95 83       	std	Z+5, r25	; 0x05
    1948:	84 83       	std	Z+4, r24	; 0x04
    194a:	76 82       	std	Z+6, r7	; 0x06
    194c:	67 82       	std	Z+7, r6	; 0x07
    194e:	0e 94 d9 11 	call	0x23b2	; 0x23b2 <sprintf>
    1952:	2d b7       	in	r18, 0x3d	; 61
    1954:	3e b7       	in	r19, 0x3e	; 62
    1956:	28 5f       	subi	r18, 0xF8	; 248
    1958:	3f 4f       	sbci	r19, 0xFF	; 255
    195a:	0f b6       	in	r0, 0x3f	; 63
    195c:	f8 94       	cli
    195e:	3e bf       	out	0x3e, r19	; 62
    1960:	0f be       	out	0x3f, r0	; 63
    1962:	2d bf       	out	0x3d, r18	; 61
    1964:	c6 01       	movw	r24, r12
    1966:	0e 94 79 0d 	call	0x1af2	; 0x1af2 <logger_platform_out>
    196a:	0f b6       	in	r0, 0x3f	; 63
    196c:	f8 94       	cli
    196e:	9e be       	out	0x3e, r9	; 62
    1970:	0f be       	out	0x3f, r0	; 63
    1972:	8d be       	out	0x3d, r8	; 61
    1974:	cf 91       	pop	r28
    1976:	df 91       	pop	r29
    1978:	1f 91       	pop	r17
    197a:	0f 91       	pop	r16
    197c:	ff 90       	pop	r15
    197e:	ef 90       	pop	r14
    1980:	df 90       	pop	r13
    1982:	cf 90       	pop	r12
    1984:	bf 90       	pop	r11
    1986:	af 90       	pop	r10
    1988:	9f 90       	pop	r9
    198a:	8f 90       	pop	r8
    198c:	7f 90       	pop	r7
    198e:	6f 90       	pop	r6
    1990:	08 95       	ret
    1992:	92 e0       	ldi	r25, 0x02	; 2
    1994:	a9 16       	cp	r10, r25
    1996:	b1 04       	cpc	r11, r1
    1998:	09 f4       	brne	.+2      	; 0x199c <logger_log+0x16c>
    199a:	60 c0       	rjmp	.+192    	; 0x1a5c <logger_log+0x22c>
    199c:	ad b7       	in	r26, 0x3d	; 61
    199e:	be b7       	in	r27, 0x3e	; 62
    19a0:	1a 97       	sbiw	r26, 0x0a	; 10
    19a2:	0f b6       	in	r0, 0x3f	; 63
    19a4:	f8 94       	cli
    19a6:	be bf       	out	0x3e, r27	; 62
    19a8:	0f be       	out	0x3f, r0	; 63
    19aa:	ad bf       	out	0x3d, r26	; 61
    19ac:	ed b7       	in	r30, 0x3d	; 61
    19ae:	fe b7       	in	r31, 0x3e	; 62
    19b0:	31 96       	adiw	r30, 0x01	; 1
    19b2:	12 96       	adiw	r26, 0x02	; 2
    19b4:	1c 92       	st	X, r1
    19b6:	1e 92       	st	-X, r1
    19b8:	11 97       	sbiw	r26, 0x01	; 1
    19ba:	13 82       	std	Z+3, r1	; 0x03
    19bc:	12 82       	std	Z+2, r1	; 0x02
    19be:	7c ea       	ldi	r23, 0xAC	; 172
    19c0:	e7 2e       	mov	r14, r23
    19c2:	71 e0       	ldi	r23, 0x01	; 1
    19c4:	f7 2e       	mov	r15, r23
    19c6:	f5 82       	std	Z+5, r15	; 0x05
    19c8:	e4 82       	std	Z+4, r14	; 0x04
    19ca:	04 eb       	ldi	r16, 0xB4	; 180
    19cc:	11 e0       	ldi	r17, 0x01	; 1
    19ce:	17 83       	std	Z+7, r17	; 0x07
    19d0:	06 83       	std	Z+6, r16	; 0x06
    19d2:	c0 86       	std	Z+8, r12	; 0x08
    19d4:	d1 86       	std	Z+9, r13	; 0x09
    19d6:	0e 94 9b 11 	call	0x2336	; 0x2336 <snprintf>
    19da:	01 96       	adiw	r24, 0x01	; 1
    19dc:	2d b7       	in	r18, 0x3d	; 61
    19de:	3e b7       	in	r19, 0x3e	; 62
    19e0:	26 5f       	subi	r18, 0xF6	; 246
    19e2:	3f 4f       	sbci	r19, 0xFF	; 255
    19e4:	0f b6       	in	r0, 0x3f	; 63
    19e6:	f8 94       	cli
    19e8:	3e bf       	out	0x3e, r19	; 62
    19ea:	0f be       	out	0x3f, r0	; 63
    19ec:	2d bf       	out	0x3d, r18	; 61
    19ee:	ad b7       	in	r26, 0x3d	; 61
    19f0:	be b7       	in	r27, 0x3e	; 62
    19f2:	a8 1b       	sub	r26, r24
    19f4:	b9 0b       	sbc	r27, r25
    19f6:	0f b6       	in	r0, 0x3f	; 63
    19f8:	f8 94       	cli
    19fa:	be bf       	out	0x3e, r27	; 62
    19fc:	0f be       	out	0x3f, r0	; 63
    19fe:	ad bf       	out	0x3d, r26	; 61
    1a00:	8d b7       	in	r24, 0x3d	; 61
    1a02:	9e b7       	in	r25, 0x3e	; 62
    1a04:	01 96       	adiw	r24, 0x01	; 1
    1a06:	6c 01       	movw	r12, r24
    1a08:	b1 e0       	ldi	r27, 0x01	; 1
    1a0a:	ab 16       	cp	r10, r27
    1a0c:	b1 04       	cpc	r11, r1
    1a0e:	09 f4       	brne	.+2      	; 0x1a12 <logger_log+0x1e2>
    1a10:	66 c0       	rjmp	.+204    	; 0x1ade <logger_log+0x2ae>
    1a12:	21 e0       	ldi	r18, 0x01	; 1
    1a14:	a2 16       	cp	r10, r18
    1a16:	b1 04       	cpc	r11, r1
    1a18:	08 f0       	brcs	.+2      	; 0x1a1c <logger_log+0x1ec>
    1a1a:	5b c0       	rjmp	.+182    	; 0x1ad2 <logger_log+0x2a2>
    1a1c:	80 ec       	ldi	r24, 0xC0	; 192
    1a1e:	91 e0       	ldi	r25, 0x01	; 1
    1a20:	82 cf       	rjmp	.-252    	; 0x1926 <logger_log+0xf6>
    1a22:	2d b7       	in	r18, 0x3d	; 61
    1a24:	3e b7       	in	r19, 0x3e	; 62
    1a26:	2a 50       	subi	r18, 0x0A	; 10
    1a28:	30 40       	sbci	r19, 0x00	; 0
    1a2a:	0f b6       	in	r0, 0x3f	; 63
    1a2c:	f8 94       	cli
    1a2e:	3e bf       	out	0x3e, r19	; 62
    1a30:	0f be       	out	0x3f, r0	; 63
    1a32:	2d bf       	out	0x3d, r18	; 61
    1a34:	ed b7       	in	r30, 0x3d	; 61
    1a36:	fe b7       	in	r31, 0x3e	; 62
    1a38:	31 96       	adiw	r30, 0x01	; 1
    1a3a:	ad b7       	in	r26, 0x3d	; 61
    1a3c:	be b7       	in	r27, 0x3e	; 62
    1a3e:	12 96       	adiw	r26, 0x02	; 2
    1a40:	1c 92       	st	X, r1
    1a42:	1e 92       	st	-X, r1
    1a44:	11 97       	sbiw	r26, 0x01	; 1
    1a46:	13 82       	std	Z+3, r1	; 0x03
    1a48:	12 82       	std	Z+2, r1	; 0x02
    1a4a:	4c ea       	ldi	r20, 0xAC	; 172
    1a4c:	e4 2e       	mov	r14, r20
    1a4e:	41 e0       	ldi	r20, 0x01	; 1
    1a50:	f4 2e       	mov	r15, r20
    1a52:	f5 82       	std	Z+5, r15	; 0x05
    1a54:	e4 82       	std	Z+4, r14	; 0x04
    1a56:	08 eb       	ldi	r16, 0xB8	; 184
    1a58:	11 e0       	ldi	r17, 0x01	; 1
    1a5a:	47 cf       	rjmp	.-370    	; 0x18ea <logger_log+0xba>
    1a5c:	8d b7       	in	r24, 0x3d	; 61
    1a5e:	9e b7       	in	r25, 0x3e	; 62
    1a60:	0a 97       	sbiw	r24, 0x0a	; 10
    1a62:	0f b6       	in	r0, 0x3f	; 63
    1a64:	f8 94       	cli
    1a66:	9e bf       	out	0x3e, r25	; 62
    1a68:	0f be       	out	0x3f, r0	; 63
    1a6a:	8d bf       	out	0x3d, r24	; 61
    1a6c:	ed b7       	in	r30, 0x3d	; 61
    1a6e:	fe b7       	in	r31, 0x3e	; 62
    1a70:	31 96       	adiw	r30, 0x01	; 1
    1a72:	ad b7       	in	r26, 0x3d	; 61
    1a74:	be b7       	in	r27, 0x3e	; 62
    1a76:	12 96       	adiw	r26, 0x02	; 2
    1a78:	1c 92       	st	X, r1
    1a7a:	1e 92       	st	-X, r1
    1a7c:	11 97       	sbiw	r26, 0x01	; 1
    1a7e:	13 82       	std	Z+3, r1	; 0x03
    1a80:	12 82       	std	Z+2, r1	; 0x02
    1a82:	6c ea       	ldi	r22, 0xAC	; 172
    1a84:	e6 2e       	mov	r14, r22
    1a86:	61 e0       	ldi	r22, 0x01	; 1
    1a88:	f6 2e       	mov	r15, r22
    1a8a:	f5 82       	std	Z+5, r15	; 0x05
    1a8c:	e4 82       	std	Z+4, r14	; 0x04
    1a8e:	85 ec       	ldi	r24, 0xC5	; 197
    1a90:	91 e0       	ldi	r25, 0x01	; 1
    1a92:	97 83       	std	Z+7, r25	; 0x07
    1a94:	86 83       	std	Z+6, r24	; 0x06
    1a96:	c0 86       	std	Z+8, r12	; 0x08
    1a98:	d1 86       	std	Z+9, r13	; 0x09
    1a9a:	0e 94 9b 11 	call	0x2336	; 0x2336 <snprintf>
    1a9e:	01 96       	adiw	r24, 0x01	; 1
    1aa0:	2d b7       	in	r18, 0x3d	; 61
    1aa2:	3e b7       	in	r19, 0x3e	; 62
    1aa4:	26 5f       	subi	r18, 0xF6	; 246
    1aa6:	3f 4f       	sbci	r19, 0xFF	; 255
    1aa8:	0f b6       	in	r0, 0x3f	; 63
    1aaa:	f8 94       	cli
    1aac:	3e bf       	out	0x3e, r19	; 62
    1aae:	0f be       	out	0x3f, r0	; 63
    1ab0:	2d bf       	out	0x3d, r18	; 61
    1ab2:	ad b7       	in	r26, 0x3d	; 61
    1ab4:	be b7       	in	r27, 0x3e	; 62
    1ab6:	a8 1b       	sub	r26, r24
    1ab8:	b9 0b       	sbc	r27, r25
    1aba:	0f b6       	in	r0, 0x3f	; 63
    1abc:	f8 94       	cli
    1abe:	be bf       	out	0x3e, r27	; 62
    1ac0:	0f be       	out	0x3f, r0	; 63
    1ac2:	ad bf       	out	0x3d, r26	; 61
    1ac4:	8d b7       	in	r24, 0x3d	; 61
    1ac6:	9e b7       	in	r25, 0x3e	; 62
    1ac8:	01 96       	adiw	r24, 0x01	; 1
    1aca:	6c 01       	movw	r12, r24
    1acc:	85 ec       	ldi	r24, 0xC5	; 197
    1ace:	91 e0       	ldi	r25, 0x01	; 1
    1ad0:	2a cf       	rjmp	.-428    	; 0x1926 <logger_log+0xf6>
    1ad2:	32 e0       	ldi	r19, 0x02	; 2
    1ad4:	a3 16       	cp	r10, r19
    1ad6:	b1 04       	cpc	r11, r1
    1ad8:	c9 f3       	breq	.-14     	; 0x1acc <logger_log+0x29c>
    1ada:	c8 01       	movw	r24, r16
    1adc:	24 cf       	rjmp	.-440    	; 0x1926 <logger_log+0xf6>
    1ade:	88 eb       	ldi	r24, 0xB8	; 184
    1ae0:	91 e0       	ldi	r25, 0x01	; 1
    1ae2:	21 cf       	rjmp	.-446    	; 0x1926 <logger_log+0xf6>

00001ae4 <logger_init>:
    1ae4:	0e 94 82 0d 	call	0x1b04	; 0x1b04 <settings_logger_file>
    1ae8:	0e 94 77 0d 	call	0x1aee	; 0x1aee <logger_platform_init>
    1aec:	08 95       	ret

00001aee <logger_platform_init>:
    1aee:	08 95       	ret

00001af0 <logger_platform_trace>:
    1af0:	08 95       	ret

00001af2 <logger_platform_out>:
    1af2:	08 95       	ret

00001af4 <settings_dispatcher_max_time>:
    1af4:	6f ef       	ldi	r22, 0xFF	; 255
    1af6:	7f ef       	ldi	r23, 0xFF	; 255
    1af8:	8f ef       	ldi	r24, 0xFF	; 255
    1afa:	9f ef       	ldi	r25, 0xFF	; 255
    1afc:	08 95       	ret

00001afe <settings_random_seed>:
    1afe:	80 e0       	ldi	r24, 0x00	; 0
    1b00:	90 e0       	ldi	r25, 0x00	; 0
    1b02:	08 95       	ret

00001b04 <settings_logger_file>:
    1b04:	8b ec       	ldi	r24, 0xCB	; 203
    1b06:	91 e0       	ldi	r25, 0x01	; 1
    1b08:	08 95       	ret

00001b0a <dispatcher_quit>:
    1b0a:	20 91 c2 12 	lds	r18, 0x12C2
    1b0e:	30 91 c3 12 	lds	r19, 0x12C3
    1b12:	40 91 c4 12 	lds	r20, 0x12C4
    1b16:	50 91 c5 12 	lds	r21, 0x12C5
    1b1a:	12 16       	cp	r1, r18
    1b1c:	13 06       	cpc	r1, r19
    1b1e:	14 06       	cpc	r1, r20
    1b20:	15 06       	cpc	r1, r21
    1b22:	9c f4       	brge	.+38     	; 0x1b4a <dispatcher_quit+0x40>
    1b24:	60 e0       	ldi	r22, 0x00	; 0
    1b26:	80 91 1a 13 	lds	r24, 0x131A
    1b2a:	90 91 1b 13 	lds	r25, 0x131B
    1b2e:	a0 91 1c 13 	lds	r26, 0x131C
    1b32:	b0 91 1d 13 	lds	r27, 0x131D
    1b36:	28 17       	cp	r18, r24
    1b38:	39 07       	cpc	r19, r25
    1b3a:	4a 07       	cpc	r20, r26
    1b3c:	5b 07       	cpc	r21, r27
    1b3e:	14 f0       	brlt	.+4      	; 0x1b44 <dispatcher_quit+0x3a>
    1b40:	86 2f       	mov	r24, r22
    1b42:	08 95       	ret
    1b44:	61 e0       	ldi	r22, 0x01	; 1
    1b46:	86 2f       	mov	r24, r22
    1b48:	08 95       	ret
    1b4a:	60 e0       	ldi	r22, 0x00	; 0
    1b4c:	86 2f       	mov	r24, r22
    1b4e:	08 95       	ret

00001b50 <dispatcher_now>:
    1b50:	60 91 1a 13 	lds	r22, 0x131A
    1b54:	70 91 1b 13 	lds	r23, 0x131B
    1b58:	80 91 1c 13 	lds	r24, 0x131C
    1b5c:	90 91 1d 13 	lds	r25, 0x131D
    1b60:	08 95       	ret

00001b62 <dispatcher_run>:
    1b62:	4f 92       	push	r4
    1b64:	5f 92       	push	r5
    1b66:	6f 92       	push	r6
    1b68:	7f 92       	push	r7
    1b6a:	8f 92       	push	r8
    1b6c:	9f 92       	push	r9
    1b6e:	af 92       	push	r10
    1b70:	bf 92       	push	r11
    1b72:	cf 92       	push	r12
    1b74:	df 92       	push	r13
    1b76:	ef 92       	push	r14
    1b78:	ff 92       	push	r15
    1b7a:	0f 93       	push	r16
    1b7c:	1f 93       	push	r17
    1b7e:	df 93       	push	r29
    1b80:	cf 93       	push	r28
    1b82:	cd b7       	in	r28, 0x3d	; 61
    1b84:	de b7       	in	r29, 0x3e	; 62
    1b86:	28 97       	sbiw	r28, 0x08	; 8
    1b88:	0f b6       	in	r0, 0x3f	; 63
    1b8a:	f8 94       	cli
    1b8c:	de bf       	out	0x3e, r29	; 62
    1b8e:	0f be       	out	0x3f, r0	; 63
    1b90:	cd bf       	out	0x3d, r28	; 61
    1b92:	00 d0       	rcall	.+0      	; 0x1b94 <dispatcher_run+0x32>
    1b94:	00 d0       	rcall	.+0      	; 0x1b96 <dispatcher_run+0x34>
    1b96:	ed b7       	in	r30, 0x3d	; 61
    1b98:	fe b7       	in	r31, 0x3e	; 62
    1b9a:	12 82       	std	Z+2, r1	; 0x02
    1b9c:	11 82       	std	Z+1, r1	; 0x01
    1b9e:	8c ec       	ldi	r24, 0xCC	; 204
    1ba0:	91 e0       	ldi	r25, 0x01	; 1
    1ba2:	94 83       	std	Z+4, r25	; 0x04
    1ba4:	83 83       	std	Z+3, r24	; 0x03
    1ba6:	0e 94 18 0c 	call	0x1830	; 0x1830 <logger_log>
    1baa:	0f 90       	pop	r0
    1bac:	0f 90       	pop	r0
    1bae:	0f 90       	pop	r0
    1bb0:	0f 90       	pop	r0
    1bb2:	2e 01       	movw	r4, r28
    1bb4:	08 94       	sec
    1bb6:	41 1c       	adc	r4, r1
    1bb8:	51 1c       	adc	r5, r1
    1bba:	20 91 c2 12 	lds	r18, 0x12C2
    1bbe:	30 91 c3 12 	lds	r19, 0x12C3
    1bc2:	40 91 c4 12 	lds	r20, 0x12C4
    1bc6:	50 91 c5 12 	lds	r21, 0x12C5
    1bca:	12 16       	cp	r1, r18
    1bcc:	13 06       	cpc	r1, r19
    1bce:	14 06       	cpc	r1, r20
    1bd0:	15 06       	cpc	r1, r21
    1bd2:	a4 f5       	brge	.+104    	; 0x1c3c <dispatcher_run+0xda>
    1bd4:	80 91 1a 13 	lds	r24, 0x131A
    1bd8:	90 91 1b 13 	lds	r25, 0x131B
    1bdc:	a0 91 1c 13 	lds	r26, 0x131C
    1be0:	b0 91 1d 13 	lds	r27, 0x131D
    1be4:	28 17       	cp	r18, r24
    1be6:	39 07       	cpc	r19, r25
    1be8:	4a 07       	cpc	r20, r26
    1bea:	5b 07       	cpc	r21, r27
    1bec:	3c f5       	brge	.+78     	; 0x1c3c <dispatcher_run+0xda>
    1bee:	00 d0       	rcall	.+0      	; 0x1bf0 <dispatcher_run+0x8e>
    1bf0:	00 d0       	rcall	.+0      	; 0x1bf2 <dispatcher_run+0x90>
    1bf2:	ed b7       	in	r30, 0x3d	; 61
    1bf4:	fe b7       	in	r31, 0x3e	; 62
    1bf6:	12 82       	std	Z+2, r1	; 0x02
    1bf8:	11 82       	std	Z+1, r1	; 0x01
    1bfa:	8f ed       	ldi	r24, 0xDF	; 223
    1bfc:	91 e0       	ldi	r25, 0x01	; 1
    1bfe:	94 83       	std	Z+4, r25	; 0x04
    1c00:	83 83       	std	Z+3, r24	; 0x03
    1c02:	0e 94 18 0c 	call	0x1830	; 0x1830 <logger_log>
    1c06:	0f 90       	pop	r0
    1c08:	0f 90       	pop	r0
    1c0a:	0f 90       	pop	r0
    1c0c:	0f 90       	pop	r0
    1c0e:	28 96       	adiw	r28, 0x08	; 8
    1c10:	0f b6       	in	r0, 0x3f	; 63
    1c12:	f8 94       	cli
    1c14:	de bf       	out	0x3e, r29	; 62
    1c16:	0f be       	out	0x3f, r0	; 63
    1c18:	cd bf       	out	0x3d, r28	; 61
    1c1a:	cf 91       	pop	r28
    1c1c:	df 91       	pop	r29
    1c1e:	1f 91       	pop	r17
    1c20:	0f 91       	pop	r16
    1c22:	ff 90       	pop	r15
    1c24:	ef 90       	pop	r14
    1c26:	df 90       	pop	r13
    1c28:	cf 90       	pop	r12
    1c2a:	bf 90       	pop	r11
    1c2c:	af 90       	pop	r10
    1c2e:	9f 90       	pop	r9
    1c30:	8f 90       	pop	r8
    1c32:	7f 90       	pop	r7
    1c34:	6f 90       	pop	r6
    1c36:	5f 90       	pop	r5
    1c38:	4f 90       	pop	r4
    1c3a:	08 95       	ret
    1c3c:	80 90 18 13 	lds	r8, 0x1318
    1c40:	90 90 19 13 	lds	r9, 0x1319
    1c44:	c0 90 16 13 	lds	r12, 0x1316
    1c48:	d0 90 17 13 	lds	r13, 0x1317
    1c4c:	8c 14       	cp	r8, r12
    1c4e:	9d 04       	cpc	r9, r13
    1c50:	09 f4       	brne	.+2      	; 0x1c54 <dispatcher_run+0xf2>
    1c52:	8c c0       	rjmp	.+280    	; 0x1d6c <dispatcher_run+0x20a>
    1c54:	c4 01       	movw	r24, r8
    1c56:	01 96       	adiw	r24, 0x01	; 1
    1c58:	6a e0       	ldi	r22, 0x0A	; 10
    1c5a:	70 e0       	ldi	r23, 0x00	; 0
    1c5c:	0e 94 ed 0f 	call	0x1fda	; 0x1fda <__divmodhi4>
    1c60:	5c 01       	movw	r10, r24
    1c62:	c8 16       	cp	r12, r24
    1c64:	d9 06       	cpc	r13, r25
    1c66:	09 f4       	brne	.+2      	; 0x1c6a <dispatcher_run+0x108>
    1c68:	71 c0       	rjmp	.+226    	; 0x1d4c <dispatcher_run+0x1ea>
    1c6a:	bc 01       	movw	r22, r24
    1c6c:	34 01       	movw	r6, r8
    1c6e:	74 01       	movw	r14, r8
    1c70:	ee 0c       	add	r14, r14
    1c72:	ff 1c       	adc	r15, r15
    1c74:	ee 0c       	add	r14, r14
    1c76:	ff 1c       	adc	r15, r15
    1c78:	ee 0c       	add	r14, r14
    1c7a:	ff 1c       	adc	r15, r15
    1c7c:	8b 01       	movw	r16, r22
    1c7e:	00 0f       	add	r16, r16
    1c80:	11 1f       	adc	r17, r17
    1c82:	00 0f       	add	r16, r16
    1c84:	11 1f       	adc	r17, r17
    1c86:	00 0f       	add	r16, r16
    1c88:	11 1f       	adc	r17, r17
    1c8a:	f8 01       	movw	r30, r16
    1c8c:	ea 53       	subi	r30, 0x3A	; 58
    1c8e:	fd 4e       	sbci	r31, 0xED	; 237
    1c90:	d7 01       	movw	r26, r14
    1c92:	aa 53       	subi	r26, 0x3A	; 58
    1c94:	bd 4e       	sbci	r27, 0xED	; 237
    1c96:	20 81       	ld	r18, Z
    1c98:	31 81       	ldd	r19, Z+1	; 0x01
    1c9a:	42 81       	ldd	r20, Z+2	; 0x02
    1c9c:	53 81       	ldd	r21, Z+3	; 0x03
    1c9e:	8d 91       	ld	r24, X+
    1ca0:	9d 91       	ld	r25, X+
    1ca2:	0d 90       	ld	r0, X+
    1ca4:	bc 91       	ld	r27, X
    1ca6:	a0 2d       	mov	r26, r0
    1ca8:	28 17       	cp	r18, r24
    1caa:	39 07       	cpc	r19, r25
    1cac:	4a 07       	cpc	r20, r26
    1cae:	5b 07       	cpc	r21, r27
    1cb0:	10 f4       	brcc	.+4      	; 0x1cb6 <dispatcher_run+0x154>
    1cb2:	3b 01       	movw	r6, r22
    1cb4:	78 01       	movw	r14, r16
    1cb6:	cb 01       	movw	r24, r22
    1cb8:	01 96       	adiw	r24, 0x01	; 1
    1cba:	6a e0       	ldi	r22, 0x0A	; 10
    1cbc:	70 e0       	ldi	r23, 0x00	; 0
    1cbe:	0e 94 ed 0f 	call	0x1fda	; 0x1fda <__divmodhi4>
    1cc2:	bc 01       	movw	r22, r24
    1cc4:	c8 16       	cp	r12, r24
    1cc6:	d9 06       	cpc	r13, r25
    1cc8:	c9 f6       	brne	.-78     	; 0x1c7c <dispatcher_run+0x11a>
    1cca:	d2 01       	movw	r26, r4
    1ccc:	f7 01       	movw	r30, r14
    1cce:	ea 53       	subi	r30, 0x3A	; 58
    1cd0:	fd 4e       	sbci	r31, 0xED	; 237
    1cd2:	88 e0       	ldi	r24, 0x08	; 8
    1cd4:	01 90       	ld	r0, Z+
    1cd6:	0d 92       	st	X+, r0
    1cd8:	81 50       	subi	r24, 0x01	; 1
    1cda:	e1 f7       	brne	.-8      	; 0x1cd4 <dispatcher_run+0x172>
    1cdc:	86 14       	cp	r8, r6
    1cde:	97 04       	cpc	r9, r7
    1ce0:	89 f0       	breq	.+34     	; 0x1d04 <dispatcher_run+0x1a2>
    1ce2:	f4 01       	movw	r30, r8
    1ce4:	ee 0f       	add	r30, r30
    1ce6:	ff 1f       	adc	r31, r31
    1ce8:	ee 0f       	add	r30, r30
    1cea:	ff 1f       	adc	r31, r31
    1cec:	ee 0f       	add	r30, r30
    1cee:	ff 1f       	adc	r31, r31
    1cf0:	d7 01       	movw	r26, r14
    1cf2:	aa 53       	subi	r26, 0x3A	; 58
    1cf4:	bd 4e       	sbci	r27, 0xED	; 237
    1cf6:	ea 53       	subi	r30, 0x3A	; 58
    1cf8:	fd 4e       	sbci	r31, 0xED	; 237
    1cfa:	88 e0       	ldi	r24, 0x08	; 8
    1cfc:	01 90       	ld	r0, Z+
    1cfe:	0d 92       	st	X+, r0
    1d00:	81 50       	subi	r24, 0x01	; 1
    1d02:	e1 f7       	brne	.-8      	; 0x1cfc <dispatcher_run+0x19a>
    1d04:	b0 92 19 13 	sts	0x1319, r11
    1d08:	a0 92 18 13 	sts	0x1318, r10
    1d0c:	29 81       	ldd	r18, Y+1	; 0x01
    1d0e:	3a 81       	ldd	r19, Y+2	; 0x02
    1d10:	4b 81       	ldd	r20, Y+3	; 0x03
    1d12:	5c 81       	ldd	r21, Y+4	; 0x04
    1d14:	ed 81       	ldd	r30, Y+5	; 0x05
    1d16:	fe 81       	ldd	r31, Y+6	; 0x06
    1d18:	6f 81       	ldd	r22, Y+7	; 0x07
    1d1a:	78 85       	ldd	r23, Y+8	; 0x08
    1d1c:	80 91 1a 13 	lds	r24, 0x131A
    1d20:	90 91 1b 13 	lds	r25, 0x131B
    1d24:	a0 91 1c 13 	lds	r26, 0x131C
    1d28:	b0 91 1d 13 	lds	r27, 0x131D
    1d2c:	28 17       	cp	r18, r24
    1d2e:	39 07       	cpc	r19, r25
    1d30:	4a 07       	cpc	r20, r26
    1d32:	5b 07       	cpc	r21, r27
    1d34:	d8 f0       	brcs	.+54     	; 0x1d6c <dispatcher_run+0x20a>
    1d36:	20 93 1a 13 	sts	0x131A, r18
    1d3a:	30 93 1b 13 	sts	0x131B, r19
    1d3e:	40 93 1c 13 	sts	0x131C, r20
    1d42:	50 93 1d 13 	sts	0x131D, r21
    1d46:	cb 01       	movw	r24, r22
    1d48:	09 95       	icall
    1d4a:	37 cf       	rjmp	.-402    	; 0x1bba <dispatcher_run+0x58>
    1d4c:	f4 01       	movw	r30, r8
    1d4e:	ee 0f       	add	r30, r30
    1d50:	ff 1f       	adc	r31, r31
    1d52:	ee 0f       	add	r30, r30
    1d54:	ff 1f       	adc	r31, r31
    1d56:	ee 0f       	add	r30, r30
    1d58:	ff 1f       	adc	r31, r31
    1d5a:	d2 01       	movw	r26, r4
    1d5c:	ea 53       	subi	r30, 0x3A	; 58
    1d5e:	fd 4e       	sbci	r31, 0xED	; 237
    1d60:	88 e0       	ldi	r24, 0x08	; 8
    1d62:	01 90       	ld	r0, Z+
    1d64:	0d 92       	st	X+, r0
    1d66:	81 50       	subi	r24, 0x01	; 1
    1d68:	e1 f7       	brne	.-8      	; 0x1d62 <dispatcher_run+0x200>
    1d6a:	cc cf       	rjmp	.-104    	; 0x1d04 <dispatcher_run+0x1a2>
    1d6c:	0e 94 84 11 	call	0x2308	; 0x2308 <abort>

00001d70 <dispatcher_enqueue>:
    1d70:	8f 92       	push	r8
    1d72:	9f 92       	push	r9
    1d74:	af 92       	push	r10
    1d76:	bf 92       	push	r11
    1d78:	cf 92       	push	r12
    1d7a:	df 92       	push	r13
    1d7c:	ef 92       	push	r14
    1d7e:	ff 92       	push	r15
    1d80:	0f 93       	push	r16
    1d82:	1f 93       	push	r17
    1d84:	cf 93       	push	r28
    1d86:	df 93       	push	r29
    1d88:	6b 01       	movw	r12, r22
    1d8a:	7c 01       	movw	r14, r24
    1d8c:	5a 01       	movw	r10, r20
    1d8e:	49 01       	movw	r8, r18
    1d90:	00 91 1a 13 	lds	r16, 0x131A
    1d94:	10 91 1b 13 	lds	r17, 0x131B
    1d98:	20 91 1c 13 	lds	r18, 0x131C
    1d9c:	30 91 1d 13 	lds	r19, 0x131D
    1da0:	c0 91 16 13 	lds	r28, 0x1316
    1da4:	d0 91 17 13 	lds	r29, 0x1317
    1da8:	ce 01       	movw	r24, r28
    1daa:	01 96       	adiw	r24, 0x01	; 1
    1dac:	6a e0       	ldi	r22, 0x0A	; 10
    1dae:	70 e0       	ldi	r23, 0x00	; 0
    1db0:	0e 94 ed 0f 	call	0x1fda	; 0x1fda <__divmodhi4>
    1db4:	bc 01       	movw	r22, r24
    1db6:	80 91 18 13 	lds	r24, 0x1318
    1dba:	90 91 19 13 	lds	r25, 0x1319
    1dbe:	68 17       	cp	r22, r24
    1dc0:	79 07       	cpc	r23, r25
    1dc2:	41 f1       	breq	.+80     	; 0x1e14 <dispatcher_enqueue+0xa4>
    1dc4:	cc 0f       	add	r28, r28
    1dc6:	dd 1f       	adc	r29, r29
    1dc8:	cc 0f       	add	r28, r28
    1dca:	dd 1f       	adc	r29, r29
    1dcc:	cc 0f       	add	r28, r28
    1dce:	dd 1f       	adc	r29, r29
    1dd0:	fe 01       	movw	r30, r28
    1dd2:	ea 53       	subi	r30, 0x3A	; 58
    1dd4:	fd 4e       	sbci	r31, 0xED	; 237
    1dd6:	0c 0d       	add	r16, r12
    1dd8:	1d 1d       	adc	r17, r13
    1dda:	2e 1d       	adc	r18, r14
    1ddc:	3f 1d       	adc	r19, r15
    1dde:	00 83       	st	Z, r16
    1de0:	11 83       	std	Z+1, r17	; 0x01
    1de2:	22 83       	std	Z+2, r18	; 0x02
    1de4:	33 83       	std	Z+3, r19	; 0x03
    1de6:	c6 53       	subi	r28, 0x36	; 54
    1de8:	dd 4e       	sbci	r29, 0xED	; 237
    1dea:	b9 82       	std	Y+1, r11	; 0x01
    1dec:	a8 82       	st	Y, r10
    1dee:	97 82       	std	Z+7, r9	; 0x07
    1df0:	86 82       	std	Z+6, r8	; 0x06
    1df2:	70 93 17 13 	sts	0x1317, r23
    1df6:	60 93 16 13 	sts	0x1316, r22
    1dfa:	df 91       	pop	r29
    1dfc:	cf 91       	pop	r28
    1dfe:	1f 91       	pop	r17
    1e00:	0f 91       	pop	r16
    1e02:	ff 90       	pop	r15
    1e04:	ef 90       	pop	r14
    1e06:	df 90       	pop	r13
    1e08:	cf 90       	pop	r12
    1e0a:	bf 90       	pop	r11
    1e0c:	af 90       	pop	r10
    1e0e:	9f 90       	pop	r9
    1e10:	8f 90       	pop	r8
    1e12:	08 95       	ret
    1e14:	0e 94 84 11 	call	0x2308	; 0x2308 <abort>

00001e18 <dispatcher_init>:
    1e18:	10 92 19 13 	sts	0x1319, r1
    1e1c:	10 92 18 13 	sts	0x1318, r1
    1e20:	10 92 17 13 	sts	0x1317, r1
    1e24:	10 92 16 13 	sts	0x1316, r1
    1e28:	0e 94 7a 0d 	call	0x1af4	; 0x1af4 <settings_dispatcher_max_time>
    1e2c:	60 93 c2 12 	sts	0x12C2, r22
    1e30:	70 93 c3 12 	sts	0x12C3, r23
    1e34:	80 93 c4 12 	sts	0x12C4, r24
    1e38:	90 93 c5 12 	sts	0x12C5, r25
    1e3c:	10 92 1a 13 	sts	0x131A, r1
    1e40:	10 92 1b 13 	sts	0x131B, r1
    1e44:	10 92 1c 13 	sts	0x131C, r1
    1e48:	10 92 1d 13 	sts	0x131D, r1
    1e4c:	08 95       	ret

00001e4e <random_integer>:
    1e4e:	ef 92       	push	r14
    1e50:	ff 92       	push	r15
    1e52:	0f 93       	push	r16
    1e54:	1f 93       	push	r17
    1e56:	cf 93       	push	r28
    1e58:	df 93       	push	r29
    1e5a:	8c 01       	movw	r16, r24
    1e5c:	97 fd       	sbrc	r25, 7
    1e5e:	23 c0       	rjmp	.+70     	; 0x1ea6 <random_integer+0x58>
    1e60:	7c 01       	movw	r14, r24
    1e62:	08 94       	sec
    1e64:	e1 1c       	adc	r14, r1
    1e66:	f1 1c       	adc	r15, r1
    1e68:	2f ef       	ldi	r18, 0xFF	; 255
    1e6a:	3f e7       	ldi	r19, 0x7F	; 127
    1e6c:	c9 01       	movw	r24, r18
    1e6e:	80 1b       	sub	r24, r16
    1e70:	91 0b       	sbc	r25, r17
    1e72:	b7 01       	movw	r22, r14
    1e74:	0e 94 ed 0f 	call	0x1fda	; 0x1fda <__divmodhi4>
    1e78:	e9 01       	movw	r28, r18
    1e7a:	c8 1b       	sub	r28, r24
    1e7c:	d9 0b       	sbc	r29, r25
    1e7e:	0e 94 74 11 	call	0x22e8	; 0x22e8 <rand>
    1e82:	c8 17       	cp	r28, r24
    1e84:	d9 07       	cpc	r29, r25
    1e86:	dc f3       	brlt	.-10     	; 0x1e7e <random_integer+0x30>
    1e88:	b7 01       	movw	r22, r14
    1e8a:	0e 94 ed 0f 	call	0x1fda	; 0x1fda <__divmodhi4>
    1e8e:	97 fd       	sbrc	r25, 7
    1e90:	0a c0       	rjmp	.+20     	; 0x1ea6 <random_integer+0x58>
    1e92:	08 17       	cp	r16, r24
    1e94:	19 07       	cpc	r17, r25
    1e96:	3c f0       	brlt	.+14     	; 0x1ea6 <random_integer+0x58>
    1e98:	df 91       	pop	r29
    1e9a:	cf 91       	pop	r28
    1e9c:	1f 91       	pop	r17
    1e9e:	0f 91       	pop	r16
    1ea0:	ff 90       	pop	r15
    1ea2:	ef 90       	pop	r14
    1ea4:	08 95       	ret
    1ea6:	0e 94 84 11 	call	0x2308	; 0x2308 <abort>

00001eaa <random_error>:
    1eaa:	81 e0       	ldi	r24, 0x01	; 1
    1eac:	90 e0       	ldi	r25, 0x00	; 0
    1eae:	0e 94 27 0f 	call	0x1e4e	; 0x1e4e <random_integer>
    1eb2:	20 e0       	ldi	r18, 0x00	; 0
    1eb4:	30 e0       	ldi	r19, 0x00	; 0
    1eb6:	89 2b       	or	r24, r25
    1eb8:	11 f4       	brne	.+4      	; 0x1ebe <random_error+0x14>
    1eba:	21 e0       	ldi	r18, 0x01	; 1
    1ebc:	30 e0       	ldi	r19, 0x00	; 0
    1ebe:	c9 01       	movw	r24, r18
    1ec0:	08 95       	ret

00001ec2 <random_bytes>:
    1ec2:	ef 92       	push	r14
    1ec4:	ff 92       	push	r15
    1ec6:	0f 93       	push	r16
    1ec8:	1f 93       	push	r17
    1eca:	cf 93       	push	r28
    1ecc:	df 93       	push	r29
    1ece:	7c 01       	movw	r14, r24
    1ed0:	8b 01       	movw	r16, r22
    1ed2:	61 15       	cp	r22, r1
    1ed4:	71 05       	cpc	r23, r1
    1ed6:	71 f0       	breq	.+28     	; 0x1ef4 <random_bytes+0x32>
    1ed8:	c0 e0       	ldi	r28, 0x00	; 0
    1eda:	d0 e0       	ldi	r29, 0x00	; 0
    1edc:	8f ef       	ldi	r24, 0xFF	; 255
    1ede:	90 e0       	ldi	r25, 0x00	; 0
    1ee0:	0e 94 27 0f 	call	0x1e4e	; 0x1e4e <random_integer>
    1ee4:	f7 01       	movw	r30, r14
    1ee6:	ec 0f       	add	r30, r28
    1ee8:	fd 1f       	adc	r31, r29
    1eea:	80 83       	st	Z, r24
    1eec:	21 96       	adiw	r28, 0x01	; 1
    1eee:	c0 17       	cp	r28, r16
    1ef0:	d1 07       	cpc	r29, r17
    1ef2:	a0 f3       	brcs	.-24     	; 0x1edc <random_bytes+0x1a>
    1ef4:	df 91       	pop	r29
    1ef6:	cf 91       	pop	r28
    1ef8:	1f 91       	pop	r17
    1efa:	0f 91       	pop	r16
    1efc:	ff 90       	pop	r15
    1efe:	ef 90       	pop	r14
    1f00:	08 95       	ret

00001f02 <random_string>:
    1f02:	cf 92       	push	r12
    1f04:	df 92       	push	r13
    1f06:	ef 92       	push	r14
    1f08:	ff 92       	push	r15
    1f0a:	0f 93       	push	r16
    1f0c:	1f 93       	push	r17
    1f0e:	cf 93       	push	r28
    1f10:	df 93       	push	r29
    1f12:	8c 01       	movw	r16, r24
    1f14:	6b 01       	movw	r12, r22
    1f16:	7b 01       	movw	r14, r22
    1f18:	08 94       	sec
    1f1a:	e1 08       	sbc	r14, r1
    1f1c:	f1 08       	sbc	r15, r1
    1f1e:	e1 14       	cp	r14, r1
    1f20:	f1 04       	cpc	r15, r1
    1f22:	79 f0       	breq	.+30     	; 0x1f42 <random_string+0x40>
    1f24:	c0 e0       	ldi	r28, 0x00	; 0
    1f26:	d0 e0       	ldi	r29, 0x00	; 0
    1f28:	89 e1       	ldi	r24, 0x19	; 25
    1f2a:	90 e0       	ldi	r25, 0x00	; 0
    1f2c:	0e 94 27 0f 	call	0x1e4e	; 0x1e4e <random_integer>
    1f30:	f8 01       	movw	r30, r16
    1f32:	ec 0f       	add	r30, r28
    1f34:	fd 1f       	adc	r31, r29
    1f36:	8f 59       	subi	r24, 0x9F	; 159
    1f38:	80 83       	st	Z, r24
    1f3a:	21 96       	adiw	r28, 0x01	; 1
    1f3c:	ce 15       	cp	r28, r14
    1f3e:	df 05       	cpc	r29, r15
    1f40:	98 f3       	brcs	.-26     	; 0x1f28 <random_string+0x26>
    1f42:	0c 0d       	add	r16, r12
    1f44:	1d 1d       	adc	r17, r13
    1f46:	01 50       	subi	r16, 0x01	; 1
    1f48:	10 40       	sbci	r17, 0x00	; 0
    1f4a:	f8 01       	movw	r30, r16
    1f4c:	10 82       	st	Z, r1
    1f4e:	df 91       	pop	r29
    1f50:	cf 91       	pop	r28
    1f52:	1f 91       	pop	r17
    1f54:	0f 91       	pop	r16
    1f56:	ff 90       	pop	r15
    1f58:	ef 90       	pop	r14
    1f5a:	df 90       	pop	r13
    1f5c:	cf 90       	pop	r12
    1f5e:	08 95       	ret

00001f60 <random_integer_range>:
    1f60:	cf 93       	push	r28
    1f62:	df 93       	push	r29
    1f64:	ec 01       	movw	r28, r24
    1f66:	97 fd       	sbrc	r25, 7
    1f68:	0f c0       	rjmp	.+30     	; 0x1f88 <random_integer_range+0x28>
    1f6a:	68 17       	cp	r22, r24
    1f6c:	79 07       	cpc	r23, r25
    1f6e:	64 f0       	brlt	.+24     	; 0x1f88 <random_integer_range+0x28>
    1f70:	cb 01       	movw	r24, r22
    1f72:	8c 1b       	sub	r24, r28
    1f74:	9d 0b       	sbc	r25, r29
    1f76:	0e 94 27 0f 	call	0x1e4e	; 0x1e4e <random_integer>
    1f7a:	9e 01       	movw	r18, r28
    1f7c:	28 0f       	add	r18, r24
    1f7e:	39 1f       	adc	r19, r25
    1f80:	c9 01       	movw	r24, r18
    1f82:	df 91       	pop	r29
    1f84:	cf 91       	pop	r28
    1f86:	08 95       	ret
    1f88:	0e 94 84 11 	call	0x2308	; 0x2308 <abort>

00001f8c <random_init>:
    1f8c:	0f 93       	push	r16
    1f8e:	1f 93       	push	r17
    1f90:	0e 94 7f 0d 	call	0x1afe	; 0x1afe <settings_random_seed>
    1f94:	8c 01       	movw	r16, r24
    1f96:	00 d0       	rcall	.+0      	; 0x1f98 <random_init+0xc>
    1f98:	00 d0       	rcall	.+0      	; 0x1f9a <random_init+0xe>
    1f9a:	00 d0       	rcall	.+0      	; 0x1f9c <random_init+0x10>
    1f9c:	ed b7       	in	r30, 0x3d	; 61
    1f9e:	fe b7       	in	r31, 0x3e	; 62
    1fa0:	31 96       	adiw	r30, 0x01	; 1
    1fa2:	ad b7       	in	r26, 0x3d	; 61
    1fa4:	be b7       	in	r27, 0x3e	; 62
    1fa6:	12 96       	adiw	r26, 0x02	; 2
    1fa8:	1c 92       	st	X, r1
    1faa:	1e 92       	st	-X, r1
    1fac:	11 97       	sbiw	r26, 0x01	; 1
    1fae:	8a e0       	ldi	r24, 0x0A	; 10
    1fb0:	92 e0       	ldi	r25, 0x02	; 2
    1fb2:	93 83       	std	Z+3, r25	; 0x03
    1fb4:	82 83       	std	Z+2, r24	; 0x02
    1fb6:	15 83       	std	Z+5, r17	; 0x05
    1fb8:	04 83       	std	Z+4, r16	; 0x04
    1fba:	0e 94 18 0c 	call	0x1830	; 0x1830 <logger_log>
    1fbe:	8d b7       	in	r24, 0x3d	; 61
    1fc0:	9e b7       	in	r25, 0x3e	; 62
    1fc2:	06 96       	adiw	r24, 0x06	; 6
    1fc4:	0f b6       	in	r0, 0x3f	; 63
    1fc6:	f8 94       	cli
    1fc8:	9e bf       	out	0x3e, r25	; 62
    1fca:	0f be       	out	0x3f, r0	; 63
    1fcc:	8d bf       	out	0x3d, r24	; 61
    1fce:	c8 01       	movw	r24, r16
    1fd0:	0e 94 79 11 	call	0x22f2	; 0x22f2 <srand>
    1fd4:	1f 91       	pop	r17
    1fd6:	0f 91       	pop	r16
    1fd8:	08 95       	ret

00001fda <__divmodhi4>:
    1fda:	97 fb       	bst	r25, 7
    1fdc:	09 2e       	mov	r0, r25
    1fde:	07 26       	eor	r0, r23
    1fe0:	0a d0       	rcall	.+20     	; 0x1ff6 <__divmodhi4_neg1>
    1fe2:	77 fd       	sbrc	r23, 7
    1fe4:	04 d0       	rcall	.+8      	; 0x1fee <__divmodhi4_neg2>
    1fe6:	0c d0       	rcall	.+24     	; 0x2000 <__udivmodhi4>
    1fe8:	06 d0       	rcall	.+12     	; 0x1ff6 <__divmodhi4_neg1>
    1fea:	00 20       	and	r0, r0
    1fec:	1a f4       	brpl	.+6      	; 0x1ff4 <__divmodhi4_exit>

00001fee <__divmodhi4_neg2>:
    1fee:	70 95       	com	r23
    1ff0:	61 95       	neg	r22
    1ff2:	7f 4f       	sbci	r23, 0xFF	; 255

00001ff4 <__divmodhi4_exit>:
    1ff4:	08 95       	ret

00001ff6 <__divmodhi4_neg1>:
    1ff6:	f6 f7       	brtc	.-4      	; 0x1ff4 <__divmodhi4_exit>
    1ff8:	90 95       	com	r25
    1ffa:	81 95       	neg	r24
    1ffc:	9f 4f       	sbci	r25, 0xFF	; 255
    1ffe:	08 95       	ret

00002000 <__udivmodhi4>:
    2000:	aa 1b       	sub	r26, r26
    2002:	bb 1b       	sub	r27, r27
    2004:	51 e1       	ldi	r21, 0x11	; 17
    2006:	07 c0       	rjmp	.+14     	; 0x2016 <__udivmodhi4_ep>

00002008 <__udivmodhi4_loop>:
    2008:	aa 1f       	adc	r26, r26
    200a:	bb 1f       	adc	r27, r27
    200c:	a6 17       	cp	r26, r22
    200e:	b7 07       	cpc	r27, r23
    2010:	10 f0       	brcs	.+4      	; 0x2016 <__udivmodhi4_ep>
    2012:	a6 1b       	sub	r26, r22
    2014:	b7 0b       	sbc	r27, r23

00002016 <__udivmodhi4_ep>:
    2016:	88 1f       	adc	r24, r24
    2018:	99 1f       	adc	r25, r25
    201a:	5a 95       	dec	r21
    201c:	a9 f7       	brne	.-22     	; 0x2008 <__udivmodhi4_loop>
    201e:	80 95       	com	r24
    2020:	90 95       	com	r25
    2022:	bc 01       	movw	r22, r24
    2024:	cd 01       	movw	r24, r26
    2026:	08 95       	ret

00002028 <malloc>:
    2028:	cf 93       	push	r28
    202a:	df 93       	push	r29
    202c:	bc 01       	movw	r22, r24
    202e:	82 30       	cpi	r24, 0x02	; 2
    2030:	91 05       	cpc	r25, r1
    2032:	10 f4       	brcc	.+4      	; 0x2038 <malloc+0x10>
    2034:	62 e0       	ldi	r22, 0x02	; 2
    2036:	70 e0       	ldi	r23, 0x00	; 0
    2038:	a0 91 20 13 	lds	r26, 0x1320
    203c:	b0 91 21 13 	lds	r27, 0x1321
    2040:	ed 01       	movw	r28, r26
    2042:	e0 e0       	ldi	r30, 0x00	; 0
    2044:	f0 e0       	ldi	r31, 0x00	; 0
    2046:	40 e0       	ldi	r20, 0x00	; 0
    2048:	50 e0       	ldi	r21, 0x00	; 0
    204a:	21 c0       	rjmp	.+66     	; 0x208e <malloc+0x66>
    204c:	88 81       	ld	r24, Y
    204e:	99 81       	ldd	r25, Y+1	; 0x01
    2050:	86 17       	cp	r24, r22
    2052:	97 07       	cpc	r25, r23
    2054:	69 f4       	brne	.+26     	; 0x2070 <malloc+0x48>
    2056:	8a 81       	ldd	r24, Y+2	; 0x02
    2058:	9b 81       	ldd	r25, Y+3	; 0x03
    205a:	30 97       	sbiw	r30, 0x00	; 0
    205c:	19 f0       	breq	.+6      	; 0x2064 <malloc+0x3c>
    205e:	93 83       	std	Z+3, r25	; 0x03
    2060:	82 83       	std	Z+2, r24	; 0x02
    2062:	04 c0       	rjmp	.+8      	; 0x206c <malloc+0x44>
    2064:	90 93 21 13 	sts	0x1321, r25
    2068:	80 93 20 13 	sts	0x1320, r24
    206c:	fe 01       	movw	r30, r28
    206e:	34 c0       	rjmp	.+104    	; 0x20d8 <malloc+0xb0>
    2070:	68 17       	cp	r22, r24
    2072:	79 07       	cpc	r23, r25
    2074:	38 f4       	brcc	.+14     	; 0x2084 <malloc+0x5c>
    2076:	41 15       	cp	r20, r1
    2078:	51 05       	cpc	r21, r1
    207a:	19 f0       	breq	.+6      	; 0x2082 <malloc+0x5a>
    207c:	84 17       	cp	r24, r20
    207e:	95 07       	cpc	r25, r21
    2080:	08 f4       	brcc	.+2      	; 0x2084 <malloc+0x5c>
    2082:	ac 01       	movw	r20, r24
    2084:	fe 01       	movw	r30, r28
    2086:	8a 81       	ldd	r24, Y+2	; 0x02
    2088:	9b 81       	ldd	r25, Y+3	; 0x03
    208a:	9c 01       	movw	r18, r24
    208c:	e9 01       	movw	r28, r18
    208e:	20 97       	sbiw	r28, 0x00	; 0
    2090:	e9 f6       	brne	.-70     	; 0x204c <malloc+0x24>
    2092:	41 15       	cp	r20, r1
    2094:	51 05       	cpc	r21, r1
    2096:	a9 f1       	breq	.+106    	; 0x2102 <malloc+0xda>
    2098:	ca 01       	movw	r24, r20
    209a:	86 1b       	sub	r24, r22
    209c:	97 0b       	sbc	r25, r23
    209e:	04 97       	sbiw	r24, 0x04	; 4
    20a0:	08 f4       	brcc	.+2      	; 0x20a4 <malloc+0x7c>
    20a2:	ba 01       	movw	r22, r20
    20a4:	e0 e0       	ldi	r30, 0x00	; 0
    20a6:	f0 e0       	ldi	r31, 0x00	; 0
    20a8:	2a c0       	rjmp	.+84     	; 0x20fe <malloc+0xd6>
    20aa:	8d 91       	ld	r24, X+
    20ac:	9c 91       	ld	r25, X
    20ae:	11 97       	sbiw	r26, 0x01	; 1
    20b0:	84 17       	cp	r24, r20
    20b2:	95 07       	cpc	r25, r21
    20b4:	f9 f4       	brne	.+62     	; 0x20f4 <malloc+0xcc>
    20b6:	64 17       	cp	r22, r20
    20b8:	75 07       	cpc	r23, r21
    20ba:	81 f4       	brne	.+32     	; 0x20dc <malloc+0xb4>
    20bc:	12 96       	adiw	r26, 0x02	; 2
    20be:	8d 91       	ld	r24, X+
    20c0:	9c 91       	ld	r25, X
    20c2:	13 97       	sbiw	r26, 0x03	; 3
    20c4:	30 97       	sbiw	r30, 0x00	; 0
    20c6:	19 f0       	breq	.+6      	; 0x20ce <malloc+0xa6>
    20c8:	93 83       	std	Z+3, r25	; 0x03
    20ca:	82 83       	std	Z+2, r24	; 0x02
    20cc:	04 c0       	rjmp	.+8      	; 0x20d6 <malloc+0xae>
    20ce:	90 93 21 13 	sts	0x1321, r25
    20d2:	80 93 20 13 	sts	0x1320, r24
    20d6:	fd 01       	movw	r30, r26
    20d8:	32 96       	adiw	r30, 0x02	; 2
    20da:	4f c0       	rjmp	.+158    	; 0x217a <malloc+0x152>
    20dc:	ca 01       	movw	r24, r20
    20de:	86 1b       	sub	r24, r22
    20e0:	97 0b       	sbc	r25, r23
    20e2:	fd 01       	movw	r30, r26
    20e4:	e8 0f       	add	r30, r24
    20e6:	f9 1f       	adc	r31, r25
    20e8:	61 93       	st	Z+, r22
    20ea:	71 93       	st	Z+, r23
    20ec:	02 97       	sbiw	r24, 0x02	; 2
    20ee:	8d 93       	st	X+, r24
    20f0:	9c 93       	st	X, r25
    20f2:	43 c0       	rjmp	.+134    	; 0x217a <malloc+0x152>
    20f4:	fd 01       	movw	r30, r26
    20f6:	82 81       	ldd	r24, Z+2	; 0x02
    20f8:	93 81       	ldd	r25, Z+3	; 0x03
    20fa:	9c 01       	movw	r18, r24
    20fc:	d9 01       	movw	r26, r18
    20fe:	10 97       	sbiw	r26, 0x00	; 0
    2100:	a1 f6       	brne	.-88     	; 0x20aa <malloc+0x82>
    2102:	80 91 1e 13 	lds	r24, 0x131E
    2106:	90 91 1f 13 	lds	r25, 0x131F
    210a:	89 2b       	or	r24, r25
    210c:	41 f4       	brne	.+16     	; 0x211e <malloc+0xf6>
    210e:	80 91 1a 02 	lds	r24, 0x021A
    2112:	90 91 1b 02 	lds	r25, 0x021B
    2116:	90 93 1f 13 	sts	0x131F, r25
    211a:	80 93 1e 13 	sts	0x131E, r24
    211e:	40 91 1c 02 	lds	r20, 0x021C
    2122:	50 91 1d 02 	lds	r21, 0x021D
    2126:	41 15       	cp	r20, r1
    2128:	51 05       	cpc	r21, r1
    212a:	41 f4       	brne	.+16     	; 0x213c <malloc+0x114>
    212c:	4d b7       	in	r20, 0x3d	; 61
    212e:	5e b7       	in	r21, 0x3e	; 62
    2130:	80 91 18 02 	lds	r24, 0x0218
    2134:	90 91 19 02 	lds	r25, 0x0219
    2138:	48 1b       	sub	r20, r24
    213a:	59 0b       	sbc	r21, r25
    213c:	20 91 1e 13 	lds	r18, 0x131E
    2140:	30 91 1f 13 	lds	r19, 0x131F
    2144:	24 17       	cp	r18, r20
    2146:	35 07       	cpc	r19, r21
    2148:	b0 f4       	brcc	.+44     	; 0x2176 <malloc+0x14e>
    214a:	ca 01       	movw	r24, r20
    214c:	82 1b       	sub	r24, r18
    214e:	93 0b       	sbc	r25, r19
    2150:	86 17       	cp	r24, r22
    2152:	97 07       	cpc	r25, r23
    2154:	80 f0       	brcs	.+32     	; 0x2176 <malloc+0x14e>
    2156:	ab 01       	movw	r20, r22
    2158:	4e 5f       	subi	r20, 0xFE	; 254
    215a:	5f 4f       	sbci	r21, 0xFF	; 255
    215c:	84 17       	cp	r24, r20
    215e:	95 07       	cpc	r25, r21
    2160:	50 f0       	brcs	.+20     	; 0x2176 <malloc+0x14e>
    2162:	42 0f       	add	r20, r18
    2164:	53 1f       	adc	r21, r19
    2166:	50 93 1f 13 	sts	0x131F, r21
    216a:	40 93 1e 13 	sts	0x131E, r20
    216e:	f9 01       	movw	r30, r18
    2170:	61 93       	st	Z+, r22
    2172:	71 93       	st	Z+, r23
    2174:	02 c0       	rjmp	.+4      	; 0x217a <malloc+0x152>
    2176:	e0 e0       	ldi	r30, 0x00	; 0
    2178:	f0 e0       	ldi	r31, 0x00	; 0
    217a:	cf 01       	movw	r24, r30
    217c:	df 91       	pop	r29
    217e:	cf 91       	pop	r28
    2180:	08 95       	ret

00002182 <free>:
    2182:	cf 93       	push	r28
    2184:	df 93       	push	r29
    2186:	00 97       	sbiw	r24, 0x00	; 0
    2188:	09 f4       	brne	.+2      	; 0x218c <free+0xa>
    218a:	50 c0       	rjmp	.+160    	; 0x222c <free+0xaa>
    218c:	ec 01       	movw	r28, r24
    218e:	22 97       	sbiw	r28, 0x02	; 2
    2190:	1b 82       	std	Y+3, r1	; 0x03
    2192:	1a 82       	std	Y+2, r1	; 0x02
    2194:	a0 91 20 13 	lds	r26, 0x1320
    2198:	b0 91 21 13 	lds	r27, 0x1321
    219c:	10 97       	sbiw	r26, 0x00	; 0
    219e:	09 f1       	breq	.+66     	; 0x21e2 <free+0x60>
    21a0:	40 e0       	ldi	r20, 0x00	; 0
    21a2:	50 e0       	ldi	r21, 0x00	; 0
    21a4:	ac 17       	cp	r26, r28
    21a6:	bd 07       	cpc	r27, r29
    21a8:	08 f1       	brcs	.+66     	; 0x21ec <free+0x6a>
    21aa:	bb 83       	std	Y+3, r27	; 0x03
    21ac:	aa 83       	std	Y+2, r26	; 0x02
    21ae:	fe 01       	movw	r30, r28
    21b0:	21 91       	ld	r18, Z+
    21b2:	31 91       	ld	r19, Z+
    21b4:	e2 0f       	add	r30, r18
    21b6:	f3 1f       	adc	r31, r19
    21b8:	ae 17       	cp	r26, r30
    21ba:	bf 07       	cpc	r27, r31
    21bc:	79 f4       	brne	.+30     	; 0x21dc <free+0x5a>
    21be:	8d 91       	ld	r24, X+
    21c0:	9c 91       	ld	r25, X
    21c2:	11 97       	sbiw	r26, 0x01	; 1
    21c4:	28 0f       	add	r18, r24
    21c6:	39 1f       	adc	r19, r25
    21c8:	2e 5f       	subi	r18, 0xFE	; 254
    21ca:	3f 4f       	sbci	r19, 0xFF	; 255
    21cc:	39 83       	std	Y+1, r19	; 0x01
    21ce:	28 83       	st	Y, r18
    21d0:	12 96       	adiw	r26, 0x02	; 2
    21d2:	8d 91       	ld	r24, X+
    21d4:	9c 91       	ld	r25, X
    21d6:	13 97       	sbiw	r26, 0x03	; 3
    21d8:	9b 83       	std	Y+3, r25	; 0x03
    21da:	8a 83       	std	Y+2, r24	; 0x02
    21dc:	41 15       	cp	r20, r1
    21de:	51 05       	cpc	r21, r1
    21e0:	71 f4       	brne	.+28     	; 0x21fe <free+0x7c>
    21e2:	d0 93 21 13 	sts	0x1321, r29
    21e6:	c0 93 20 13 	sts	0x1320, r28
    21ea:	20 c0       	rjmp	.+64     	; 0x222c <free+0xaa>
    21ec:	12 96       	adiw	r26, 0x02	; 2
    21ee:	8d 91       	ld	r24, X+
    21f0:	9c 91       	ld	r25, X
    21f2:	13 97       	sbiw	r26, 0x03	; 3
    21f4:	ad 01       	movw	r20, r26
    21f6:	00 97       	sbiw	r24, 0x00	; 0
    21f8:	11 f0       	breq	.+4      	; 0x21fe <free+0x7c>
    21fa:	dc 01       	movw	r26, r24
    21fc:	d3 cf       	rjmp	.-90     	; 0x21a4 <free+0x22>
    21fe:	fa 01       	movw	r30, r20
    2200:	d3 83       	std	Z+3, r29	; 0x03
    2202:	c2 83       	std	Z+2, r28	; 0x02
    2204:	21 91       	ld	r18, Z+
    2206:	31 91       	ld	r19, Z+
    2208:	e2 0f       	add	r30, r18
    220a:	f3 1f       	adc	r31, r19
    220c:	ce 17       	cp	r28, r30
    220e:	df 07       	cpc	r29, r31
    2210:	69 f4       	brne	.+26     	; 0x222c <free+0xaa>
    2212:	88 81       	ld	r24, Y
    2214:	99 81       	ldd	r25, Y+1	; 0x01
    2216:	28 0f       	add	r18, r24
    2218:	39 1f       	adc	r19, r25
    221a:	2e 5f       	subi	r18, 0xFE	; 254
    221c:	3f 4f       	sbci	r19, 0xFF	; 255
    221e:	fa 01       	movw	r30, r20
    2220:	31 83       	std	Z+1, r19	; 0x01
    2222:	20 83       	st	Z, r18
    2224:	8a 81       	ldd	r24, Y+2	; 0x02
    2226:	9b 81       	ldd	r25, Y+3	; 0x03
    2228:	93 83       	std	Z+3, r25	; 0x03
    222a:	82 83       	std	Z+2, r24	; 0x02
    222c:	df 91       	pop	r29
    222e:	cf 91       	pop	r28
    2230:	08 95       	ret

00002232 <do_rand>:
    2232:	af 92       	push	r10
    2234:	bf 92       	push	r11
    2236:	cf 92       	push	r12
    2238:	df 92       	push	r13
    223a:	ef 92       	push	r14
    223c:	ff 92       	push	r15
    223e:	0f 93       	push	r16
    2240:	1f 93       	push	r17
    2242:	cf 93       	push	r28
    2244:	df 93       	push	r29
    2246:	ec 01       	movw	r28, r24
    2248:	a8 80       	ld	r10, Y
    224a:	b9 80       	ldd	r11, Y+1	; 0x01
    224c:	ca 80       	ldd	r12, Y+2	; 0x02
    224e:	db 80       	ldd	r13, Y+3	; 0x03
    2250:	a1 14       	cp	r10, r1
    2252:	b1 04       	cpc	r11, r1
    2254:	c1 04       	cpc	r12, r1
    2256:	d1 04       	cpc	r13, r1
    2258:	41 f4       	brne	.+16     	; 0x226a <do_rand+0x38>
    225a:	84 e2       	ldi	r24, 0x24	; 36
    225c:	a8 2e       	mov	r10, r24
    225e:	89 ed       	ldi	r24, 0xD9	; 217
    2260:	b8 2e       	mov	r11, r24
    2262:	8b e5       	ldi	r24, 0x5B	; 91
    2264:	c8 2e       	mov	r12, r24
    2266:	87 e0       	ldi	r24, 0x07	; 7
    2268:	d8 2e       	mov	r13, r24
    226a:	c6 01       	movw	r24, r12
    226c:	b5 01       	movw	r22, r10
    226e:	2d e1       	ldi	r18, 0x1D	; 29
    2270:	33 ef       	ldi	r19, 0xF3	; 243
    2272:	41 e0       	ldi	r20, 0x01	; 1
    2274:	50 e0       	ldi	r21, 0x00	; 0
    2276:	0e 94 2f 15 	call	0x2a5e	; 0x2a5e <__divmodsi4>
    227a:	27 ea       	ldi	r18, 0xA7	; 167
    227c:	31 e4       	ldi	r19, 0x41	; 65
    227e:	40 e0       	ldi	r20, 0x00	; 0
    2280:	50 e0       	ldi	r21, 0x00	; 0
    2282:	0e 94 10 15 	call	0x2a20	; 0x2a20 <__mulsi3>
    2286:	7b 01       	movw	r14, r22
    2288:	8c 01       	movw	r16, r24
    228a:	c6 01       	movw	r24, r12
    228c:	b5 01       	movw	r22, r10
    228e:	2d e1       	ldi	r18, 0x1D	; 29
    2290:	33 ef       	ldi	r19, 0xF3	; 243
    2292:	41 e0       	ldi	r20, 0x01	; 1
    2294:	50 e0       	ldi	r21, 0x00	; 0
    2296:	0e 94 2f 15 	call	0x2a5e	; 0x2a5e <__divmodsi4>
    229a:	ca 01       	movw	r24, r20
    229c:	b9 01       	movw	r22, r18
    229e:	2c ee       	ldi	r18, 0xEC	; 236
    22a0:	34 ef       	ldi	r19, 0xF4	; 244
    22a2:	4f ef       	ldi	r20, 0xFF	; 255
    22a4:	5f ef       	ldi	r21, 0xFF	; 255
    22a6:	0e 94 10 15 	call	0x2a20	; 0x2a20 <__mulsi3>
    22aa:	6e 0d       	add	r22, r14
    22ac:	7f 1d       	adc	r23, r15
    22ae:	80 1f       	adc	r24, r16
    22b0:	91 1f       	adc	r25, r17
    22b2:	97 ff       	sbrs	r25, 7
    22b4:	04 c0       	rjmp	.+8      	; 0x22be <do_rand+0x8c>
    22b6:	61 50       	subi	r22, 0x01	; 1
    22b8:	70 40       	sbci	r23, 0x00	; 0
    22ba:	80 40       	sbci	r24, 0x00	; 0
    22bc:	90 48       	sbci	r25, 0x80	; 128
    22be:	68 83       	st	Y, r22
    22c0:	79 83       	std	Y+1, r23	; 0x01
    22c2:	8a 83       	std	Y+2, r24	; 0x02
    22c4:	9b 83       	std	Y+3, r25	; 0x03
    22c6:	9b 01       	movw	r18, r22
    22c8:	3f 77       	andi	r19, 0x7F	; 127
    22ca:	c9 01       	movw	r24, r18
    22cc:	df 91       	pop	r29
    22ce:	cf 91       	pop	r28
    22d0:	1f 91       	pop	r17
    22d2:	0f 91       	pop	r16
    22d4:	ff 90       	pop	r15
    22d6:	ef 90       	pop	r14
    22d8:	df 90       	pop	r13
    22da:	cf 90       	pop	r12
    22dc:	bf 90       	pop	r11
    22de:	af 90       	pop	r10
    22e0:	08 95       	ret

000022e2 <rand_r>:
    22e2:	0e 94 19 11 	call	0x2232	; 0x2232 <do_rand>
    22e6:	08 95       	ret

000022e8 <rand>:
    22e8:	8e e1       	ldi	r24, 0x1E	; 30
    22ea:	92 e0       	ldi	r25, 0x02	; 2
    22ec:	0e 94 19 11 	call	0x2232	; 0x2232 <do_rand>
    22f0:	08 95       	ret

000022f2 <srand>:
    22f2:	a0 e0       	ldi	r26, 0x00	; 0
    22f4:	b0 e0       	ldi	r27, 0x00	; 0
    22f6:	80 93 1e 02 	sts	0x021E, r24
    22fa:	90 93 1f 02 	sts	0x021F, r25
    22fe:	a0 93 20 02 	sts	0x0220, r26
    2302:	b0 93 21 02 	sts	0x0221, r27
    2306:	08 95       	ret

00002308 <abort>:
    2308:	81 e0       	ldi	r24, 0x01	; 1
    230a:	90 e0       	ldi	r25, 0x00	; 0
    230c:	f8 94       	cli
    230e:	0c 94 6c 15 	jmp	0x2ad8	; 0x2ad8 <_exit>

00002312 <memcpy>:
    2312:	fb 01       	movw	r30, r22
    2314:	dc 01       	movw	r26, r24
    2316:	02 c0       	rjmp	.+4      	; 0x231c <memcpy+0xa>
    2318:	01 90       	ld	r0, Z+
    231a:	0d 92       	st	X+, r0
    231c:	41 50       	subi	r20, 0x01	; 1
    231e:	50 40       	sbci	r21, 0x00	; 0
    2320:	d8 f7       	brcc	.-10     	; 0x2318 <memcpy+0x6>
    2322:	08 95       	ret

00002324 <strcmp>:
    2324:	fb 01       	movw	r30, r22
    2326:	dc 01       	movw	r26, r24
    2328:	8d 91       	ld	r24, X+
    232a:	01 90       	ld	r0, Z+
    232c:	80 19       	sub	r24, r0
    232e:	01 10       	cpse	r0, r1
    2330:	d9 f3       	breq	.-10     	; 0x2328 <strcmp+0x4>
    2332:	99 0b       	sbc	r25, r25
    2334:	08 95       	ret

00002336 <snprintf>:
    2336:	0f 93       	push	r16
    2338:	1f 93       	push	r17
    233a:	df 93       	push	r29
    233c:	cf 93       	push	r28
    233e:	cd b7       	in	r28, 0x3d	; 61
    2340:	de b7       	in	r29, 0x3e	; 62
    2342:	2e 97       	sbiw	r28, 0x0e	; 14
    2344:	0f b6       	in	r0, 0x3f	; 63
    2346:	f8 94       	cli
    2348:	de bf       	out	0x3e, r29	; 62
    234a:	0f be       	out	0x3f, r0	; 63
    234c:	cd bf       	out	0x3d, r28	; 61
    234e:	0d 89       	ldd	r16, Y+21	; 0x15
    2350:	1e 89       	ldd	r17, Y+22	; 0x16
    2352:	8f 89       	ldd	r24, Y+23	; 0x17
    2354:	98 8d       	ldd	r25, Y+24	; 0x18
    2356:	97 ff       	sbrs	r25, 7
    2358:	02 c0       	rjmp	.+4      	; 0x235e <snprintf+0x28>
    235a:	80 e0       	ldi	r24, 0x00	; 0
    235c:	90 e8       	ldi	r25, 0x80	; 128
    235e:	01 97       	sbiw	r24, 0x01	; 1
    2360:	9e 83       	std	Y+6, r25	; 0x06
    2362:	8d 83       	std	Y+5, r24	; 0x05
    2364:	1a 83       	std	Y+2, r17	; 0x02
    2366:	09 83       	std	Y+1, r16	; 0x01
    2368:	86 e0       	ldi	r24, 0x06	; 6
    236a:	8c 83       	std	Y+4, r24	; 0x04
    236c:	9e 01       	movw	r18, r28
    236e:	25 5e       	subi	r18, 0xE5	; 229
    2370:	3f 4f       	sbci	r19, 0xFF	; 255
    2372:	ce 01       	movw	r24, r28
    2374:	01 96       	adiw	r24, 0x01	; 1
    2376:	69 8d       	ldd	r22, Y+25	; 0x19
    2378:	7a 8d       	ldd	r23, Y+26	; 0x1a
    237a:	a9 01       	movw	r20, r18
    237c:	0e 94 6a 12 	call	0x24d4	; 0x24d4 <vfprintf>
    2380:	4d 81       	ldd	r20, Y+5	; 0x05
    2382:	5e 81       	ldd	r21, Y+6	; 0x06
    2384:	57 fd       	sbrc	r21, 7
    2386:	0a c0       	rjmp	.+20     	; 0x239c <snprintf+0x66>
    2388:	2f 81       	ldd	r18, Y+7	; 0x07
    238a:	38 85       	ldd	r19, Y+8	; 0x08
    238c:	42 17       	cp	r20, r18
    238e:	53 07       	cpc	r21, r19
    2390:	0c f4       	brge	.+2      	; 0x2394 <snprintf+0x5e>
    2392:	9a 01       	movw	r18, r20
    2394:	02 0f       	add	r16, r18
    2396:	13 1f       	adc	r17, r19
    2398:	f8 01       	movw	r30, r16
    239a:	10 82       	st	Z, r1
    239c:	2e 96       	adiw	r28, 0x0e	; 14
    239e:	0f b6       	in	r0, 0x3f	; 63
    23a0:	f8 94       	cli
    23a2:	de bf       	out	0x3e, r29	; 62
    23a4:	0f be       	out	0x3f, r0	; 63
    23a6:	cd bf       	out	0x3d, r28	; 61
    23a8:	cf 91       	pop	r28
    23aa:	df 91       	pop	r29
    23ac:	1f 91       	pop	r17
    23ae:	0f 91       	pop	r16
    23b0:	08 95       	ret

000023b2 <sprintf>:
    23b2:	0f 93       	push	r16
    23b4:	1f 93       	push	r17
    23b6:	df 93       	push	r29
    23b8:	cf 93       	push	r28
    23ba:	cd b7       	in	r28, 0x3d	; 61
    23bc:	de b7       	in	r29, 0x3e	; 62
    23be:	2e 97       	sbiw	r28, 0x0e	; 14
    23c0:	0f b6       	in	r0, 0x3f	; 63
    23c2:	f8 94       	cli
    23c4:	de bf       	out	0x3e, r29	; 62
    23c6:	0f be       	out	0x3f, r0	; 63
    23c8:	cd bf       	out	0x3d, r28	; 61
    23ca:	0d 89       	ldd	r16, Y+21	; 0x15
    23cc:	1e 89       	ldd	r17, Y+22	; 0x16
    23ce:	86 e0       	ldi	r24, 0x06	; 6
    23d0:	8c 83       	std	Y+4, r24	; 0x04
    23d2:	1a 83       	std	Y+2, r17	; 0x02
    23d4:	09 83       	std	Y+1, r16	; 0x01
    23d6:	8f ef       	ldi	r24, 0xFF	; 255
    23d8:	9f e7       	ldi	r25, 0x7F	; 127
    23da:	9e 83       	std	Y+6, r25	; 0x06
    23dc:	8d 83       	std	Y+5, r24	; 0x05
    23de:	9e 01       	movw	r18, r28
    23e0:	27 5e       	subi	r18, 0xE7	; 231
    23e2:	3f 4f       	sbci	r19, 0xFF	; 255
    23e4:	ce 01       	movw	r24, r28
    23e6:	01 96       	adiw	r24, 0x01	; 1
    23e8:	6f 89       	ldd	r22, Y+23	; 0x17
    23ea:	78 8d       	ldd	r23, Y+24	; 0x18
    23ec:	a9 01       	movw	r20, r18
    23ee:	0e 94 6a 12 	call	0x24d4	; 0x24d4 <vfprintf>
    23f2:	2f 81       	ldd	r18, Y+7	; 0x07
    23f4:	38 85       	ldd	r19, Y+8	; 0x08
    23f6:	02 0f       	add	r16, r18
    23f8:	13 1f       	adc	r17, r19
    23fa:	f8 01       	movw	r30, r16
    23fc:	10 82       	st	Z, r1
    23fe:	2e 96       	adiw	r28, 0x0e	; 14
    2400:	0f b6       	in	r0, 0x3f	; 63
    2402:	f8 94       	cli
    2404:	de bf       	out	0x3e, r29	; 62
    2406:	0f be       	out	0x3f, r0	; 63
    2408:	cd bf       	out	0x3d, r28	; 61
    240a:	cf 91       	pop	r28
    240c:	df 91       	pop	r29
    240e:	1f 91       	pop	r17
    2410:	0f 91       	pop	r16
    2412:	08 95       	ret

00002414 <vsnprintf>:
    2414:	0f 93       	push	r16
    2416:	1f 93       	push	r17
    2418:	df 93       	push	r29
    241a:	cf 93       	push	r28
    241c:	cd b7       	in	r28, 0x3d	; 61
    241e:	de b7       	in	r29, 0x3e	; 62
    2420:	2e 97       	sbiw	r28, 0x0e	; 14
    2422:	0f b6       	in	r0, 0x3f	; 63
    2424:	f8 94       	cli
    2426:	de bf       	out	0x3e, r29	; 62
    2428:	0f be       	out	0x3f, r0	; 63
    242a:	cd bf       	out	0x3d, r28	; 61
    242c:	8c 01       	movw	r16, r24
    242e:	77 ff       	sbrs	r23, 7
    2430:	02 c0       	rjmp	.+4      	; 0x2436 <vsnprintf+0x22>
    2432:	60 e0       	ldi	r22, 0x00	; 0
    2434:	70 e8       	ldi	r23, 0x80	; 128
    2436:	61 50       	subi	r22, 0x01	; 1
    2438:	70 40       	sbci	r23, 0x00	; 0
    243a:	7e 83       	std	Y+6, r23	; 0x06
    243c:	6d 83       	std	Y+5, r22	; 0x05
    243e:	1a 83       	std	Y+2, r17	; 0x02
    2440:	09 83       	std	Y+1, r16	; 0x01
    2442:	86 e0       	ldi	r24, 0x06	; 6
    2444:	8c 83       	std	Y+4, r24	; 0x04
    2446:	ce 01       	movw	r24, r28
    2448:	01 96       	adiw	r24, 0x01	; 1
    244a:	ba 01       	movw	r22, r20
    244c:	a9 01       	movw	r20, r18
    244e:	0e 94 6a 12 	call	0x24d4	; 0x24d4 <vfprintf>
    2452:	2d 81       	ldd	r18, Y+5	; 0x05
    2454:	3e 81       	ldd	r19, Y+6	; 0x06
    2456:	37 fd       	sbrc	r19, 7
    2458:	09 c0       	rjmp	.+18     	; 0x246c <vsnprintf+0x58>
    245a:	ef 81       	ldd	r30, Y+7	; 0x07
    245c:	f8 85       	ldd	r31, Y+8	; 0x08
    245e:	2e 17       	cp	r18, r30
    2460:	3f 07       	cpc	r19, r31
    2462:	0c f4       	brge	.+2      	; 0x2466 <vsnprintf+0x52>
    2464:	f9 01       	movw	r30, r18
    2466:	e0 0f       	add	r30, r16
    2468:	f1 1f       	adc	r31, r17
    246a:	10 82       	st	Z, r1
    246c:	2e 96       	adiw	r28, 0x0e	; 14
    246e:	0f b6       	in	r0, 0x3f	; 63
    2470:	f8 94       	cli
    2472:	de bf       	out	0x3e, r29	; 62
    2474:	0f be       	out	0x3f, r0	; 63
    2476:	cd bf       	out	0x3d, r28	; 61
    2478:	cf 91       	pop	r28
    247a:	df 91       	pop	r29
    247c:	1f 91       	pop	r17
    247e:	0f 91       	pop	r16
    2480:	08 95       	ret

00002482 <vsprintf>:
    2482:	0f 93       	push	r16
    2484:	1f 93       	push	r17
    2486:	df 93       	push	r29
    2488:	cf 93       	push	r28
    248a:	cd b7       	in	r28, 0x3d	; 61
    248c:	de b7       	in	r29, 0x3e	; 62
    248e:	2e 97       	sbiw	r28, 0x0e	; 14
    2490:	0f b6       	in	r0, 0x3f	; 63
    2492:	f8 94       	cli
    2494:	de bf       	out	0x3e, r29	; 62
    2496:	0f be       	out	0x3f, r0	; 63
    2498:	cd bf       	out	0x3d, r28	; 61
    249a:	8c 01       	movw	r16, r24
    249c:	86 e0       	ldi	r24, 0x06	; 6
    249e:	8c 83       	std	Y+4, r24	; 0x04
    24a0:	1a 83       	std	Y+2, r17	; 0x02
    24a2:	09 83       	std	Y+1, r16	; 0x01
    24a4:	8f ef       	ldi	r24, 0xFF	; 255
    24a6:	9f e7       	ldi	r25, 0x7F	; 127
    24a8:	9e 83       	std	Y+6, r25	; 0x06
    24aa:	8d 83       	std	Y+5, r24	; 0x05
    24ac:	ce 01       	movw	r24, r28
    24ae:	01 96       	adiw	r24, 0x01	; 1
    24b0:	0e 94 6a 12 	call	0x24d4	; 0x24d4 <vfprintf>
    24b4:	ef 81       	ldd	r30, Y+7	; 0x07
    24b6:	f8 85       	ldd	r31, Y+8	; 0x08
    24b8:	e0 0f       	add	r30, r16
    24ba:	f1 1f       	adc	r31, r17
    24bc:	10 82       	st	Z, r1
    24be:	2e 96       	adiw	r28, 0x0e	; 14
    24c0:	0f b6       	in	r0, 0x3f	; 63
    24c2:	f8 94       	cli
    24c4:	de bf       	out	0x3e, r29	; 62
    24c6:	0f be       	out	0x3f, r0	; 63
    24c8:	cd bf       	out	0x3d, r28	; 61
    24ca:	cf 91       	pop	r28
    24cc:	df 91       	pop	r29
    24ce:	1f 91       	pop	r17
    24d0:	0f 91       	pop	r16
    24d2:	08 95       	ret

000024d4 <vfprintf>:
    24d4:	2f 92       	push	r2
    24d6:	3f 92       	push	r3
    24d8:	4f 92       	push	r4
    24da:	5f 92       	push	r5
    24dc:	6f 92       	push	r6
    24de:	7f 92       	push	r7
    24e0:	8f 92       	push	r8
    24e2:	9f 92       	push	r9
    24e4:	af 92       	push	r10
    24e6:	bf 92       	push	r11
    24e8:	cf 92       	push	r12
    24ea:	df 92       	push	r13
    24ec:	ef 92       	push	r14
    24ee:	ff 92       	push	r15
    24f0:	0f 93       	push	r16
    24f2:	1f 93       	push	r17
    24f4:	df 93       	push	r29
    24f6:	cf 93       	push	r28
    24f8:	cd b7       	in	r28, 0x3d	; 61
    24fa:	de b7       	in	r29, 0x3e	; 62
    24fc:	2b 97       	sbiw	r28, 0x0b	; 11
    24fe:	0f b6       	in	r0, 0x3f	; 63
    2500:	f8 94       	cli
    2502:	de bf       	out	0x3e, r29	; 62
    2504:	0f be       	out	0x3f, r0	; 63
    2506:	cd bf       	out	0x3d, r28	; 61
    2508:	3c 01       	movw	r6, r24
    250a:	2b 01       	movw	r4, r22
    250c:	5a 01       	movw	r10, r20
    250e:	fc 01       	movw	r30, r24
    2510:	17 82       	std	Z+7, r1	; 0x07
    2512:	16 82       	std	Z+6, r1	; 0x06
    2514:	83 81       	ldd	r24, Z+3	; 0x03
    2516:	81 fd       	sbrc	r24, 1
    2518:	03 c0       	rjmp	.+6      	; 0x2520 <vfprintf+0x4c>
    251a:	6f ef       	ldi	r22, 0xFF	; 255
    251c:	7f ef       	ldi	r23, 0xFF	; 255
    251e:	c6 c1       	rjmp	.+908    	; 0x28ac <vfprintf+0x3d8>
    2520:	9a e0       	ldi	r25, 0x0A	; 10
    2522:	89 2e       	mov	r8, r25
    2524:	1e 01       	movw	r2, r28
    2526:	08 94       	sec
    2528:	21 1c       	adc	r2, r1
    252a:	31 1c       	adc	r3, r1
    252c:	f3 01       	movw	r30, r6
    252e:	23 81       	ldd	r18, Z+3	; 0x03
    2530:	f2 01       	movw	r30, r4
    2532:	23 fd       	sbrc	r18, 3
    2534:	85 91       	lpm	r24, Z+
    2536:	23 ff       	sbrs	r18, 3
    2538:	81 91       	ld	r24, Z+
    253a:	2f 01       	movw	r4, r30
    253c:	88 23       	and	r24, r24
    253e:	09 f4       	brne	.+2      	; 0x2542 <vfprintf+0x6e>
    2540:	b2 c1       	rjmp	.+868    	; 0x28a6 <vfprintf+0x3d2>
    2542:	85 32       	cpi	r24, 0x25	; 37
    2544:	39 f4       	brne	.+14     	; 0x2554 <vfprintf+0x80>
    2546:	23 fd       	sbrc	r18, 3
    2548:	85 91       	lpm	r24, Z+
    254a:	23 ff       	sbrs	r18, 3
    254c:	81 91       	ld	r24, Z+
    254e:	2f 01       	movw	r4, r30
    2550:	85 32       	cpi	r24, 0x25	; 37
    2552:	29 f4       	brne	.+10     	; 0x255e <vfprintf+0x8a>
    2554:	90 e0       	ldi	r25, 0x00	; 0
    2556:	b3 01       	movw	r22, r6
    2558:	0e 94 86 14 	call	0x290c	; 0x290c <fputc>
    255c:	e7 cf       	rjmp	.-50     	; 0x252c <vfprintf+0x58>
    255e:	98 2f       	mov	r25, r24
    2560:	ff 24       	eor	r15, r15
    2562:	ee 24       	eor	r14, r14
    2564:	99 24       	eor	r9, r9
    2566:	ff e1       	ldi	r31, 0x1F	; 31
    2568:	ff 15       	cp	r31, r15
    256a:	d0 f0       	brcs	.+52     	; 0x25a0 <vfprintf+0xcc>
    256c:	9b 32       	cpi	r25, 0x2B	; 43
    256e:	69 f0       	breq	.+26     	; 0x258a <vfprintf+0xb6>
    2570:	9c 32       	cpi	r25, 0x2C	; 44
    2572:	28 f4       	brcc	.+10     	; 0x257e <vfprintf+0xaa>
    2574:	90 32       	cpi	r25, 0x20	; 32
    2576:	59 f0       	breq	.+22     	; 0x258e <vfprintf+0xba>
    2578:	93 32       	cpi	r25, 0x23	; 35
    257a:	91 f4       	brne	.+36     	; 0x25a0 <vfprintf+0xcc>
    257c:	0e c0       	rjmp	.+28     	; 0x259a <vfprintf+0xc6>
    257e:	9d 32       	cpi	r25, 0x2D	; 45
    2580:	49 f0       	breq	.+18     	; 0x2594 <vfprintf+0xc0>
    2582:	90 33       	cpi	r25, 0x30	; 48
    2584:	69 f4       	brne	.+26     	; 0x25a0 <vfprintf+0xcc>
    2586:	41 e0       	ldi	r20, 0x01	; 1
    2588:	24 c0       	rjmp	.+72     	; 0x25d2 <vfprintf+0xfe>
    258a:	52 e0       	ldi	r21, 0x02	; 2
    258c:	f5 2a       	or	r15, r21
    258e:	84 e0       	ldi	r24, 0x04	; 4
    2590:	f8 2a       	or	r15, r24
    2592:	28 c0       	rjmp	.+80     	; 0x25e4 <vfprintf+0x110>
    2594:	98 e0       	ldi	r25, 0x08	; 8
    2596:	f9 2a       	or	r15, r25
    2598:	25 c0       	rjmp	.+74     	; 0x25e4 <vfprintf+0x110>
    259a:	e0 e1       	ldi	r30, 0x10	; 16
    259c:	fe 2a       	or	r15, r30
    259e:	22 c0       	rjmp	.+68     	; 0x25e4 <vfprintf+0x110>
    25a0:	f7 fc       	sbrc	r15, 7
    25a2:	29 c0       	rjmp	.+82     	; 0x25f6 <vfprintf+0x122>
    25a4:	89 2f       	mov	r24, r25
    25a6:	80 53       	subi	r24, 0x30	; 48
    25a8:	8a 30       	cpi	r24, 0x0A	; 10
    25aa:	70 f4       	brcc	.+28     	; 0x25c8 <vfprintf+0xf4>
    25ac:	f6 fe       	sbrs	r15, 6
    25ae:	05 c0       	rjmp	.+10     	; 0x25ba <vfprintf+0xe6>
    25b0:	98 9c       	mul	r9, r8
    25b2:	90 2c       	mov	r9, r0
    25b4:	11 24       	eor	r1, r1
    25b6:	98 0e       	add	r9, r24
    25b8:	15 c0       	rjmp	.+42     	; 0x25e4 <vfprintf+0x110>
    25ba:	e8 9c       	mul	r14, r8
    25bc:	e0 2c       	mov	r14, r0
    25be:	11 24       	eor	r1, r1
    25c0:	e8 0e       	add	r14, r24
    25c2:	f0 e2       	ldi	r31, 0x20	; 32
    25c4:	ff 2a       	or	r15, r31
    25c6:	0e c0       	rjmp	.+28     	; 0x25e4 <vfprintf+0x110>
    25c8:	9e 32       	cpi	r25, 0x2E	; 46
    25ca:	29 f4       	brne	.+10     	; 0x25d6 <vfprintf+0x102>
    25cc:	f6 fc       	sbrc	r15, 6
    25ce:	6b c1       	rjmp	.+726    	; 0x28a6 <vfprintf+0x3d2>
    25d0:	40 e4       	ldi	r20, 0x40	; 64
    25d2:	f4 2a       	or	r15, r20
    25d4:	07 c0       	rjmp	.+14     	; 0x25e4 <vfprintf+0x110>
    25d6:	9c 36       	cpi	r25, 0x6C	; 108
    25d8:	19 f4       	brne	.+6      	; 0x25e0 <vfprintf+0x10c>
    25da:	50 e8       	ldi	r21, 0x80	; 128
    25dc:	f5 2a       	or	r15, r21
    25de:	02 c0       	rjmp	.+4      	; 0x25e4 <vfprintf+0x110>
    25e0:	98 36       	cpi	r25, 0x68	; 104
    25e2:	49 f4       	brne	.+18     	; 0x25f6 <vfprintf+0x122>
    25e4:	f2 01       	movw	r30, r4
    25e6:	23 fd       	sbrc	r18, 3
    25e8:	95 91       	lpm	r25, Z+
    25ea:	23 ff       	sbrs	r18, 3
    25ec:	91 91       	ld	r25, Z+
    25ee:	2f 01       	movw	r4, r30
    25f0:	99 23       	and	r25, r25
    25f2:	09 f0       	breq	.+2      	; 0x25f6 <vfprintf+0x122>
    25f4:	b8 cf       	rjmp	.-144    	; 0x2566 <vfprintf+0x92>
    25f6:	89 2f       	mov	r24, r25
    25f8:	85 54       	subi	r24, 0x45	; 69
    25fa:	83 30       	cpi	r24, 0x03	; 3
    25fc:	18 f0       	brcs	.+6      	; 0x2604 <vfprintf+0x130>
    25fe:	80 52       	subi	r24, 0x20	; 32
    2600:	83 30       	cpi	r24, 0x03	; 3
    2602:	38 f4       	brcc	.+14     	; 0x2612 <vfprintf+0x13e>
    2604:	44 e0       	ldi	r20, 0x04	; 4
    2606:	50 e0       	ldi	r21, 0x00	; 0
    2608:	a4 0e       	add	r10, r20
    260a:	b5 1e       	adc	r11, r21
    260c:	5f e3       	ldi	r21, 0x3F	; 63
    260e:	59 83       	std	Y+1, r21	; 0x01
    2610:	0f c0       	rjmp	.+30     	; 0x2630 <vfprintf+0x15c>
    2612:	93 36       	cpi	r25, 0x63	; 99
    2614:	31 f0       	breq	.+12     	; 0x2622 <vfprintf+0x14e>
    2616:	93 37       	cpi	r25, 0x73	; 115
    2618:	79 f0       	breq	.+30     	; 0x2638 <vfprintf+0x164>
    261a:	93 35       	cpi	r25, 0x53	; 83
    261c:	09 f0       	breq	.+2      	; 0x2620 <vfprintf+0x14c>
    261e:	56 c0       	rjmp	.+172    	; 0x26cc <vfprintf+0x1f8>
    2620:	20 c0       	rjmp	.+64     	; 0x2662 <vfprintf+0x18e>
    2622:	f5 01       	movw	r30, r10
    2624:	80 81       	ld	r24, Z
    2626:	89 83       	std	Y+1, r24	; 0x01
    2628:	42 e0       	ldi	r20, 0x02	; 2
    262a:	50 e0       	ldi	r21, 0x00	; 0
    262c:	a4 0e       	add	r10, r20
    262e:	b5 1e       	adc	r11, r21
    2630:	61 01       	movw	r12, r2
    2632:	01 e0       	ldi	r16, 0x01	; 1
    2634:	10 e0       	ldi	r17, 0x00	; 0
    2636:	12 c0       	rjmp	.+36     	; 0x265c <vfprintf+0x188>
    2638:	f5 01       	movw	r30, r10
    263a:	c0 80       	ld	r12, Z
    263c:	d1 80       	ldd	r13, Z+1	; 0x01
    263e:	f6 fc       	sbrc	r15, 6
    2640:	03 c0       	rjmp	.+6      	; 0x2648 <vfprintf+0x174>
    2642:	6f ef       	ldi	r22, 0xFF	; 255
    2644:	7f ef       	ldi	r23, 0xFF	; 255
    2646:	02 c0       	rjmp	.+4      	; 0x264c <vfprintf+0x178>
    2648:	69 2d       	mov	r22, r9
    264a:	70 e0       	ldi	r23, 0x00	; 0
    264c:	42 e0       	ldi	r20, 0x02	; 2
    264e:	50 e0       	ldi	r21, 0x00	; 0
    2650:	a4 0e       	add	r10, r20
    2652:	b5 1e       	adc	r11, r21
    2654:	c6 01       	movw	r24, r12
    2656:	0e 94 7b 14 	call	0x28f6	; 0x28f6 <strnlen>
    265a:	8c 01       	movw	r16, r24
    265c:	5f e7       	ldi	r21, 0x7F	; 127
    265e:	f5 22       	and	r15, r21
    2660:	14 c0       	rjmp	.+40     	; 0x268a <vfprintf+0x1b6>
    2662:	f5 01       	movw	r30, r10
    2664:	c0 80       	ld	r12, Z
    2666:	d1 80       	ldd	r13, Z+1	; 0x01
    2668:	f6 fc       	sbrc	r15, 6
    266a:	03 c0       	rjmp	.+6      	; 0x2672 <vfprintf+0x19e>
    266c:	6f ef       	ldi	r22, 0xFF	; 255
    266e:	7f ef       	ldi	r23, 0xFF	; 255
    2670:	02 c0       	rjmp	.+4      	; 0x2676 <vfprintf+0x1a2>
    2672:	69 2d       	mov	r22, r9
    2674:	70 e0       	ldi	r23, 0x00	; 0
    2676:	42 e0       	ldi	r20, 0x02	; 2
    2678:	50 e0       	ldi	r21, 0x00	; 0
    267a:	a4 0e       	add	r10, r20
    267c:	b5 1e       	adc	r11, r21
    267e:	c6 01       	movw	r24, r12
    2680:	0e 94 70 14 	call	0x28e0	; 0x28e0 <strnlen_P>
    2684:	8c 01       	movw	r16, r24
    2686:	50 e8       	ldi	r21, 0x80	; 128
    2688:	f5 2a       	or	r15, r21
    268a:	f3 fe       	sbrs	r15, 3
    268c:	07 c0       	rjmp	.+14     	; 0x269c <vfprintf+0x1c8>
    268e:	1a c0       	rjmp	.+52     	; 0x26c4 <vfprintf+0x1f0>
    2690:	80 e2       	ldi	r24, 0x20	; 32
    2692:	90 e0       	ldi	r25, 0x00	; 0
    2694:	b3 01       	movw	r22, r6
    2696:	0e 94 86 14 	call	0x290c	; 0x290c <fputc>
    269a:	ea 94       	dec	r14
    269c:	8e 2d       	mov	r24, r14
    269e:	90 e0       	ldi	r25, 0x00	; 0
    26a0:	08 17       	cp	r16, r24
    26a2:	19 07       	cpc	r17, r25
    26a4:	a8 f3       	brcs	.-22     	; 0x2690 <vfprintf+0x1bc>
    26a6:	0e c0       	rjmp	.+28     	; 0x26c4 <vfprintf+0x1f0>
    26a8:	f6 01       	movw	r30, r12
    26aa:	f7 fc       	sbrc	r15, 7
    26ac:	85 91       	lpm	r24, Z+
    26ae:	f7 fe       	sbrs	r15, 7
    26b0:	81 91       	ld	r24, Z+
    26b2:	6f 01       	movw	r12, r30
    26b4:	90 e0       	ldi	r25, 0x00	; 0
    26b6:	b3 01       	movw	r22, r6
    26b8:	0e 94 86 14 	call	0x290c	; 0x290c <fputc>
    26bc:	e1 10       	cpse	r14, r1
    26be:	ea 94       	dec	r14
    26c0:	01 50       	subi	r16, 0x01	; 1
    26c2:	10 40       	sbci	r17, 0x00	; 0
    26c4:	01 15       	cp	r16, r1
    26c6:	11 05       	cpc	r17, r1
    26c8:	79 f7       	brne	.-34     	; 0x26a8 <vfprintf+0x1d4>
    26ca:	ea c0       	rjmp	.+468    	; 0x28a0 <vfprintf+0x3cc>
    26cc:	94 36       	cpi	r25, 0x64	; 100
    26ce:	11 f0       	breq	.+4      	; 0x26d4 <vfprintf+0x200>
    26d0:	99 36       	cpi	r25, 0x69	; 105
    26d2:	69 f5       	brne	.+90     	; 0x272e <vfprintf+0x25a>
    26d4:	f7 fe       	sbrs	r15, 7
    26d6:	08 c0       	rjmp	.+16     	; 0x26e8 <vfprintf+0x214>
    26d8:	f5 01       	movw	r30, r10
    26da:	20 81       	ld	r18, Z
    26dc:	31 81       	ldd	r19, Z+1	; 0x01
    26de:	42 81       	ldd	r20, Z+2	; 0x02
    26e0:	53 81       	ldd	r21, Z+3	; 0x03
    26e2:	84 e0       	ldi	r24, 0x04	; 4
    26e4:	90 e0       	ldi	r25, 0x00	; 0
    26e6:	0a c0       	rjmp	.+20     	; 0x26fc <vfprintf+0x228>
    26e8:	f5 01       	movw	r30, r10
    26ea:	80 81       	ld	r24, Z
    26ec:	91 81       	ldd	r25, Z+1	; 0x01
    26ee:	9c 01       	movw	r18, r24
    26f0:	44 27       	eor	r20, r20
    26f2:	37 fd       	sbrc	r19, 7
    26f4:	40 95       	com	r20
    26f6:	54 2f       	mov	r21, r20
    26f8:	82 e0       	ldi	r24, 0x02	; 2
    26fa:	90 e0       	ldi	r25, 0x00	; 0
    26fc:	a8 0e       	add	r10, r24
    26fe:	b9 1e       	adc	r11, r25
    2700:	9f e6       	ldi	r25, 0x6F	; 111
    2702:	f9 22       	and	r15, r25
    2704:	57 ff       	sbrs	r21, 7
    2706:	09 c0       	rjmp	.+18     	; 0x271a <vfprintf+0x246>
    2708:	50 95       	com	r21
    270a:	40 95       	com	r20
    270c:	30 95       	com	r19
    270e:	21 95       	neg	r18
    2710:	3f 4f       	sbci	r19, 0xFF	; 255
    2712:	4f 4f       	sbci	r20, 0xFF	; 255
    2714:	5f 4f       	sbci	r21, 0xFF	; 255
    2716:	e0 e8       	ldi	r30, 0x80	; 128
    2718:	fe 2a       	or	r15, r30
    271a:	ca 01       	movw	r24, r20
    271c:	b9 01       	movw	r22, r18
    271e:	a1 01       	movw	r20, r2
    2720:	2a e0       	ldi	r18, 0x0A	; 10
    2722:	30 e0       	ldi	r19, 0x00	; 0
    2724:	0e 94 b2 14 	call	0x2964	; 0x2964 <__ultoa_invert>
    2728:	d8 2e       	mov	r13, r24
    272a:	d2 18       	sub	r13, r2
    272c:	40 c0       	rjmp	.+128    	; 0x27ae <vfprintf+0x2da>
    272e:	95 37       	cpi	r25, 0x75	; 117
    2730:	29 f4       	brne	.+10     	; 0x273c <vfprintf+0x268>
    2732:	1f 2d       	mov	r17, r15
    2734:	1f 7e       	andi	r17, 0xEF	; 239
    2736:	2a e0       	ldi	r18, 0x0A	; 10
    2738:	30 e0       	ldi	r19, 0x00	; 0
    273a:	1d c0       	rjmp	.+58     	; 0x2776 <vfprintf+0x2a2>
    273c:	1f 2d       	mov	r17, r15
    273e:	19 7f       	andi	r17, 0xF9	; 249
    2740:	9f 36       	cpi	r25, 0x6F	; 111
    2742:	61 f0       	breq	.+24     	; 0x275c <vfprintf+0x288>
    2744:	90 37       	cpi	r25, 0x70	; 112
    2746:	20 f4       	brcc	.+8      	; 0x2750 <vfprintf+0x27c>
    2748:	98 35       	cpi	r25, 0x58	; 88
    274a:	09 f0       	breq	.+2      	; 0x274e <vfprintf+0x27a>
    274c:	ac c0       	rjmp	.+344    	; 0x28a6 <vfprintf+0x3d2>
    274e:	0f c0       	rjmp	.+30     	; 0x276e <vfprintf+0x29a>
    2750:	90 37       	cpi	r25, 0x70	; 112
    2752:	39 f0       	breq	.+14     	; 0x2762 <vfprintf+0x28e>
    2754:	98 37       	cpi	r25, 0x78	; 120
    2756:	09 f0       	breq	.+2      	; 0x275a <vfprintf+0x286>
    2758:	a6 c0       	rjmp	.+332    	; 0x28a6 <vfprintf+0x3d2>
    275a:	04 c0       	rjmp	.+8      	; 0x2764 <vfprintf+0x290>
    275c:	28 e0       	ldi	r18, 0x08	; 8
    275e:	30 e0       	ldi	r19, 0x00	; 0
    2760:	0a c0       	rjmp	.+20     	; 0x2776 <vfprintf+0x2a2>
    2762:	10 61       	ori	r17, 0x10	; 16
    2764:	14 fd       	sbrc	r17, 4
    2766:	14 60       	ori	r17, 0x04	; 4
    2768:	20 e1       	ldi	r18, 0x10	; 16
    276a:	30 e0       	ldi	r19, 0x00	; 0
    276c:	04 c0       	rjmp	.+8      	; 0x2776 <vfprintf+0x2a2>
    276e:	14 fd       	sbrc	r17, 4
    2770:	16 60       	ori	r17, 0x06	; 6
    2772:	20 e1       	ldi	r18, 0x10	; 16
    2774:	32 e0       	ldi	r19, 0x02	; 2
    2776:	17 ff       	sbrs	r17, 7
    2778:	08 c0       	rjmp	.+16     	; 0x278a <vfprintf+0x2b6>
    277a:	f5 01       	movw	r30, r10
    277c:	60 81       	ld	r22, Z
    277e:	71 81       	ldd	r23, Z+1	; 0x01
    2780:	82 81       	ldd	r24, Z+2	; 0x02
    2782:	93 81       	ldd	r25, Z+3	; 0x03
    2784:	44 e0       	ldi	r20, 0x04	; 4
    2786:	50 e0       	ldi	r21, 0x00	; 0
    2788:	08 c0       	rjmp	.+16     	; 0x279a <vfprintf+0x2c6>
    278a:	f5 01       	movw	r30, r10
    278c:	80 81       	ld	r24, Z
    278e:	91 81       	ldd	r25, Z+1	; 0x01
    2790:	bc 01       	movw	r22, r24
    2792:	80 e0       	ldi	r24, 0x00	; 0
    2794:	90 e0       	ldi	r25, 0x00	; 0
    2796:	42 e0       	ldi	r20, 0x02	; 2
    2798:	50 e0       	ldi	r21, 0x00	; 0
    279a:	a4 0e       	add	r10, r20
    279c:	b5 1e       	adc	r11, r21
    279e:	a1 01       	movw	r20, r2
    27a0:	0e 94 b2 14 	call	0x2964	; 0x2964 <__ultoa_invert>
    27a4:	d8 2e       	mov	r13, r24
    27a6:	d2 18       	sub	r13, r2
    27a8:	8f e7       	ldi	r24, 0x7F	; 127
    27aa:	f8 2e       	mov	r15, r24
    27ac:	f1 22       	and	r15, r17
    27ae:	f6 fe       	sbrs	r15, 6
    27b0:	0b c0       	rjmp	.+22     	; 0x27c8 <vfprintf+0x2f4>
    27b2:	5e ef       	ldi	r21, 0xFE	; 254
    27b4:	f5 22       	and	r15, r21
    27b6:	d9 14       	cp	r13, r9
    27b8:	38 f4       	brcc	.+14     	; 0x27c8 <vfprintf+0x2f4>
    27ba:	f4 fe       	sbrs	r15, 4
    27bc:	07 c0       	rjmp	.+14     	; 0x27cc <vfprintf+0x2f8>
    27be:	f2 fc       	sbrc	r15, 2
    27c0:	05 c0       	rjmp	.+10     	; 0x27cc <vfprintf+0x2f8>
    27c2:	8f ee       	ldi	r24, 0xEF	; 239
    27c4:	f8 22       	and	r15, r24
    27c6:	02 c0       	rjmp	.+4      	; 0x27cc <vfprintf+0x2f8>
    27c8:	1d 2d       	mov	r17, r13
    27ca:	01 c0       	rjmp	.+2      	; 0x27ce <vfprintf+0x2fa>
    27cc:	19 2d       	mov	r17, r9
    27ce:	f4 fe       	sbrs	r15, 4
    27d0:	0d c0       	rjmp	.+26     	; 0x27ec <vfprintf+0x318>
    27d2:	fe 01       	movw	r30, r28
    27d4:	ed 0d       	add	r30, r13
    27d6:	f1 1d       	adc	r31, r1
    27d8:	80 81       	ld	r24, Z
    27da:	80 33       	cpi	r24, 0x30	; 48
    27dc:	19 f4       	brne	.+6      	; 0x27e4 <vfprintf+0x310>
    27de:	99 ee       	ldi	r25, 0xE9	; 233
    27e0:	f9 22       	and	r15, r25
    27e2:	08 c0       	rjmp	.+16     	; 0x27f4 <vfprintf+0x320>
    27e4:	1f 5f       	subi	r17, 0xFF	; 255
    27e6:	f2 fe       	sbrs	r15, 2
    27e8:	05 c0       	rjmp	.+10     	; 0x27f4 <vfprintf+0x320>
    27ea:	03 c0       	rjmp	.+6      	; 0x27f2 <vfprintf+0x31e>
    27ec:	8f 2d       	mov	r24, r15
    27ee:	86 78       	andi	r24, 0x86	; 134
    27f0:	09 f0       	breq	.+2      	; 0x27f4 <vfprintf+0x320>
    27f2:	1f 5f       	subi	r17, 0xFF	; 255
    27f4:	0f 2d       	mov	r16, r15
    27f6:	f3 fc       	sbrc	r15, 3
    27f8:	14 c0       	rjmp	.+40     	; 0x2822 <vfprintf+0x34e>
    27fa:	f0 fe       	sbrs	r15, 0
    27fc:	0f c0       	rjmp	.+30     	; 0x281c <vfprintf+0x348>
    27fe:	1e 15       	cp	r17, r14
    2800:	10 f0       	brcs	.+4      	; 0x2806 <vfprintf+0x332>
    2802:	9d 2c       	mov	r9, r13
    2804:	0b c0       	rjmp	.+22     	; 0x281c <vfprintf+0x348>
    2806:	9d 2c       	mov	r9, r13
    2808:	9e 0c       	add	r9, r14
    280a:	91 1a       	sub	r9, r17
    280c:	1e 2d       	mov	r17, r14
    280e:	06 c0       	rjmp	.+12     	; 0x281c <vfprintf+0x348>
    2810:	80 e2       	ldi	r24, 0x20	; 32
    2812:	90 e0       	ldi	r25, 0x00	; 0
    2814:	b3 01       	movw	r22, r6
    2816:	0e 94 86 14 	call	0x290c	; 0x290c <fputc>
    281a:	1f 5f       	subi	r17, 0xFF	; 255
    281c:	1e 15       	cp	r17, r14
    281e:	c0 f3       	brcs	.-16     	; 0x2810 <vfprintf+0x33c>
    2820:	04 c0       	rjmp	.+8      	; 0x282a <vfprintf+0x356>
    2822:	1e 15       	cp	r17, r14
    2824:	10 f4       	brcc	.+4      	; 0x282a <vfprintf+0x356>
    2826:	e1 1a       	sub	r14, r17
    2828:	01 c0       	rjmp	.+2      	; 0x282c <vfprintf+0x358>
    282a:	ee 24       	eor	r14, r14
    282c:	04 ff       	sbrs	r16, 4
    282e:	0f c0       	rjmp	.+30     	; 0x284e <vfprintf+0x37a>
    2830:	80 e3       	ldi	r24, 0x30	; 48
    2832:	90 e0       	ldi	r25, 0x00	; 0
    2834:	b3 01       	movw	r22, r6
    2836:	0e 94 86 14 	call	0x290c	; 0x290c <fputc>
    283a:	02 ff       	sbrs	r16, 2
    283c:	1d c0       	rjmp	.+58     	; 0x2878 <vfprintf+0x3a4>
    283e:	01 fd       	sbrc	r16, 1
    2840:	03 c0       	rjmp	.+6      	; 0x2848 <vfprintf+0x374>
    2842:	88 e7       	ldi	r24, 0x78	; 120
    2844:	90 e0       	ldi	r25, 0x00	; 0
    2846:	0e c0       	rjmp	.+28     	; 0x2864 <vfprintf+0x390>
    2848:	88 e5       	ldi	r24, 0x58	; 88
    284a:	90 e0       	ldi	r25, 0x00	; 0
    284c:	0b c0       	rjmp	.+22     	; 0x2864 <vfprintf+0x390>
    284e:	80 2f       	mov	r24, r16
    2850:	86 78       	andi	r24, 0x86	; 134
    2852:	91 f0       	breq	.+36     	; 0x2878 <vfprintf+0x3a4>
    2854:	01 ff       	sbrs	r16, 1
    2856:	02 c0       	rjmp	.+4      	; 0x285c <vfprintf+0x388>
    2858:	8b e2       	ldi	r24, 0x2B	; 43
    285a:	01 c0       	rjmp	.+2      	; 0x285e <vfprintf+0x38a>
    285c:	80 e2       	ldi	r24, 0x20	; 32
    285e:	f7 fc       	sbrc	r15, 7
    2860:	8d e2       	ldi	r24, 0x2D	; 45
    2862:	90 e0       	ldi	r25, 0x00	; 0
    2864:	b3 01       	movw	r22, r6
    2866:	0e 94 86 14 	call	0x290c	; 0x290c <fputc>
    286a:	06 c0       	rjmp	.+12     	; 0x2878 <vfprintf+0x3a4>
    286c:	80 e3       	ldi	r24, 0x30	; 48
    286e:	90 e0       	ldi	r25, 0x00	; 0
    2870:	b3 01       	movw	r22, r6
    2872:	0e 94 86 14 	call	0x290c	; 0x290c <fputc>
    2876:	9a 94       	dec	r9
    2878:	d9 14       	cp	r13, r9
    287a:	c0 f3       	brcs	.-16     	; 0x286c <vfprintf+0x398>
    287c:	da 94       	dec	r13
    287e:	f1 01       	movw	r30, r2
    2880:	ed 0d       	add	r30, r13
    2882:	f1 1d       	adc	r31, r1
    2884:	80 81       	ld	r24, Z
    2886:	90 e0       	ldi	r25, 0x00	; 0
    2888:	b3 01       	movw	r22, r6
    288a:	0e 94 86 14 	call	0x290c	; 0x290c <fputc>
    288e:	dd 20       	and	r13, r13
    2890:	a9 f7       	brne	.-22     	; 0x287c <vfprintf+0x3a8>
    2892:	06 c0       	rjmp	.+12     	; 0x28a0 <vfprintf+0x3cc>
    2894:	80 e2       	ldi	r24, 0x20	; 32
    2896:	90 e0       	ldi	r25, 0x00	; 0
    2898:	b3 01       	movw	r22, r6
    289a:	0e 94 86 14 	call	0x290c	; 0x290c <fputc>
    289e:	ea 94       	dec	r14
    28a0:	ee 20       	and	r14, r14
    28a2:	c1 f7       	brne	.-16     	; 0x2894 <vfprintf+0x3c0>
    28a4:	43 ce       	rjmp	.-890    	; 0x252c <vfprintf+0x58>
    28a6:	f3 01       	movw	r30, r6
    28a8:	66 81       	ldd	r22, Z+6	; 0x06
    28aa:	77 81       	ldd	r23, Z+7	; 0x07
    28ac:	cb 01       	movw	r24, r22
    28ae:	2b 96       	adiw	r28, 0x0b	; 11
    28b0:	0f b6       	in	r0, 0x3f	; 63
    28b2:	f8 94       	cli
    28b4:	de bf       	out	0x3e, r29	; 62
    28b6:	0f be       	out	0x3f, r0	; 63
    28b8:	cd bf       	out	0x3d, r28	; 61
    28ba:	cf 91       	pop	r28
    28bc:	df 91       	pop	r29
    28be:	1f 91       	pop	r17
    28c0:	0f 91       	pop	r16
    28c2:	ff 90       	pop	r15
    28c4:	ef 90       	pop	r14
    28c6:	df 90       	pop	r13
    28c8:	cf 90       	pop	r12
    28ca:	bf 90       	pop	r11
    28cc:	af 90       	pop	r10
    28ce:	9f 90       	pop	r9
    28d0:	8f 90       	pop	r8
    28d2:	7f 90       	pop	r7
    28d4:	6f 90       	pop	r6
    28d6:	5f 90       	pop	r5
    28d8:	4f 90       	pop	r4
    28da:	3f 90       	pop	r3
    28dc:	2f 90       	pop	r2
    28de:	08 95       	ret

000028e0 <strnlen_P>:
    28e0:	fc 01       	movw	r30, r24
    28e2:	05 90       	lpm	r0, Z+
    28e4:	61 50       	subi	r22, 0x01	; 1
    28e6:	70 40       	sbci	r23, 0x00	; 0
    28e8:	01 10       	cpse	r0, r1
    28ea:	d8 f7       	brcc	.-10     	; 0x28e2 <strnlen_P+0x2>
    28ec:	80 95       	com	r24
    28ee:	90 95       	com	r25
    28f0:	8e 0f       	add	r24, r30
    28f2:	9f 1f       	adc	r25, r31
    28f4:	08 95       	ret

000028f6 <strnlen>:
    28f6:	fc 01       	movw	r30, r24
    28f8:	61 50       	subi	r22, 0x01	; 1
    28fa:	70 40       	sbci	r23, 0x00	; 0
    28fc:	01 90       	ld	r0, Z+
    28fe:	01 10       	cpse	r0, r1
    2900:	d8 f7       	brcc	.-10     	; 0x28f8 <strnlen+0x2>
    2902:	80 95       	com	r24
    2904:	90 95       	com	r25
    2906:	8e 0f       	add	r24, r30
    2908:	9f 1f       	adc	r25, r31
    290a:	08 95       	ret

0000290c <fputc>:
    290c:	0f 93       	push	r16
    290e:	1f 93       	push	r17
    2910:	cf 93       	push	r28
    2912:	df 93       	push	r29
    2914:	8c 01       	movw	r16, r24
    2916:	eb 01       	movw	r28, r22
    2918:	8b 81       	ldd	r24, Y+3	; 0x03
    291a:	81 ff       	sbrs	r24, 1
    291c:	1b c0       	rjmp	.+54     	; 0x2954 <fputc+0x48>
    291e:	82 ff       	sbrs	r24, 2
    2920:	0d c0       	rjmp	.+26     	; 0x293c <fputc+0x30>
    2922:	2e 81       	ldd	r18, Y+6	; 0x06
    2924:	3f 81       	ldd	r19, Y+7	; 0x07
    2926:	8c 81       	ldd	r24, Y+4	; 0x04
    2928:	9d 81       	ldd	r25, Y+5	; 0x05
    292a:	28 17       	cp	r18, r24
    292c:	39 07       	cpc	r19, r25
    292e:	64 f4       	brge	.+24     	; 0x2948 <fputc+0x3c>
    2930:	e8 81       	ld	r30, Y
    2932:	f9 81       	ldd	r31, Y+1	; 0x01
    2934:	01 93       	st	Z+, r16
    2936:	f9 83       	std	Y+1, r31	; 0x01
    2938:	e8 83       	st	Y, r30
    293a:	06 c0       	rjmp	.+12     	; 0x2948 <fputc+0x3c>
    293c:	e8 85       	ldd	r30, Y+8	; 0x08
    293e:	f9 85       	ldd	r31, Y+9	; 0x09
    2940:	80 2f       	mov	r24, r16
    2942:	09 95       	icall
    2944:	89 2b       	or	r24, r25
    2946:	31 f4       	brne	.+12     	; 0x2954 <fputc+0x48>
    2948:	8e 81       	ldd	r24, Y+6	; 0x06
    294a:	9f 81       	ldd	r25, Y+7	; 0x07
    294c:	01 96       	adiw	r24, 0x01	; 1
    294e:	9f 83       	std	Y+7, r25	; 0x07
    2950:	8e 83       	std	Y+6, r24	; 0x06
    2952:	02 c0       	rjmp	.+4      	; 0x2958 <fputc+0x4c>
    2954:	0f ef       	ldi	r16, 0xFF	; 255
    2956:	1f ef       	ldi	r17, 0xFF	; 255
    2958:	c8 01       	movw	r24, r16
    295a:	df 91       	pop	r29
    295c:	cf 91       	pop	r28
    295e:	1f 91       	pop	r17
    2960:	0f 91       	pop	r16
    2962:	08 95       	ret

00002964 <__ultoa_invert>:
    2964:	fa 01       	movw	r30, r20
    2966:	aa 27       	eor	r26, r26
    2968:	28 30       	cpi	r18, 0x08	; 8
    296a:	51 f1       	breq	.+84     	; 0x29c0 <__ultoa_invert+0x5c>
    296c:	20 31       	cpi	r18, 0x10	; 16
    296e:	81 f1       	breq	.+96     	; 0x29d0 <__ultoa_invert+0x6c>
    2970:	e8 94       	clt
    2972:	6f 93       	push	r22
    2974:	6e 7f       	andi	r22, 0xFE	; 254
    2976:	6e 5f       	subi	r22, 0xFE	; 254
    2978:	7f 4f       	sbci	r23, 0xFF	; 255
    297a:	8f 4f       	sbci	r24, 0xFF	; 255
    297c:	9f 4f       	sbci	r25, 0xFF	; 255
    297e:	af 4f       	sbci	r26, 0xFF	; 255
    2980:	b1 e0       	ldi	r27, 0x01	; 1
    2982:	3e d0       	rcall	.+124    	; 0x2a00 <__ultoa_invert+0x9c>
    2984:	b4 e0       	ldi	r27, 0x04	; 4
    2986:	3c d0       	rcall	.+120    	; 0x2a00 <__ultoa_invert+0x9c>
    2988:	67 0f       	add	r22, r23
    298a:	78 1f       	adc	r23, r24
    298c:	89 1f       	adc	r24, r25
    298e:	9a 1f       	adc	r25, r26
    2990:	a1 1d       	adc	r26, r1
    2992:	68 0f       	add	r22, r24
    2994:	79 1f       	adc	r23, r25
    2996:	8a 1f       	adc	r24, r26
    2998:	91 1d       	adc	r25, r1
    299a:	a1 1d       	adc	r26, r1
    299c:	6a 0f       	add	r22, r26
    299e:	71 1d       	adc	r23, r1
    29a0:	81 1d       	adc	r24, r1
    29a2:	91 1d       	adc	r25, r1
    29a4:	a1 1d       	adc	r26, r1
    29a6:	20 d0       	rcall	.+64     	; 0x29e8 <__ultoa_invert+0x84>
    29a8:	09 f4       	brne	.+2      	; 0x29ac <__ultoa_invert+0x48>
    29aa:	68 94       	set
    29ac:	3f 91       	pop	r19
    29ae:	2a e0       	ldi	r18, 0x0A	; 10
    29b0:	26 9f       	mul	r18, r22
    29b2:	11 24       	eor	r1, r1
    29b4:	30 19       	sub	r19, r0
    29b6:	30 5d       	subi	r19, 0xD0	; 208
    29b8:	31 93       	st	Z+, r19
    29ba:	de f6       	brtc	.-74     	; 0x2972 <__ultoa_invert+0xe>
    29bc:	cf 01       	movw	r24, r30
    29be:	08 95       	ret
    29c0:	46 2f       	mov	r20, r22
    29c2:	47 70       	andi	r20, 0x07	; 7
    29c4:	40 5d       	subi	r20, 0xD0	; 208
    29c6:	41 93       	st	Z+, r20
    29c8:	b3 e0       	ldi	r27, 0x03	; 3
    29ca:	0f d0       	rcall	.+30     	; 0x29ea <__ultoa_invert+0x86>
    29cc:	c9 f7       	brne	.-14     	; 0x29c0 <__ultoa_invert+0x5c>
    29ce:	f6 cf       	rjmp	.-20     	; 0x29bc <__ultoa_invert+0x58>
    29d0:	46 2f       	mov	r20, r22
    29d2:	4f 70       	andi	r20, 0x0F	; 15
    29d4:	40 5d       	subi	r20, 0xD0	; 208
    29d6:	4a 33       	cpi	r20, 0x3A	; 58
    29d8:	18 f0       	brcs	.+6      	; 0x29e0 <__ultoa_invert+0x7c>
    29da:	49 5d       	subi	r20, 0xD9	; 217
    29dc:	31 fd       	sbrc	r19, 1
    29de:	40 52       	subi	r20, 0x20	; 32
    29e0:	41 93       	st	Z+, r20
    29e2:	02 d0       	rcall	.+4      	; 0x29e8 <__ultoa_invert+0x84>
    29e4:	a9 f7       	brne	.-22     	; 0x29d0 <__ultoa_invert+0x6c>
    29e6:	ea cf       	rjmp	.-44     	; 0x29bc <__ultoa_invert+0x58>
    29e8:	b4 e0       	ldi	r27, 0x04	; 4
    29ea:	a6 95       	lsr	r26
    29ec:	97 95       	ror	r25
    29ee:	87 95       	ror	r24
    29f0:	77 95       	ror	r23
    29f2:	67 95       	ror	r22
    29f4:	ba 95       	dec	r27
    29f6:	c9 f7       	brne	.-14     	; 0x29ea <__ultoa_invert+0x86>
    29f8:	00 97       	sbiw	r24, 0x00	; 0
    29fa:	61 05       	cpc	r22, r1
    29fc:	71 05       	cpc	r23, r1
    29fe:	08 95       	ret
    2a00:	9b 01       	movw	r18, r22
    2a02:	ac 01       	movw	r20, r24
    2a04:	0a 2e       	mov	r0, r26
    2a06:	06 94       	lsr	r0
    2a08:	57 95       	ror	r21
    2a0a:	47 95       	ror	r20
    2a0c:	37 95       	ror	r19
    2a0e:	27 95       	ror	r18
    2a10:	ba 95       	dec	r27
    2a12:	c9 f7       	brne	.-14     	; 0x2a06 <__ultoa_invert+0xa2>
    2a14:	62 0f       	add	r22, r18
    2a16:	73 1f       	adc	r23, r19
    2a18:	84 1f       	adc	r24, r20
    2a1a:	95 1f       	adc	r25, r21
    2a1c:	a0 1d       	adc	r26, r0
    2a1e:	08 95       	ret

00002a20 <__mulsi3>:
    2a20:	62 9f       	mul	r22, r18
    2a22:	d0 01       	movw	r26, r0
    2a24:	73 9f       	mul	r23, r19
    2a26:	f0 01       	movw	r30, r0
    2a28:	82 9f       	mul	r24, r18
    2a2a:	e0 0d       	add	r30, r0
    2a2c:	f1 1d       	adc	r31, r1
    2a2e:	64 9f       	mul	r22, r20
    2a30:	e0 0d       	add	r30, r0
    2a32:	f1 1d       	adc	r31, r1
    2a34:	92 9f       	mul	r25, r18
    2a36:	f0 0d       	add	r31, r0
    2a38:	83 9f       	mul	r24, r19
    2a3a:	f0 0d       	add	r31, r0
    2a3c:	74 9f       	mul	r23, r20
    2a3e:	f0 0d       	add	r31, r0
    2a40:	65 9f       	mul	r22, r21
    2a42:	f0 0d       	add	r31, r0
    2a44:	99 27       	eor	r25, r25
    2a46:	72 9f       	mul	r23, r18
    2a48:	b0 0d       	add	r27, r0
    2a4a:	e1 1d       	adc	r30, r1
    2a4c:	f9 1f       	adc	r31, r25
    2a4e:	63 9f       	mul	r22, r19
    2a50:	b0 0d       	add	r27, r0
    2a52:	e1 1d       	adc	r30, r1
    2a54:	f9 1f       	adc	r31, r25
    2a56:	bd 01       	movw	r22, r26
    2a58:	cf 01       	movw	r24, r30
    2a5a:	11 24       	eor	r1, r1
    2a5c:	08 95       	ret

00002a5e <__divmodsi4>:
    2a5e:	97 fb       	bst	r25, 7
    2a60:	09 2e       	mov	r0, r25
    2a62:	05 26       	eor	r0, r21
    2a64:	0e d0       	rcall	.+28     	; 0x2a82 <__divmodsi4_neg1>
    2a66:	57 fd       	sbrc	r21, 7
    2a68:	04 d0       	rcall	.+8      	; 0x2a72 <__divmodsi4_neg2>
    2a6a:	14 d0       	rcall	.+40     	; 0x2a94 <__udivmodsi4>
    2a6c:	0a d0       	rcall	.+20     	; 0x2a82 <__divmodsi4_neg1>
    2a6e:	00 1c       	adc	r0, r0
    2a70:	38 f4       	brcc	.+14     	; 0x2a80 <__divmodsi4_exit>

00002a72 <__divmodsi4_neg2>:
    2a72:	50 95       	com	r21
    2a74:	40 95       	com	r20
    2a76:	30 95       	com	r19
    2a78:	21 95       	neg	r18
    2a7a:	3f 4f       	sbci	r19, 0xFF	; 255
    2a7c:	4f 4f       	sbci	r20, 0xFF	; 255
    2a7e:	5f 4f       	sbci	r21, 0xFF	; 255

00002a80 <__divmodsi4_exit>:
    2a80:	08 95       	ret

00002a82 <__divmodsi4_neg1>:
    2a82:	f6 f7       	brtc	.-4      	; 0x2a80 <__divmodsi4_exit>
    2a84:	90 95       	com	r25
    2a86:	80 95       	com	r24
    2a88:	70 95       	com	r23
    2a8a:	61 95       	neg	r22
    2a8c:	7f 4f       	sbci	r23, 0xFF	; 255
    2a8e:	8f 4f       	sbci	r24, 0xFF	; 255
    2a90:	9f 4f       	sbci	r25, 0xFF	; 255
    2a92:	08 95       	ret

00002a94 <__udivmodsi4>:
    2a94:	a1 e2       	ldi	r26, 0x21	; 33
    2a96:	1a 2e       	mov	r1, r26
    2a98:	aa 1b       	sub	r26, r26
    2a9a:	bb 1b       	sub	r27, r27
    2a9c:	fd 01       	movw	r30, r26
    2a9e:	0d c0       	rjmp	.+26     	; 0x2aba <__udivmodsi4_ep>

00002aa0 <__udivmodsi4_loop>:
    2aa0:	aa 1f       	adc	r26, r26
    2aa2:	bb 1f       	adc	r27, r27
    2aa4:	ee 1f       	adc	r30, r30
    2aa6:	ff 1f       	adc	r31, r31
    2aa8:	a2 17       	cp	r26, r18
    2aaa:	b3 07       	cpc	r27, r19
    2aac:	e4 07       	cpc	r30, r20
    2aae:	f5 07       	cpc	r31, r21
    2ab0:	20 f0       	brcs	.+8      	; 0x2aba <__udivmodsi4_ep>
    2ab2:	a2 1b       	sub	r26, r18
    2ab4:	b3 0b       	sbc	r27, r19
    2ab6:	e4 0b       	sbc	r30, r20
    2ab8:	f5 0b       	sbc	r31, r21

00002aba <__udivmodsi4_ep>:
    2aba:	66 1f       	adc	r22, r22
    2abc:	77 1f       	adc	r23, r23
    2abe:	88 1f       	adc	r24, r24
    2ac0:	99 1f       	adc	r25, r25
    2ac2:	1a 94       	dec	r1
    2ac4:	69 f7       	brne	.-38     	; 0x2aa0 <__udivmodsi4_loop>
    2ac6:	60 95       	com	r22
    2ac8:	70 95       	com	r23
    2aca:	80 95       	com	r24
    2acc:	90 95       	com	r25
    2ace:	9b 01       	movw	r18, r22
    2ad0:	ac 01       	movw	r20, r24
    2ad2:	bd 01       	movw	r22, r26
    2ad4:	cf 01       	movw	r24, r30
    2ad6:	08 95       	ret

00002ad8 <_exit>:
    2ad8:	f8 94       	cli

00002ada <__stop_program>:
    2ada:	ff cf       	rjmp	.-2      	; 0x2ada <__stop_program>

Disassembly of section .bss:

00800222 <__bss_start>:
  800222:	00 00       	nop

00800224 <buffer.1520>:
  800224:	00 00       	nop
  800226:	00 00       	nop
  800228:	00 00       	nop
  80022a:	00 00       	nop
  80022c:	00 00       	nop
  80022e:	00 00       	nop
  800230:	00 00       	nop
  800232:	00 00       	nop
  800234:	00 00       	nop
  800236:	00 00       	nop
  800238:	00 00       	nop
  80023a:	00 00       	nop
  80023c:	00 00       	nop
  80023e:	00 00       	nop
  800240:	00 00       	nop
  800242:	00 00       	nop
  800244:	00 00       	nop
  800246:	00 00       	nop
  800248:	00 00       	nop
  80024a:	00 00       	nop
  80024c:	00 00       	nop
  80024e:	00 00       	nop
  800250:	00 00       	nop
  800252:	00 00       	nop
  800254:	00 00       	nop
  800256:	00 00       	nop
  800258:	00 00       	nop
  80025a:	00 00       	nop
  80025c:	00 00       	nop
  80025e:	00 00       	nop
  800260:	00 00       	nop
  800262:	00 00       	nop
  800264:	00 00       	nop
  800266:	00 00       	nop
  800268:	00 00       	nop
  80026a:	00 00       	nop
  80026c:	00 00       	nop
  80026e:	00 00       	nop
  800270:	00 00       	nop
  800272:	00 00       	nop
  800274:	00 00       	nop
  800276:	00 00       	nop
  800278:	00 00       	nop
  80027a:	00 00       	nop
  80027c:	00 00       	nop
  80027e:	00 00       	nop
  800280:	00 00       	nop
  800282:	00 00       	nop
  800284:	00 00       	nop
  800286:	00 00       	nop
  800288:	00 00       	nop
  80028a:	00 00       	nop
  80028c:	00 00       	nop
  80028e:	00 00       	nop
  800290:	00 00       	nop
  800292:	00 00       	nop
  800294:	00 00       	nop
  800296:	00 00       	nop
  800298:	00 00       	nop
  80029a:	00 00       	nop
  80029c:	00 00       	nop
  80029e:	00 00       	nop
  8002a0:	00 00       	nop
  8002a2:	00 00       	nop
  8002a4:	00 00       	nop
  8002a6:	00 00       	nop
  8002a8:	00 00       	nop
  8002aa:	00 00       	nop
  8002ac:	00 00       	nop
  8002ae:	00 00       	nop
  8002b0:	00 00       	nop
  8002b2:	00 00       	nop
  8002b4:	00 00       	nop
  8002b6:	00 00       	nop
  8002b8:	00 00       	nop
  8002ba:	00 00       	nop
  8002bc:	00 00       	nop
  8002be:	00 00       	nop
  8002c0:	00 00       	nop
  8002c2:	00 00       	nop
  8002c4:	00 00       	nop
  8002c6:	00 00       	nop
  8002c8:	00 00       	nop
  8002ca:	00 00       	nop
  8002cc:	00 00       	nop
  8002ce:	00 00       	nop
  8002d0:	00 00       	nop
  8002d2:	00 00       	nop
  8002d4:	00 00       	nop
  8002d6:	00 00       	nop
  8002d8:	00 00       	nop
  8002da:	00 00       	nop
  8002dc:	00 00       	nop
  8002de:	00 00       	nop
  8002e0:	00 00       	nop
  8002e2:	00 00       	nop
  8002e4:	00 00       	nop
  8002e6:	00 00       	nop
  8002e8:	00 00       	nop
  8002ea:	00 00       	nop
  8002ec:	00 00       	nop
  8002ee:	00 00       	nop
  8002f0:	00 00       	nop
  8002f2:	00 00       	nop
  8002f4:	00 00       	nop
  8002f6:	00 00       	nop
  8002f8:	00 00       	nop
  8002fa:	00 00       	nop
  8002fc:	00 00       	nop
  8002fe:	00 00       	nop
  800300:	00 00       	nop
  800302:	00 00       	nop
  800304:	00 00       	nop
  800306:	00 00       	nop
  800308:	00 00       	nop
  80030a:	00 00       	nop
  80030c:	00 00       	nop
  80030e:	00 00       	nop
  800310:	00 00       	nop
  800312:	00 00       	nop
  800314:	00 00       	nop
  800316:	00 00       	nop
  800318:	00 00       	nop
  80031a:	00 00       	nop
  80031c:	00 00       	nop
  80031e:	00 00       	nop
  800320:	00 00       	nop
  800322:	00 00       	nop
  800324:	00 00       	nop
  800326:	00 00       	nop
  800328:	00 00       	nop
  80032a:	00 00       	nop
  80032c:	00 00       	nop
  80032e:	00 00       	nop
  800330:	00 00       	nop
  800332:	00 00       	nop
  800334:	00 00       	nop
  800336:	00 00       	nop
  800338:	00 00       	nop
  80033a:	00 00       	nop
  80033c:	00 00       	nop
  80033e:	00 00       	nop
  800340:	00 00       	nop
  800342:	00 00       	nop
  800344:	00 00       	nop
  800346:	00 00       	nop
  800348:	00 00       	nop
  80034a:	00 00       	nop
  80034c:	00 00       	nop
  80034e:	00 00       	nop
  800350:	00 00       	nop
  800352:	00 00       	nop
  800354:	00 00       	nop
  800356:	00 00       	nop
  800358:	00 00       	nop
  80035a:	00 00       	nop
  80035c:	00 00       	nop
  80035e:	00 00       	nop
  800360:	00 00       	nop
  800362:	00 00       	nop
  800364:	00 00       	nop
  800366:	00 00       	nop
  800368:	00 00       	nop
  80036a:	00 00       	nop
  80036c:	00 00       	nop
  80036e:	00 00       	nop
  800370:	00 00       	nop
  800372:	00 00       	nop
  800374:	00 00       	nop
  800376:	00 00       	nop
  800378:	00 00       	nop
  80037a:	00 00       	nop
  80037c:	00 00       	nop
  80037e:	00 00       	nop
  800380:	00 00       	nop
  800382:	00 00       	nop
  800384:	00 00       	nop
  800386:	00 00       	nop
  800388:	00 00       	nop
  80038a:	00 00       	nop
  80038c:	00 00       	nop
  80038e:	00 00       	nop
  800390:	00 00       	nop
  800392:	00 00       	nop
  800394:	00 00       	nop
  800396:	00 00       	nop
  800398:	00 00       	nop
  80039a:	00 00       	nop
  80039c:	00 00       	nop
  80039e:	00 00       	nop
  8003a0:	00 00       	nop
  8003a2:	00 00       	nop
  8003a4:	00 00       	nop
  8003a6:	00 00       	nop
  8003a8:	00 00       	nop
  8003aa:	00 00       	nop
  8003ac:	00 00       	nop
  8003ae:	00 00       	nop
  8003b0:	00 00       	nop
  8003b2:	00 00       	nop
  8003b4:	00 00       	nop
  8003b6:	00 00       	nop
  8003b8:	00 00       	nop
  8003ba:	00 00       	nop
  8003bc:	00 00       	nop
  8003be:	00 00       	nop
  8003c0:	00 00       	nop
  8003c2:	00 00       	nop
  8003c4:	00 00       	nop
  8003c6:	00 00       	nop
  8003c8:	00 00       	nop
  8003ca:	00 00       	nop
  8003cc:	00 00       	nop
  8003ce:	00 00       	nop
  8003d0:	00 00       	nop
  8003d2:	00 00       	nop
  8003d4:	00 00       	nop
  8003d6:	00 00       	nop
  8003d8:	00 00       	nop
  8003da:	00 00       	nop
  8003dc:	00 00       	nop
  8003de:	00 00       	nop
  8003e0:	00 00       	nop
  8003e2:	00 00       	nop
  8003e4:	00 00       	nop
  8003e6:	00 00       	nop
  8003e8:	00 00       	nop
  8003ea:	00 00       	nop
  8003ec:	00 00       	nop
  8003ee:	00 00       	nop
  8003f0:	00 00       	nop
  8003f2:	00 00       	nop
  8003f4:	00 00       	nop
  8003f6:	00 00       	nop
  8003f8:	00 00       	nop
  8003fa:	00 00       	nop
  8003fc:	00 00       	nop
  8003fe:	00 00       	nop
  800400:	00 00       	nop
  800402:	00 00       	nop
  800404:	00 00       	nop
  800406:	00 00       	nop
  800408:	00 00       	nop
  80040a:	00 00       	nop
  80040c:	00 00       	nop
  80040e:	00 00       	nop
  800410:	00 00       	nop
  800412:	00 00       	nop
  800414:	00 00       	nop
  800416:	00 00       	nop
  800418:	00 00       	nop
  80041a:	00 00       	nop
  80041c:	00 00       	nop
  80041e:	00 00       	nop
  800420:	00 00       	nop
  800422:	00 00       	nop
  800424:	00 00       	nop
  800426:	00 00       	nop
  800428:	00 00       	nop
  80042a:	00 00       	nop
  80042c:	00 00       	nop
  80042e:	00 00       	nop
  800430:	00 00       	nop
  800432:	00 00       	nop
  800434:	00 00       	nop
  800436:	00 00       	nop
  800438:	00 00       	nop
  80043a:	00 00       	nop
  80043c:	00 00       	nop
  80043e:	00 00       	nop
  800440:	00 00       	nop
  800442:	00 00       	nop
  800444:	00 00       	nop
  800446:	00 00       	nop
  800448:	00 00       	nop
  80044a:	00 00       	nop
  80044c:	00 00       	nop
  80044e:	00 00       	nop
  800450:	00 00       	nop
  800452:	00 00       	nop
  800454:	00 00       	nop
  800456:	00 00       	nop
  800458:	00 00       	nop
  80045a:	00 00       	nop
  80045c:	00 00       	nop
  80045e:	00 00       	nop
  800460:	00 00       	nop
  800462:	00 00       	nop
  800464:	00 00       	nop
  800466:	00 00       	nop
  800468:	00 00       	nop
  80046a:	00 00       	nop
  80046c:	00 00       	nop
  80046e:	00 00       	nop
  800470:	00 00       	nop
  800472:	00 00       	nop
  800474:	00 00       	nop
  800476:	00 00       	nop
  800478:	00 00       	nop
  80047a:	00 00       	nop
  80047c:	00 00       	nop
  80047e:	00 00       	nop
  800480:	00 00       	nop
  800482:	00 00       	nop
  800484:	00 00       	nop
  800486:	00 00       	nop
  800488:	00 00       	nop
  80048a:	00 00       	nop
  80048c:	00 00       	nop
  80048e:	00 00       	nop
  800490:	00 00       	nop
  800492:	00 00       	nop
  800494:	00 00       	nop
  800496:	00 00       	nop
  800498:	00 00       	nop
  80049a:	00 00       	nop
  80049c:	00 00       	nop
  80049e:	00 00       	nop
  8004a0:	00 00       	nop
  8004a2:	00 00       	nop
  8004a4:	00 00       	nop
  8004a6:	00 00       	nop
  8004a8:	00 00       	nop
  8004aa:	00 00       	nop
  8004ac:	00 00       	nop
  8004ae:	00 00       	nop
  8004b0:	00 00       	nop
  8004b2:	00 00       	nop
  8004b4:	00 00       	nop
  8004b6:	00 00       	nop
  8004b8:	00 00       	nop
  8004ba:	00 00       	nop
  8004bc:	00 00       	nop
  8004be:	00 00       	nop
  8004c0:	00 00       	nop
  8004c2:	00 00       	nop
  8004c4:	00 00       	nop
  8004c6:	00 00       	nop
  8004c8:	00 00       	nop
  8004ca:	00 00       	nop
  8004cc:	00 00       	nop
  8004ce:	00 00       	nop
  8004d0:	00 00       	nop
  8004d2:	00 00       	nop
  8004d4:	00 00       	nop
  8004d6:	00 00       	nop
  8004d8:	00 00       	nop
  8004da:	00 00       	nop
  8004dc:	00 00       	nop
  8004de:	00 00       	nop
  8004e0:	00 00       	nop
  8004e2:	00 00       	nop
  8004e4:	00 00       	nop
  8004e6:	00 00       	nop
  8004e8:	00 00       	nop
  8004ea:	00 00       	nop
  8004ec:	00 00       	nop
  8004ee:	00 00       	nop
  8004f0:	00 00       	nop
  8004f2:	00 00       	nop
  8004f4:	00 00       	nop
  8004f6:	00 00       	nop
  8004f8:	00 00       	nop
  8004fa:	00 00       	nop
  8004fc:	00 00       	nop
  8004fe:	00 00       	nop
  800500:	00 00       	nop
  800502:	00 00       	nop
  800504:	00 00       	nop
  800506:	00 00       	nop
  800508:	00 00       	nop
  80050a:	00 00       	nop
  80050c:	00 00       	nop
  80050e:	00 00       	nop
  800510:	00 00       	nop
  800512:	00 00       	nop
  800514:	00 00       	nop
  800516:	00 00       	nop
  800518:	00 00       	nop
  80051a:	00 00       	nop
  80051c:	00 00       	nop
  80051e:	00 00       	nop
  800520:	00 00       	nop
  800522:	00 00       	nop
  800524:	00 00       	nop
  800526:	00 00       	nop
  800528:	00 00       	nop
  80052a:	00 00       	nop
  80052c:	00 00       	nop
  80052e:	00 00       	nop
  800530:	00 00       	nop
  800532:	00 00       	nop
  800534:	00 00       	nop
  800536:	00 00       	nop
  800538:	00 00       	nop
  80053a:	00 00       	nop
  80053c:	00 00       	nop
  80053e:	00 00       	nop
  800540:	00 00       	nop
  800542:	00 00       	nop
  800544:	00 00       	nop
  800546:	00 00       	nop
  800548:	00 00       	nop
  80054a:	00 00       	nop
  80054c:	00 00       	nop
  80054e:	00 00       	nop
  800550:	00 00       	nop
  800552:	00 00       	nop
  800554:	00 00       	nop
  800556:	00 00       	nop
  800558:	00 00       	nop
  80055a:	00 00       	nop
  80055c:	00 00       	nop
  80055e:	00 00       	nop
  800560:	00 00       	nop
  800562:	00 00       	nop
  800564:	00 00       	nop
  800566:	00 00       	nop
  800568:	00 00       	nop
  80056a:	00 00       	nop
  80056c:	00 00       	nop
  80056e:	00 00       	nop
  800570:	00 00       	nop
  800572:	00 00       	nop
  800574:	00 00       	nop
  800576:	00 00       	nop
  800578:	00 00       	nop
  80057a:	00 00       	nop
  80057c:	00 00       	nop
  80057e:	00 00       	nop
  800580:	00 00       	nop
  800582:	00 00       	nop
  800584:	00 00       	nop
  800586:	00 00       	nop
  800588:	00 00       	nop
  80058a:	00 00       	nop
  80058c:	00 00       	nop
  80058e:	00 00       	nop
  800590:	00 00       	nop
  800592:	00 00       	nop
  800594:	00 00       	nop
  800596:	00 00       	nop
  800598:	00 00       	nop
  80059a:	00 00       	nop
  80059c:	00 00       	nop
  80059e:	00 00       	nop
  8005a0:	00 00       	nop
  8005a2:	00 00       	nop
  8005a4:	00 00       	nop
  8005a6:	00 00       	nop
  8005a8:	00 00       	nop
  8005aa:	00 00       	nop
  8005ac:	00 00       	nop
  8005ae:	00 00       	nop
  8005b0:	00 00       	nop
  8005b2:	00 00       	nop
  8005b4:	00 00       	nop
  8005b6:	00 00       	nop
  8005b8:	00 00       	nop
  8005ba:	00 00       	nop
  8005bc:	00 00       	nop
  8005be:	00 00       	nop
  8005c0:	00 00       	nop
  8005c2:	00 00       	nop
  8005c4:	00 00       	nop
  8005c6:	00 00       	nop
  8005c8:	00 00       	nop
  8005ca:	00 00       	nop
  8005cc:	00 00       	nop
  8005ce:	00 00       	nop
  8005d0:	00 00       	nop
  8005d2:	00 00       	nop
  8005d4:	00 00       	nop
  8005d6:	00 00       	nop
  8005d8:	00 00       	nop
  8005da:	00 00       	nop
  8005dc:	00 00       	nop
  8005de:	00 00       	nop
  8005e0:	00 00       	nop
  8005e2:	00 00       	nop
  8005e4:	00 00       	nop
  8005e6:	00 00       	nop
  8005e8:	00 00       	nop
  8005ea:	00 00       	nop
  8005ec:	00 00       	nop
  8005ee:	00 00       	nop
  8005f0:	00 00       	nop
  8005f2:	00 00       	nop
  8005f4:	00 00       	nop
  8005f6:	00 00       	nop
  8005f8:	00 00       	nop
  8005fa:	00 00       	nop
  8005fc:	00 00       	nop
  8005fe:	00 00       	nop
  800600:	00 00       	nop
  800602:	00 00       	nop
  800604:	00 00       	nop
  800606:	00 00       	nop
  800608:	00 00       	nop
  80060a:	00 00       	nop
  80060c:	00 00       	nop
  80060e:	00 00       	nop
  800610:	00 00       	nop
  800612:	00 00       	nop
  800614:	00 00       	nop
  800616:	00 00       	nop
  800618:	00 00       	nop
  80061a:	00 00       	nop
  80061c:	00 00       	nop
  80061e:	00 00       	nop
  800620:	00 00       	nop
  800622:	00 00       	nop

00800624 <sequence_number.1463>:
  800624:	00 00       	nop

00800626 <ec_stack_task_send>:
  800626:	00 00       	nop
  800628:	00 00       	nop
  80062a:	00 00       	nop
  80062c:	00 00       	nop
  80062e:	00 00       	nop
  800630:	00 00       	nop
  800632:	00 00       	nop
  800634:	00 00       	nop
  800636:	00 00       	nop
  800638:	00 00       	nop
  80063a:	00 00       	nop
  80063c:	00 00       	nop
  80063e:	00 00       	nop
  800640:	00 00       	nop
  800642:	00 00       	nop
  800644:	00 00       	nop
  800646:	00 00       	nop
  800648:	00 00       	nop
  80064a:	00 00       	nop
  80064c:	00 00       	nop
  80064e:	00 00       	nop
  800650:	00 00       	nop
  800652:	00 00       	nop
  800654:	00 00       	nop
  800656:	00 00       	nop
  800658:	00 00       	nop
  80065a:	00 00       	nop
  80065c:	00 00       	nop
  80065e:	00 00       	nop
  800660:	00 00       	nop
  800662:	00 00       	nop
  800664:	00 00       	nop
  800666:	00 00       	nop
  800668:	00 00       	nop
  80066a:	00 00       	nop
  80066c:	00 00       	nop
  80066e:	00 00       	nop
  800670:	00 00       	nop
  800672:	00 00       	nop
  800674:	00 00       	nop
  800676:	00 00       	nop
  800678:	00 00       	nop
  80067a:	00 00       	nop
  80067c:	00 00       	nop
  80067e:	00 00       	nop
  800680:	00 00       	nop
  800682:	00 00       	nop
  800684:	00 00       	nop
  800686:	00 00       	nop
  800688:	00 00       	nop
  80068a:	00 00       	nop
  80068c:	00 00       	nop
  80068e:	00 00       	nop
  800690:	00 00       	nop
  800692:	00 00       	nop
  800694:	00 00       	nop
  800696:	00 00       	nop
  800698:	00 00       	nop
  80069a:	00 00       	nop
  80069c:	00 00       	nop
  80069e:	00 00       	nop
  8006a0:	00 00       	nop
  8006a2:	00 00       	nop
  8006a4:	00 00       	nop
  8006a6:	00 00       	nop
  8006a8:	00 00       	nop
  8006aa:	00 00       	nop
  8006ac:	00 00       	nop
  8006ae:	00 00       	nop
  8006b0:	00 00       	nop
  8006b2:	00 00       	nop
  8006b4:	00 00       	nop
  8006b6:	00 00       	nop
  8006b8:	00 00       	nop
  8006ba:	00 00       	nop
  8006bc:	00 00       	nop
  8006be:	00 00       	nop
  8006c0:	00 00       	nop
  8006c2:	00 00       	nop
  8006c4:	00 00       	nop
  8006c6:	00 00       	nop
  8006c8:	00 00       	nop
  8006ca:	00 00       	nop
  8006cc:	00 00       	nop
  8006ce:	00 00       	nop
  8006d0:	00 00       	nop
  8006d2:	00 00       	nop
  8006d4:	00 00       	nop
  8006d6:	00 00       	nop
  8006d8:	00 00       	nop
  8006da:	00 00       	nop
  8006dc:	00 00       	nop
  8006de:	00 00       	nop
  8006e0:	00 00       	nop
  8006e2:	00 00       	nop
  8006e4:	00 00       	nop
  8006e6:	00 00       	nop
  8006e8:	00 00       	nop
  8006ea:	00 00       	nop
  8006ec:	00 00       	nop
  8006ee:	00 00       	nop
  8006f0:	00 00       	nop
  8006f2:	00 00       	nop
  8006f4:	00 00       	nop
  8006f6:	00 00       	nop
  8006f8:	00 00       	nop
  8006fa:	00 00       	nop
  8006fc:	00 00       	nop
  8006fe:	00 00       	nop
  800700:	00 00       	nop
  800702:	00 00       	nop
  800704:	00 00       	nop
  800706:	00 00       	nop
  800708:	00 00       	nop
  80070a:	00 00       	nop
  80070c:	00 00       	nop
  80070e:	00 00       	nop
  800710:	00 00       	nop
  800712:	00 00       	nop
  800714:	00 00       	nop
  800716:	00 00       	nop
  800718:	00 00       	nop
  80071a:	00 00       	nop
  80071c:	00 00       	nop
  80071e:	00 00       	nop
  800720:	00 00       	nop
  800722:	00 00       	nop
  800724:	00 00       	nop
  800726:	00 00       	nop
  800728:	00 00       	nop
  80072a:	00 00       	nop
  80072c:	00 00       	nop
  80072e:	00 00       	nop
  800730:	00 00       	nop
  800732:	00 00       	nop
  800734:	00 00       	nop
  800736:	00 00       	nop
  800738:	00 00       	nop
  80073a:	00 00       	nop
  80073c:	00 00       	nop
  80073e:	00 00       	nop
  800740:	00 00       	nop
  800742:	00 00       	nop
  800744:	00 00       	nop
  800746:	00 00       	nop
  800748:	00 00       	nop
  80074a:	00 00       	nop
  80074c:	00 00       	nop
  80074e:	00 00       	nop
  800750:	00 00       	nop
  800752:	00 00       	nop
  800754:	00 00       	nop
  800756:	00 00       	nop
  800758:	00 00       	nop
  80075a:	00 00       	nop
  80075c:	00 00       	nop
  80075e:	00 00       	nop
  800760:	00 00       	nop
  800762:	00 00       	nop
  800764:	00 00       	nop
  800766:	00 00       	nop
  800768:	00 00       	nop
  80076a:	00 00       	nop
  80076c:	00 00       	nop
  80076e:	00 00       	nop
  800770:	00 00       	nop
  800772:	00 00       	nop
  800774:	00 00       	nop
  800776:	00 00       	nop
  800778:	00 00       	nop
  80077a:	00 00       	nop
  80077c:	00 00       	nop
  80077e:	00 00       	nop
  800780:	00 00       	nop
  800782:	00 00       	nop
  800784:	00 00       	nop
  800786:	00 00       	nop
  800788:	00 00       	nop
  80078a:	00 00       	nop
  80078c:	00 00       	nop
  80078e:	00 00       	nop
  800790:	00 00       	nop
  800792:	00 00       	nop
  800794:	00 00       	nop
  800796:	00 00       	nop
  800798:	00 00       	nop
  80079a:	00 00       	nop
  80079c:	00 00       	nop
  80079e:	00 00       	nop
  8007a0:	00 00       	nop
  8007a2:	00 00       	nop
  8007a4:	00 00       	nop
  8007a6:	00 00       	nop
  8007a8:	00 00       	nop
  8007aa:	00 00       	nop
  8007ac:	00 00       	nop
  8007ae:	00 00       	nop
  8007b0:	00 00       	nop
  8007b2:	00 00       	nop
  8007b4:	00 00       	nop
  8007b6:	00 00       	nop
  8007b8:	00 00       	nop
  8007ba:	00 00       	nop
  8007bc:	00 00       	nop
  8007be:	00 00       	nop
  8007c0:	00 00       	nop
  8007c2:	00 00       	nop
  8007c4:	00 00       	nop
  8007c6:	00 00       	nop
  8007c8:	00 00       	nop
  8007ca:	00 00       	nop
  8007cc:	00 00       	nop
  8007ce:	00 00       	nop
  8007d0:	00 00       	nop
  8007d2:	00 00       	nop
  8007d4:	00 00       	nop
  8007d6:	00 00       	nop
  8007d8:	00 00       	nop
  8007da:	00 00       	nop
  8007dc:	00 00       	nop
  8007de:	00 00       	nop
  8007e0:	00 00       	nop
  8007e2:	00 00       	nop
  8007e4:	00 00       	nop
  8007e6:	00 00       	nop
  8007e8:	00 00       	nop
  8007ea:	00 00       	nop
  8007ec:	00 00       	nop
  8007ee:	00 00       	nop
  8007f0:	00 00       	nop
  8007f2:	00 00       	nop
  8007f4:	00 00       	nop
  8007f6:	00 00       	nop
  8007f8:	00 00       	nop
  8007fa:	00 00       	nop
  8007fc:	00 00       	nop
  8007fe:	00 00       	nop
  800800:	00 00       	nop
  800802:	00 00       	nop
  800804:	00 00       	nop
  800806:	00 00       	nop
  800808:	00 00       	nop
  80080a:	00 00       	nop
  80080c:	00 00       	nop
  80080e:	00 00       	nop
  800810:	00 00       	nop
  800812:	00 00       	nop
  800814:	00 00       	nop
  800816:	00 00       	nop
  800818:	00 00       	nop
  80081a:	00 00       	nop
  80081c:	00 00       	nop
  80081e:	00 00       	nop
  800820:	00 00       	nop
  800822:	00 00       	nop
  800824:	00 00       	nop
  800826:	00 00       	nop
  800828:	00 00       	nop
  80082a:	00 00       	nop
  80082c:	00 00       	nop
  80082e:	00 00       	nop
  800830:	00 00       	nop
  800832:	00 00       	nop
  800834:	00 00       	nop
  800836:	00 00       	nop
  800838:	00 00       	nop
  80083a:	00 00       	nop
  80083c:	00 00       	nop
  80083e:	00 00       	nop
  800840:	00 00       	nop
  800842:	00 00       	nop
  800844:	00 00       	nop
  800846:	00 00       	nop
  800848:	00 00       	nop
  80084a:	00 00       	nop
  80084c:	00 00       	nop
  80084e:	00 00       	nop
  800850:	00 00       	nop
  800852:	00 00       	nop
  800854:	00 00       	nop
  800856:	00 00       	nop
  800858:	00 00       	nop
  80085a:	00 00       	nop
  80085c:	00 00       	nop
  80085e:	00 00       	nop
  800860:	00 00       	nop
  800862:	00 00       	nop
  800864:	00 00       	nop
  800866:	00 00       	nop
  800868:	00 00       	nop
  80086a:	00 00       	nop
  80086c:	00 00       	nop
  80086e:	00 00       	nop
  800870:	00 00       	nop
  800872:	00 00       	nop
  800874:	00 00       	nop
  800876:	00 00       	nop
  800878:	00 00       	nop
  80087a:	00 00       	nop
  80087c:	00 00       	nop
  80087e:	00 00       	nop
  800880:	00 00       	nop
  800882:	00 00       	nop
  800884:	00 00       	nop
  800886:	00 00       	nop
  800888:	00 00       	nop
  80088a:	00 00       	nop
  80088c:	00 00       	nop
  80088e:	00 00       	nop
  800890:	00 00       	nop
  800892:	00 00       	nop
  800894:	00 00       	nop
  800896:	00 00       	nop
  800898:	00 00       	nop
  80089a:	00 00       	nop
  80089c:	00 00       	nop
  80089e:	00 00       	nop
  8008a0:	00 00       	nop
  8008a2:	00 00       	nop
  8008a4:	00 00       	nop
  8008a6:	00 00       	nop
  8008a8:	00 00       	nop
  8008aa:	00 00       	nop
  8008ac:	00 00       	nop
  8008ae:	00 00       	nop
  8008b0:	00 00       	nop
  8008b2:	00 00       	nop
  8008b4:	00 00       	nop
  8008b6:	00 00       	nop
  8008b8:	00 00       	nop
  8008ba:	00 00       	nop
  8008bc:	00 00       	nop
  8008be:	00 00       	nop
  8008c0:	00 00       	nop
  8008c2:	00 00       	nop
  8008c4:	00 00       	nop
  8008c6:	00 00       	nop
  8008c8:	00 00       	nop
  8008ca:	00 00       	nop
  8008cc:	00 00       	nop
  8008ce:	00 00       	nop
  8008d0:	00 00       	nop
  8008d2:	00 00       	nop
  8008d4:	00 00       	nop
  8008d6:	00 00       	nop
  8008d8:	00 00       	nop
  8008da:	00 00       	nop
  8008dc:	00 00       	nop
  8008de:	00 00       	nop
  8008e0:	00 00       	nop
  8008e2:	00 00       	nop
  8008e4:	00 00       	nop
  8008e6:	00 00       	nop
  8008e8:	00 00       	nop
  8008ea:	00 00       	nop
  8008ec:	00 00       	nop
  8008ee:	00 00       	nop
  8008f0:	00 00       	nop
  8008f2:	00 00       	nop
  8008f4:	00 00       	nop
  8008f6:	00 00       	nop
  8008f8:	00 00       	nop
  8008fa:	00 00       	nop
  8008fc:	00 00       	nop
  8008fe:	00 00       	nop
  800900:	00 00       	nop
  800902:	00 00       	nop
  800904:	00 00       	nop
  800906:	00 00       	nop
  800908:	00 00       	nop
  80090a:	00 00       	nop
  80090c:	00 00       	nop
  80090e:	00 00       	nop
  800910:	00 00       	nop
  800912:	00 00       	nop
  800914:	00 00       	nop
  800916:	00 00       	nop
  800918:	00 00       	nop
  80091a:	00 00       	nop
  80091c:	00 00       	nop
  80091e:	00 00       	nop
  800920:	00 00       	nop
  800922:	00 00       	nop
  800924:	00 00       	nop
  800926:	00 00       	nop
  800928:	00 00       	nop
  80092a:	00 00       	nop
  80092c:	00 00       	nop
  80092e:	00 00       	nop
  800930:	00 00       	nop
  800932:	00 00       	nop
  800934:	00 00       	nop
  800936:	00 00       	nop
  800938:	00 00       	nop
  80093a:	00 00       	nop
  80093c:	00 00       	nop
  80093e:	00 00       	nop
  800940:	00 00       	nop
  800942:	00 00       	nop
  800944:	00 00       	nop
  800946:	00 00       	nop
  800948:	00 00       	nop
  80094a:	00 00       	nop
  80094c:	00 00       	nop
  80094e:	00 00       	nop
  800950:	00 00       	nop
  800952:	00 00       	nop
  800954:	00 00       	nop
  800956:	00 00       	nop
  800958:	00 00       	nop
  80095a:	00 00       	nop
  80095c:	00 00       	nop
  80095e:	00 00       	nop
  800960:	00 00       	nop
  800962:	00 00       	nop
  800964:	00 00       	nop
  800966:	00 00       	nop
  800968:	00 00       	nop
  80096a:	00 00       	nop
  80096c:	00 00       	nop
  80096e:	00 00       	nop
  800970:	00 00       	nop
  800972:	00 00       	nop
  800974:	00 00       	nop
  800976:	00 00       	nop
  800978:	00 00       	nop
  80097a:	00 00       	nop
  80097c:	00 00       	nop
  80097e:	00 00       	nop
  800980:	00 00       	nop
  800982:	00 00       	nop
  800984:	00 00       	nop
  800986:	00 00       	nop
  800988:	00 00       	nop
  80098a:	00 00       	nop
  80098c:	00 00       	nop
  80098e:	00 00       	nop
  800990:	00 00       	nop
  800992:	00 00       	nop
  800994:	00 00       	nop
  800996:	00 00       	nop
  800998:	00 00       	nop
  80099a:	00 00       	nop
  80099c:	00 00       	nop
  80099e:	00 00       	nop
  8009a0:	00 00       	nop
  8009a2:	00 00       	nop
  8009a4:	00 00       	nop
  8009a6:	00 00       	nop
  8009a8:	00 00       	nop
  8009aa:	00 00       	nop
  8009ac:	00 00       	nop
  8009ae:	00 00       	nop
  8009b0:	00 00       	nop
  8009b2:	00 00       	nop
  8009b4:	00 00       	nop
  8009b6:	00 00       	nop
  8009b8:	00 00       	nop
  8009ba:	00 00       	nop
  8009bc:	00 00       	nop
  8009be:	00 00       	nop
  8009c0:	00 00       	nop
  8009c2:	00 00       	nop
  8009c4:	00 00       	nop
  8009c6:	00 00       	nop
  8009c8:	00 00       	nop
  8009ca:	00 00       	nop
  8009cc:	00 00       	nop
  8009ce:	00 00       	nop
  8009d0:	00 00       	nop
  8009d2:	00 00       	nop
  8009d4:	00 00       	nop
  8009d6:	00 00       	nop
  8009d8:	00 00       	nop
  8009da:	00 00       	nop
  8009dc:	00 00       	nop
  8009de:	00 00       	nop
  8009e0:	00 00       	nop
  8009e2:	00 00       	nop
  8009e4:	00 00       	nop
  8009e6:	00 00       	nop
  8009e8:	00 00       	nop
  8009ea:	00 00       	nop
  8009ec:	00 00       	nop
  8009ee:	00 00       	nop
  8009f0:	00 00       	nop
  8009f2:	00 00       	nop
  8009f4:	00 00       	nop
  8009f6:	00 00       	nop
  8009f8:	00 00       	nop
  8009fa:	00 00       	nop
  8009fc:	00 00       	nop
  8009fe:	00 00       	nop
  800a00:	00 00       	nop
  800a02:	00 00       	nop
  800a04:	00 00       	nop
  800a06:	00 00       	nop
  800a08:	00 00       	nop
  800a0a:	00 00       	nop
  800a0c:	00 00       	nop
  800a0e:	00 00       	nop
  800a10:	00 00       	nop
  800a12:	00 00       	nop
  800a14:	00 00       	nop
  800a16:	00 00       	nop
  800a18:	00 00       	nop
  800a1a:	00 00       	nop
  800a1c:	00 00       	nop
  800a1e:	00 00       	nop
  800a20:	00 00       	nop
  800a22:	00 00       	nop
  800a24:	00 00       	nop
  800a26:	00 00       	nop
  800a28:	00 00       	nop
  800a2a:	00 00       	nop
  800a2c:	00 00       	nop
  800a2e:	00 00       	nop
  800a30:	00 00       	nop
  800a32:	00 00       	nop
  800a34:	00 00       	nop
  800a36:	00 00       	nop
  800a38:	00 00       	nop
  800a3a:	00 00       	nop
  800a3c:	00 00       	nop
  800a3e:	00 00       	nop
  800a40:	00 00       	nop
  800a42:	00 00       	nop
  800a44:	00 00       	nop
  800a46:	00 00       	nop
  800a48:	00 00       	nop
  800a4a:	00 00       	nop
  800a4c:	00 00       	nop
  800a4e:	00 00       	nop
  800a50:	00 00       	nop
  800a52:	00 00       	nop
  800a54:	00 00       	nop
  800a56:	00 00       	nop
  800a58:	00 00       	nop
  800a5a:	00 00       	nop
  800a5c:	00 00       	nop
  800a5e:	00 00       	nop

00800a60 <ec_stack_task_receive>:
  800a60:	00 00       	nop
  800a62:	00 00       	nop
  800a64:	00 00       	nop
  800a66:	00 00       	nop
  800a68:	00 00       	nop
  800a6a:	00 00       	nop
  800a6c:	00 00       	nop
  800a6e:	00 00       	nop
  800a70:	00 00       	nop
  800a72:	00 00       	nop
  800a74:	00 00       	nop
  800a76:	00 00       	nop
  800a78:	00 00       	nop
  800a7a:	00 00       	nop
  800a7c:	00 00       	nop
  800a7e:	00 00       	nop
  800a80:	00 00       	nop
  800a82:	00 00       	nop
  800a84:	00 00       	nop
  800a86:	00 00       	nop
  800a88:	00 00       	nop
  800a8a:	00 00       	nop

00800a8c <ec_stack_task_collect>:
  800a8c:	00 00       	nop
  800a8e:	00 00       	nop
  800a90:	00 00       	nop
  800a92:	00 00       	nop
  800a94:	00 00       	nop
  800a96:	00 00       	nop
  800a98:	00 00       	nop
  800a9a:	00 00       	nop
  800a9c:	00 00       	nop
  800a9e:	00 00       	nop
  800aa0:	00 00       	nop
  800aa2:	00 00       	nop
  800aa4:	00 00       	nop
  800aa6:	00 00       	nop
  800aa8:	00 00       	nop
  800aaa:	00 00       	nop
  800aac:	00 00       	nop
  800aae:	00 00       	nop
  800ab0:	00 00       	nop
  800ab2:	00 00       	nop
  800ab4:	00 00       	nop

00800ab6 <handle>:
  800ab6:	00 00       	nop

00800ab8 <files>:
  800ab8:	00 00       	nop
  800aba:	00 00       	nop
  800abc:	00 00       	nop
  800abe:	00 00       	nop
  800ac0:	00 00       	nop
  800ac2:	00 00       	nop
  800ac4:	00 00       	nop
  800ac6:	00 00       	nop
  800ac8:	00 00       	nop
  800aca:	00 00       	nop
  800acc:	00 00       	nop
  800ace:	00 00       	nop
  800ad0:	00 00       	nop
  800ad2:	00 00       	nop
  800ad4:	00 00       	nop
  800ad6:	00 00       	nop
  800ad8:	00 00       	nop
  800ada:	00 00       	nop
  800adc:	00 00       	nop
  800ade:	00 00       	nop
  800ae0:	00 00       	nop
  800ae2:	00 00       	nop
  800ae4:	00 00       	nop
  800ae6:	00 00       	nop
  800ae8:	00 00       	nop
  800aea:	00 00       	nop
  800aec:	00 00       	nop
  800aee:	00 00       	nop
  800af0:	00 00       	nop
  800af2:	00 00       	nop
  800af4:	00 00       	nop
  800af6:	00 00       	nop
  800af8:	00 00       	nop
  800afa:	00 00       	nop
  800afc:	00 00       	nop
  800afe:	00 00       	nop
  800b00:	00 00       	nop
  800b02:	00 00       	nop
  800b04:	00 00       	nop
  800b06:	00 00       	nop
  800b08:	00 00       	nop
  800b0a:	00 00       	nop
  800b0c:	00 00       	nop
  800b0e:	00 00       	nop
  800b10:	00 00       	nop
  800b12:	00 00       	nop
  800b14:	00 00       	nop
  800b16:	00 00       	nop
  800b18:	00 00       	nop
  800b1a:	00 00       	nop
  800b1c:	00 00       	nop
  800b1e:	00 00       	nop
  800b20:	00 00       	nop
  800b22:	00 00       	nop
  800b24:	00 00       	nop
  800b26:	00 00       	nop
  800b28:	00 00       	nop
  800b2a:	00 00       	nop
  800b2c:	00 00       	nop
  800b2e:	00 00       	nop
  800b30:	00 00       	nop
  800b32:	00 00       	nop
  800b34:	00 00       	nop
  800b36:	00 00       	nop
  800b38:	00 00       	nop
  800b3a:	00 00       	nop
  800b3c:	00 00       	nop
  800b3e:	00 00       	nop
  800b40:	00 00       	nop
  800b42:	00 00       	nop
  800b44:	00 00       	nop
  800b46:	00 00       	nop
  800b48:	00 00       	nop
  800b4a:	00 00       	nop
  800b4c:	00 00       	nop
  800b4e:	00 00       	nop
  800b50:	00 00       	nop
  800b52:	00 00       	nop
  800b54:	00 00       	nop
  800b56:	00 00       	nop
  800b58:	00 00       	nop
  800b5a:	00 00       	nop
  800b5c:	00 00       	nop
  800b5e:	00 00       	nop
  800b60:	00 00       	nop
  800b62:	00 00       	nop
  800b64:	00 00       	nop
  800b66:	00 00       	nop
  800b68:	00 00       	nop
  800b6a:	00 00       	nop
  800b6c:	00 00       	nop
  800b6e:	00 00       	nop
  800b70:	00 00       	nop
  800b72:	00 00       	nop
  800b74:	00 00       	nop
  800b76:	00 00       	nop
  800b78:	00 00       	nop
  800b7a:	00 00       	nop
  800b7c:	00 00       	nop
  800b7e:	00 00       	nop
  800b80:	00 00       	nop
  800b82:	00 00       	nop
  800b84:	00 00       	nop
  800b86:	00 00       	nop
  800b88:	00 00       	nop
  800b8a:	00 00       	nop
  800b8c:	00 00       	nop
  800b8e:	00 00       	nop
  800b90:	00 00       	nop
  800b92:	00 00       	nop
  800b94:	00 00       	nop
  800b96:	00 00       	nop
  800b98:	00 00       	nop
  800b9a:	00 00       	nop
  800b9c:	00 00       	nop
  800b9e:	00 00       	nop
  800ba0:	00 00       	nop
  800ba2:	00 00       	nop
  800ba4:	00 00       	nop
  800ba6:	00 00       	nop
  800ba8:	00 00       	nop
  800baa:	00 00       	nop
  800bac:	00 00       	nop
  800bae:	00 00       	nop
  800bb0:	00 00       	nop
  800bb2:	00 00       	nop
  800bb4:	00 00       	nop
  800bb6:	00 00       	nop
  800bb8:	00 00       	nop
  800bba:	00 00       	nop
  800bbc:	00 00       	nop
  800bbe:	00 00       	nop
  800bc0:	00 00       	nop
  800bc2:	00 00       	nop
  800bc4:	00 00       	nop
  800bc6:	00 00       	nop
  800bc8:	00 00       	nop
  800bca:	00 00       	nop
  800bcc:	00 00       	nop
  800bce:	00 00       	nop
  800bd0:	00 00       	nop
  800bd2:	00 00       	nop
  800bd4:	00 00       	nop
  800bd6:	00 00       	nop
  800bd8:	00 00       	nop
  800bda:	00 00       	nop
  800bdc:	00 00       	nop
  800bde:	00 00       	nop
  800be0:	00 00       	nop
  800be2:	00 00       	nop
  800be4:	00 00       	nop
  800be6:	00 00       	nop
  800be8:	00 00       	nop
  800bea:	00 00       	nop
  800bec:	00 00       	nop
  800bee:	00 00       	nop
  800bf0:	00 00       	nop
  800bf2:	00 00       	nop
  800bf4:	00 00       	nop
  800bf6:	00 00       	nop
  800bf8:	00 00       	nop
  800bfa:	00 00       	nop
  800bfc:	00 00       	nop
  800bfe:	00 00       	nop
  800c00:	00 00       	nop
  800c02:	00 00       	nop
  800c04:	00 00       	nop
  800c06:	00 00       	nop
  800c08:	00 00       	nop
  800c0a:	00 00       	nop
  800c0c:	00 00       	nop
  800c0e:	00 00       	nop
  800c10:	00 00       	nop
  800c12:	00 00       	nop
  800c14:	00 00       	nop
  800c16:	00 00       	nop
  800c18:	00 00       	nop
  800c1a:	00 00       	nop
  800c1c:	00 00       	nop
  800c1e:	00 00       	nop
  800c20:	00 00       	nop
  800c22:	00 00       	nop
  800c24:	00 00       	nop
  800c26:	00 00       	nop
  800c28:	00 00       	nop
  800c2a:	00 00       	nop
  800c2c:	00 00       	nop
  800c2e:	00 00       	nop
  800c30:	00 00       	nop
  800c32:	00 00       	nop
  800c34:	00 00       	nop
  800c36:	00 00       	nop
  800c38:	00 00       	nop
  800c3a:	00 00       	nop
  800c3c:	00 00       	nop
  800c3e:	00 00       	nop
  800c40:	00 00       	nop
  800c42:	00 00       	nop
  800c44:	00 00       	nop
  800c46:	00 00       	nop
  800c48:	00 00       	nop
  800c4a:	00 00       	nop
  800c4c:	00 00       	nop
  800c4e:	00 00       	nop
  800c50:	00 00       	nop
  800c52:	00 00       	nop
  800c54:	00 00       	nop
  800c56:	00 00       	nop
  800c58:	00 00       	nop
  800c5a:	00 00       	nop
  800c5c:	00 00       	nop
  800c5e:	00 00       	nop
  800c60:	00 00       	nop
  800c62:	00 00       	nop
  800c64:	00 00       	nop
  800c66:	00 00       	nop
  800c68:	00 00       	nop
  800c6a:	00 00       	nop
  800c6c:	00 00       	nop
  800c6e:	00 00       	nop
  800c70:	00 00       	nop
  800c72:	00 00       	nop
  800c74:	00 00       	nop
  800c76:	00 00       	nop
  800c78:	00 00       	nop
  800c7a:	00 00       	nop
  800c7c:	00 00       	nop
  800c7e:	00 00       	nop
  800c80:	00 00       	nop
  800c82:	00 00       	nop
  800c84:	00 00       	nop
  800c86:	00 00       	nop
  800c88:	00 00       	nop
  800c8a:	00 00       	nop
  800c8c:	00 00       	nop
  800c8e:	00 00       	nop
  800c90:	00 00       	nop
  800c92:	00 00       	nop
  800c94:	00 00       	nop
  800c96:	00 00       	nop
  800c98:	00 00       	nop
  800c9a:	00 00       	nop
  800c9c:	00 00       	nop
  800c9e:	00 00       	nop
  800ca0:	00 00       	nop
  800ca2:	00 00       	nop
  800ca4:	00 00       	nop
  800ca6:	00 00       	nop
  800ca8:	00 00       	nop
  800caa:	00 00       	nop
  800cac:	00 00       	nop
  800cae:	00 00       	nop
  800cb0:	00 00       	nop
  800cb2:	00 00       	nop
  800cb4:	00 00       	nop
  800cb6:	00 00       	nop
  800cb8:	00 00       	nop
  800cba:	00 00       	nop
  800cbc:	00 00       	nop
  800cbe:	00 00       	nop
  800cc0:	00 00       	nop
  800cc2:	00 00       	nop
  800cc4:	00 00       	nop
  800cc6:	00 00       	nop
  800cc8:	00 00       	nop
  800cca:	00 00       	nop
  800ccc:	00 00       	nop
  800cce:	00 00       	nop
  800cd0:	00 00       	nop
  800cd2:	00 00       	nop
  800cd4:	00 00       	nop
  800cd6:	00 00       	nop
  800cd8:	00 00       	nop
  800cda:	00 00       	nop
  800cdc:	00 00       	nop
  800cde:	00 00       	nop
  800ce0:	00 00       	nop
  800ce2:	00 00       	nop
  800ce4:	00 00       	nop
  800ce6:	00 00       	nop
  800ce8:	00 00       	nop
  800cea:	00 00       	nop
  800cec:	00 00       	nop
  800cee:	00 00       	nop
  800cf0:	00 00       	nop
  800cf2:	00 00       	nop
  800cf4:	00 00       	nop
  800cf6:	00 00       	nop
  800cf8:	00 00       	nop
  800cfa:	00 00       	nop
  800cfc:	00 00       	nop
  800cfe:	00 00       	nop
  800d00:	00 00       	nop
  800d02:	00 00       	nop
  800d04:	00 00       	nop
  800d06:	00 00       	nop
  800d08:	00 00       	nop
  800d0a:	00 00       	nop
  800d0c:	00 00       	nop
  800d0e:	00 00       	nop
  800d10:	00 00       	nop
  800d12:	00 00       	nop
  800d14:	00 00       	nop
  800d16:	00 00       	nop
  800d18:	00 00       	nop
  800d1a:	00 00       	nop
  800d1c:	00 00       	nop
  800d1e:	00 00       	nop
  800d20:	00 00       	nop
  800d22:	00 00       	nop
  800d24:	00 00       	nop
  800d26:	00 00       	nop
  800d28:	00 00       	nop
  800d2a:	00 00       	nop
  800d2c:	00 00       	nop
  800d2e:	00 00       	nop
  800d30:	00 00       	nop
  800d32:	00 00       	nop
  800d34:	00 00       	nop
  800d36:	00 00       	nop
  800d38:	00 00       	nop
  800d3a:	00 00       	nop
  800d3c:	00 00       	nop
  800d3e:	00 00       	nop
  800d40:	00 00       	nop
  800d42:	00 00       	nop
  800d44:	00 00       	nop
  800d46:	00 00       	nop
  800d48:	00 00       	nop
  800d4a:	00 00       	nop
  800d4c:	00 00       	nop
  800d4e:	00 00       	nop
  800d50:	00 00       	nop
  800d52:	00 00       	nop
  800d54:	00 00       	nop
  800d56:	00 00       	nop
  800d58:	00 00       	nop
  800d5a:	00 00       	nop
  800d5c:	00 00       	nop
  800d5e:	00 00       	nop
  800d60:	00 00       	nop
  800d62:	00 00       	nop
  800d64:	00 00       	nop
  800d66:	00 00       	nop
  800d68:	00 00       	nop
  800d6a:	00 00       	nop
  800d6c:	00 00       	nop
  800d6e:	00 00       	nop
  800d70:	00 00       	nop
  800d72:	00 00       	nop
  800d74:	00 00       	nop
  800d76:	00 00       	nop
  800d78:	00 00       	nop
  800d7a:	00 00       	nop
  800d7c:	00 00       	nop
  800d7e:	00 00       	nop
  800d80:	00 00       	nop
  800d82:	00 00       	nop
  800d84:	00 00       	nop
  800d86:	00 00       	nop
  800d88:	00 00       	nop
  800d8a:	00 00       	nop
  800d8c:	00 00       	nop
  800d8e:	00 00       	nop
  800d90:	00 00       	nop
  800d92:	00 00       	nop
  800d94:	00 00       	nop
  800d96:	00 00       	nop
  800d98:	00 00       	nop
  800d9a:	00 00       	nop
  800d9c:	00 00       	nop
  800d9e:	00 00       	nop
  800da0:	00 00       	nop
  800da2:	00 00       	nop
  800da4:	00 00       	nop
  800da6:	00 00       	nop
  800da8:	00 00       	nop
  800daa:	00 00       	nop
  800dac:	00 00       	nop
  800dae:	00 00       	nop
  800db0:	00 00       	nop
  800db2:	00 00       	nop
  800db4:	00 00       	nop
  800db6:	00 00       	nop
  800db8:	00 00       	nop
  800dba:	00 00       	nop
  800dbc:	00 00       	nop
  800dbe:	00 00       	nop
  800dc0:	00 00       	nop
  800dc2:	00 00       	nop
  800dc4:	00 00       	nop
  800dc6:	00 00       	nop
  800dc8:	00 00       	nop
  800dca:	00 00       	nop
  800dcc:	00 00       	nop
  800dce:	00 00       	nop
  800dd0:	00 00       	nop
  800dd2:	00 00       	nop
  800dd4:	00 00       	nop
  800dd6:	00 00       	nop
  800dd8:	00 00       	nop
  800dda:	00 00       	nop
  800ddc:	00 00       	nop
  800dde:	00 00       	nop
  800de0:	00 00       	nop
  800de2:	00 00       	nop
  800de4:	00 00       	nop
  800de6:	00 00       	nop
  800de8:	00 00       	nop
  800dea:	00 00       	nop
  800dec:	00 00       	nop
  800dee:	00 00       	nop
  800df0:	00 00       	nop
  800df2:	00 00       	nop
  800df4:	00 00       	nop
  800df6:	00 00       	nop
  800df8:	00 00       	nop
  800dfa:	00 00       	nop
  800dfc:	00 00       	nop
  800dfe:	00 00       	nop
  800e00:	00 00       	nop
  800e02:	00 00       	nop
  800e04:	00 00       	nop
  800e06:	00 00       	nop
  800e08:	00 00       	nop
  800e0a:	00 00       	nop
  800e0c:	00 00       	nop
  800e0e:	00 00       	nop
  800e10:	00 00       	nop
  800e12:	00 00       	nop
  800e14:	00 00       	nop
  800e16:	00 00       	nop
  800e18:	00 00       	nop
  800e1a:	00 00       	nop
  800e1c:	00 00       	nop
  800e1e:	00 00       	nop
  800e20:	00 00       	nop
  800e22:	00 00       	nop
  800e24:	00 00       	nop
  800e26:	00 00       	nop
  800e28:	00 00       	nop
  800e2a:	00 00       	nop
  800e2c:	00 00       	nop
  800e2e:	00 00       	nop
  800e30:	00 00       	nop
  800e32:	00 00       	nop
  800e34:	00 00       	nop
  800e36:	00 00       	nop
  800e38:	00 00       	nop
  800e3a:	00 00       	nop
  800e3c:	00 00       	nop
  800e3e:	00 00       	nop
  800e40:	00 00       	nop
  800e42:	00 00       	nop
  800e44:	00 00       	nop
  800e46:	00 00       	nop
  800e48:	00 00       	nop
  800e4a:	00 00       	nop
  800e4c:	00 00       	nop
  800e4e:	00 00       	nop
  800e50:	00 00       	nop
  800e52:	00 00       	nop
  800e54:	00 00       	nop
  800e56:	00 00       	nop
  800e58:	00 00       	nop
  800e5a:	00 00       	nop
  800e5c:	00 00       	nop
  800e5e:	00 00       	nop
  800e60:	00 00       	nop
  800e62:	00 00       	nop
  800e64:	00 00       	nop
  800e66:	00 00       	nop
  800e68:	00 00       	nop
  800e6a:	00 00       	nop
  800e6c:	00 00       	nop
  800e6e:	00 00       	nop
  800e70:	00 00       	nop
  800e72:	00 00       	nop
  800e74:	00 00       	nop
  800e76:	00 00       	nop
  800e78:	00 00       	nop
  800e7a:	00 00       	nop
  800e7c:	00 00       	nop
  800e7e:	00 00       	nop
  800e80:	00 00       	nop
  800e82:	00 00       	nop
  800e84:	00 00       	nop
  800e86:	00 00       	nop
  800e88:	00 00       	nop
  800e8a:	00 00       	nop
  800e8c:	00 00       	nop
  800e8e:	00 00       	nop
  800e90:	00 00       	nop
  800e92:	00 00       	nop
  800e94:	00 00       	nop
  800e96:	00 00       	nop
  800e98:	00 00       	nop
  800e9a:	00 00       	nop
  800e9c:	00 00       	nop
  800e9e:	00 00       	nop
  800ea0:	00 00       	nop
  800ea2:	00 00       	nop
  800ea4:	00 00       	nop
  800ea6:	00 00       	nop
  800ea8:	00 00       	nop
  800eaa:	00 00       	nop
  800eac:	00 00       	nop
  800eae:	00 00       	nop
  800eb0:	00 00       	nop
  800eb2:	00 00       	nop
  800eb4:	00 00       	nop
  800eb6:	00 00       	nop
  800eb8:	00 00       	nop
  800eba:	00 00       	nop
  800ebc:	00 00       	nop
  800ebe:	00 00       	nop
  800ec0:	00 00       	nop
  800ec2:	00 00       	nop
  800ec4:	00 00       	nop
  800ec6:	00 00       	nop
  800ec8:	00 00       	nop
  800eca:	00 00       	nop
  800ecc:	00 00       	nop
  800ece:	00 00       	nop
  800ed0:	00 00       	nop
  800ed2:	00 00       	nop
  800ed4:	00 00       	nop
  800ed6:	00 00       	nop
  800ed8:	00 00       	nop
  800eda:	00 00       	nop
  800edc:	00 00       	nop
  800ede:	00 00       	nop
  800ee0:	00 00       	nop
  800ee2:	00 00       	nop
  800ee4:	00 00       	nop
  800ee6:	00 00       	nop
  800ee8:	00 00       	nop
  800eea:	00 00       	nop
  800eec:	00 00       	nop
  800eee:	00 00       	nop
  800ef0:	00 00       	nop
  800ef2:	00 00       	nop
  800ef4:	00 00       	nop
  800ef6:	00 00       	nop
  800ef8:	00 00       	nop
  800efa:	00 00       	nop
  800efc:	00 00       	nop
  800efe:	00 00       	nop
  800f00:	00 00       	nop
  800f02:	00 00       	nop
  800f04:	00 00       	nop
  800f06:	00 00       	nop
  800f08:	00 00       	nop
  800f0a:	00 00       	nop
  800f0c:	00 00       	nop
  800f0e:	00 00       	nop
  800f10:	00 00       	nop
  800f12:	00 00       	nop
  800f14:	00 00       	nop
  800f16:	00 00       	nop
  800f18:	00 00       	nop
  800f1a:	00 00       	nop
  800f1c:	00 00       	nop
  800f1e:	00 00       	nop
  800f20:	00 00       	nop
  800f22:	00 00       	nop
  800f24:	00 00       	nop
  800f26:	00 00       	nop
  800f28:	00 00       	nop
  800f2a:	00 00       	nop
  800f2c:	00 00       	nop
  800f2e:	00 00       	nop
  800f30:	00 00       	nop
  800f32:	00 00       	nop
  800f34:	00 00       	nop
  800f36:	00 00       	nop
  800f38:	00 00       	nop
  800f3a:	00 00       	nop
  800f3c:	00 00       	nop
  800f3e:	00 00       	nop
  800f40:	00 00       	nop
  800f42:	00 00       	nop
  800f44:	00 00       	nop
  800f46:	00 00       	nop
  800f48:	00 00       	nop
  800f4a:	00 00       	nop
  800f4c:	00 00       	nop
  800f4e:	00 00       	nop
  800f50:	00 00       	nop
  800f52:	00 00       	nop
  800f54:	00 00       	nop
  800f56:	00 00       	nop
  800f58:	00 00       	nop
  800f5a:	00 00       	nop
  800f5c:	00 00       	nop
  800f5e:	00 00       	nop
  800f60:	00 00       	nop
  800f62:	00 00       	nop
  800f64:	00 00       	nop
  800f66:	00 00       	nop
  800f68:	00 00       	nop
  800f6a:	00 00       	nop
  800f6c:	00 00       	nop
  800f6e:	00 00       	nop
  800f70:	00 00       	nop
  800f72:	00 00       	nop
  800f74:	00 00       	nop
  800f76:	00 00       	nop
  800f78:	00 00       	nop
  800f7a:	00 00       	nop
  800f7c:	00 00       	nop
  800f7e:	00 00       	nop
  800f80:	00 00       	nop
  800f82:	00 00       	nop
  800f84:	00 00       	nop
  800f86:	00 00       	nop
  800f88:	00 00       	nop
  800f8a:	00 00       	nop
  800f8c:	00 00       	nop
  800f8e:	00 00       	nop
  800f90:	00 00       	nop
  800f92:	00 00       	nop
  800f94:	00 00       	nop
  800f96:	00 00       	nop
  800f98:	00 00       	nop
  800f9a:	00 00       	nop
  800f9c:	00 00       	nop
  800f9e:	00 00       	nop
  800fa0:	00 00       	nop
  800fa2:	00 00       	nop
  800fa4:	00 00       	nop
  800fa6:	00 00       	nop
  800fa8:	00 00       	nop
  800faa:	00 00       	nop
  800fac:	00 00       	nop
  800fae:	00 00       	nop
  800fb0:	00 00       	nop
  800fb2:	00 00       	nop
  800fb4:	00 00       	nop
  800fb6:	00 00       	nop
  800fb8:	00 00       	nop
  800fba:	00 00       	nop
  800fbc:	00 00       	nop
  800fbe:	00 00       	nop
  800fc0:	00 00       	nop
  800fc2:	00 00       	nop
  800fc4:	00 00       	nop
  800fc6:	00 00       	nop
  800fc8:	00 00       	nop
  800fca:	00 00       	nop
  800fcc:	00 00       	nop
  800fce:	00 00       	nop
  800fd0:	00 00       	nop
  800fd2:	00 00       	nop
  800fd4:	00 00       	nop
  800fd6:	00 00       	nop
  800fd8:	00 00       	nop
  800fda:	00 00       	nop
  800fdc:	00 00       	nop
  800fde:	00 00       	nop
  800fe0:	00 00       	nop
  800fe2:	00 00       	nop
  800fe4:	00 00       	nop
  800fe6:	00 00       	nop
  800fe8:	00 00       	nop
  800fea:	00 00       	nop
  800fec:	00 00       	nop
  800fee:	00 00       	nop
  800ff0:	00 00       	nop
  800ff2:	00 00       	nop
  800ff4:	00 00       	nop
  800ff6:	00 00       	nop
  800ff8:	00 00       	nop
  800ffa:	00 00       	nop
  800ffc:	00 00       	nop
  800ffe:	00 00       	nop
  801000:	00 00       	nop
  801002:	00 00       	nop
  801004:	00 00       	nop
  801006:	00 00       	nop
  801008:	00 00       	nop
  80100a:	00 00       	nop
  80100c:	00 00       	nop
  80100e:	00 00       	nop
  801010:	00 00       	nop
  801012:	00 00       	nop
  801014:	00 00       	nop
  801016:	00 00       	nop
  801018:	00 00       	nop
  80101a:	00 00       	nop
  80101c:	00 00       	nop
  80101e:	00 00       	nop
  801020:	00 00       	nop
  801022:	00 00       	nop
  801024:	00 00       	nop
  801026:	00 00       	nop
  801028:	00 00       	nop
  80102a:	00 00       	nop
  80102c:	00 00       	nop
  80102e:	00 00       	nop
  801030:	00 00       	nop
  801032:	00 00       	nop
  801034:	00 00       	nop
  801036:	00 00       	nop
  801038:	00 00       	nop
  80103a:	00 00       	nop
  80103c:	00 00       	nop
  80103e:	00 00       	nop
  801040:	00 00       	nop
  801042:	00 00       	nop
  801044:	00 00       	nop
  801046:	00 00       	nop
  801048:	00 00       	nop
  80104a:	00 00       	nop
  80104c:	00 00       	nop
  80104e:	00 00       	nop
  801050:	00 00       	nop
  801052:	00 00       	nop
  801054:	00 00       	nop
  801056:	00 00       	nop
  801058:	00 00       	nop
  80105a:	00 00       	nop
  80105c:	00 00       	nop
  80105e:	00 00       	nop
  801060:	00 00       	nop
  801062:	00 00       	nop
  801064:	00 00       	nop
  801066:	00 00       	nop
  801068:	00 00       	nop
  80106a:	00 00       	nop
  80106c:	00 00       	nop
  80106e:	00 00       	nop
  801070:	00 00       	nop
  801072:	00 00       	nop
  801074:	00 00       	nop
  801076:	00 00       	nop
  801078:	00 00       	nop
  80107a:	00 00       	nop
  80107c:	00 00       	nop
  80107e:	00 00       	nop
  801080:	00 00       	nop
  801082:	00 00       	nop
  801084:	00 00       	nop
  801086:	00 00       	nop
  801088:	00 00       	nop
  80108a:	00 00       	nop
  80108c:	00 00       	nop
  80108e:	00 00       	nop
  801090:	00 00       	nop
  801092:	00 00       	nop
  801094:	00 00       	nop
  801096:	00 00       	nop
  801098:	00 00       	nop
  80109a:	00 00       	nop
  80109c:	00 00       	nop
  80109e:	00 00       	nop
  8010a0:	00 00       	nop
  8010a2:	00 00       	nop
  8010a4:	00 00       	nop
  8010a6:	00 00       	nop
  8010a8:	00 00       	nop
  8010aa:	00 00       	nop
  8010ac:	00 00       	nop
  8010ae:	00 00       	nop
  8010b0:	00 00       	nop
  8010b2:	00 00       	nop
  8010b4:	00 00       	nop
  8010b6:	00 00       	nop
  8010b8:	00 00       	nop
  8010ba:	00 00       	nop
  8010bc:	00 00       	nop
  8010be:	00 00       	nop
  8010c0:	00 00       	nop
  8010c2:	00 00       	nop
  8010c4:	00 00       	nop
  8010c6:	00 00       	nop
  8010c8:	00 00       	nop
  8010ca:	00 00       	nop
  8010cc:	00 00       	nop
  8010ce:	00 00       	nop
  8010d0:	00 00       	nop
  8010d2:	00 00       	nop
  8010d4:	00 00       	nop
  8010d6:	00 00       	nop
  8010d8:	00 00       	nop
  8010da:	00 00       	nop
  8010dc:	00 00       	nop
  8010de:	00 00       	nop
  8010e0:	00 00       	nop
  8010e2:	00 00       	nop
  8010e4:	00 00       	nop
  8010e6:	00 00       	nop
  8010e8:	00 00       	nop
  8010ea:	00 00       	nop
  8010ec:	00 00       	nop
  8010ee:	00 00       	nop
  8010f0:	00 00       	nop
  8010f2:	00 00       	nop
  8010f4:	00 00       	nop
  8010f6:	00 00       	nop
  8010f8:	00 00       	nop
  8010fa:	00 00       	nop
  8010fc:	00 00       	nop
  8010fe:	00 00       	nop
  801100:	00 00       	nop
  801102:	00 00       	nop
  801104:	00 00       	nop
  801106:	00 00       	nop
  801108:	00 00       	nop
  80110a:	00 00       	nop
  80110c:	00 00       	nop
  80110e:	00 00       	nop
  801110:	00 00       	nop
  801112:	00 00       	nop
  801114:	00 00       	nop
  801116:	00 00       	nop
  801118:	00 00       	nop
  80111a:	00 00       	nop
  80111c:	00 00       	nop
  80111e:	00 00       	nop
  801120:	00 00       	nop
  801122:	00 00       	nop
  801124:	00 00       	nop
  801126:	00 00       	nop
  801128:	00 00       	nop
  80112a:	00 00       	nop
  80112c:	00 00       	nop
  80112e:	00 00       	nop
  801130:	00 00       	nop
  801132:	00 00       	nop
  801134:	00 00       	nop
  801136:	00 00       	nop
  801138:	00 00       	nop
  80113a:	00 00       	nop
  80113c:	00 00       	nop
  80113e:	00 00       	nop
  801140:	00 00       	nop
  801142:	00 00       	nop
  801144:	00 00       	nop
  801146:	00 00       	nop
  801148:	00 00       	nop
  80114a:	00 00       	nop
  80114c:	00 00       	nop
  80114e:	00 00       	nop
  801150:	00 00       	nop
  801152:	00 00       	nop
  801154:	00 00       	nop
  801156:	00 00       	nop
  801158:	00 00       	nop
  80115a:	00 00       	nop
  80115c:	00 00       	nop
  80115e:	00 00       	nop
  801160:	00 00       	nop
  801162:	00 00       	nop
  801164:	00 00       	nop
  801166:	00 00       	nop
  801168:	00 00       	nop
  80116a:	00 00       	nop
  80116c:	00 00       	nop
  80116e:	00 00       	nop
  801170:	00 00       	nop
  801172:	00 00       	nop
  801174:	00 00       	nop
  801176:	00 00       	nop
  801178:	00 00       	nop
  80117a:	00 00       	nop
  80117c:	00 00       	nop
  80117e:	00 00       	nop
  801180:	00 00       	nop
  801182:	00 00       	nop
  801184:	00 00       	nop
  801186:	00 00       	nop
  801188:	00 00       	nop
  80118a:	00 00       	nop
  80118c:	00 00       	nop
  80118e:	00 00       	nop
  801190:	00 00       	nop
  801192:	00 00       	nop
  801194:	00 00       	nop
  801196:	00 00       	nop
  801198:	00 00       	nop
  80119a:	00 00       	nop
  80119c:	00 00       	nop
  80119e:	00 00       	nop
  8011a0:	00 00       	nop
  8011a2:	00 00       	nop
  8011a4:	00 00       	nop
  8011a6:	00 00       	nop
  8011a8:	00 00       	nop
  8011aa:	00 00       	nop
  8011ac:	00 00       	nop
  8011ae:	00 00       	nop
  8011b0:	00 00       	nop
  8011b2:	00 00       	nop
  8011b4:	00 00       	nop
  8011b6:	00 00       	nop
  8011b8:	00 00       	nop
  8011ba:	00 00       	nop
  8011bc:	00 00       	nop
  8011be:	00 00       	nop
  8011c0:	00 00       	nop
  8011c2:	00 00       	nop
  8011c4:	00 00       	nop
  8011c6:	00 00       	nop
  8011c8:	00 00       	nop
  8011ca:	00 00       	nop
  8011cc:	00 00       	nop
  8011ce:	00 00       	nop
  8011d0:	00 00       	nop
  8011d2:	00 00       	nop
  8011d4:	00 00       	nop
  8011d6:	00 00       	nop
  8011d8:	00 00       	nop
  8011da:	00 00       	nop
  8011dc:	00 00       	nop
  8011de:	00 00       	nop
  8011e0:	00 00       	nop
  8011e2:	00 00       	nop
  8011e4:	00 00       	nop
  8011e6:	00 00       	nop
  8011e8:	00 00       	nop
  8011ea:	00 00       	nop
  8011ec:	00 00       	nop
  8011ee:	00 00       	nop
  8011f0:	00 00       	nop
  8011f2:	00 00       	nop
  8011f4:	00 00       	nop
  8011f6:	00 00       	nop
  8011f8:	00 00       	nop
  8011fa:	00 00       	nop
  8011fc:	00 00       	nop
  8011fe:	00 00       	nop
  801200:	00 00       	nop
  801202:	00 00       	nop
  801204:	00 00       	nop
  801206:	00 00       	nop
  801208:	00 00       	nop
  80120a:	00 00       	nop
  80120c:	00 00       	nop
  80120e:	00 00       	nop
  801210:	00 00       	nop
  801212:	00 00       	nop
  801214:	00 00       	nop
  801216:	00 00       	nop
  801218:	00 00       	nop
  80121a:	00 00       	nop
  80121c:	00 00       	nop
  80121e:	00 00       	nop
  801220:	00 00       	nop
  801222:	00 00       	nop
  801224:	00 00       	nop
  801226:	00 00       	nop
  801228:	00 00       	nop
  80122a:	00 00       	nop
  80122c:	00 00       	nop
  80122e:	00 00       	nop
  801230:	00 00       	nop
  801232:	00 00       	nop
  801234:	00 00       	nop
  801236:	00 00       	nop
  801238:	00 00       	nop
  80123a:	00 00       	nop
  80123c:	00 00       	nop
  80123e:	00 00       	nop
  801240:	00 00       	nop
  801242:	00 00       	nop
  801244:	00 00       	nop
  801246:	00 00       	nop
  801248:	00 00       	nop
  80124a:	00 00       	nop
  80124c:	00 00       	nop
  80124e:	00 00       	nop
  801250:	00 00       	nop
  801252:	00 00       	nop
  801254:	00 00       	nop
  801256:	00 00       	nop
  801258:	00 00       	nop
  80125a:	00 00       	nop
  80125c:	00 00       	nop
  80125e:	00 00       	nop
  801260:	00 00       	nop
  801262:	00 00       	nop
  801264:	00 00       	nop
  801266:	00 00       	nop
  801268:	00 00       	nop
  80126a:	00 00       	nop
  80126c:	00 00       	nop
  80126e:	00 00       	nop
  801270:	00 00       	nop
  801272:	00 00       	nop
  801274:	00 00       	nop
  801276:	00 00       	nop
  801278:	00 00       	nop
  80127a:	00 00       	nop
  80127c:	00 00       	nop
  80127e:	00 00       	nop
  801280:	00 00       	nop
  801282:	00 00       	nop
  801284:	00 00       	nop
  801286:	00 00       	nop
  801288:	00 00       	nop
  80128a:	00 00       	nop
  80128c:	00 00       	nop
  80128e:	00 00       	nop
  801290:	00 00       	nop
  801292:	00 00       	nop
  801294:	00 00       	nop
  801296:	00 00       	nop
  801298:	00 00       	nop
  80129a:	00 00       	nop
  80129c:	00 00       	nop
  80129e:	00 00       	nop
  8012a0:	00 00       	nop
  8012a2:	00 00       	nop
  8012a4:	00 00       	nop
  8012a6:	00 00       	nop
  8012a8:	00 00       	nop
  8012aa:	00 00       	nop
  8012ac:	00 00       	nop
  8012ae:	00 00       	nop
  8012b0:	00 00       	nop
  8012b2:	00 00       	nop
  8012b4:	00 00       	nop
  8012b6:	00 00       	nop
  8012b8:	00 00       	nop
  8012ba:	00 00       	nop

008012bc <fileHandle>:
  8012bc:	00 00       	nop

008012be <fileNames>:
  8012be:	00 00       	nop
  8012c0:	00 00       	nop

008012c2 <max_time>:
  8012c2:	00 00       	nop
  8012c4:	00 00       	nop

008012c6 <queue>:
  8012c6:	00 00       	nop
  8012c8:	00 00       	nop
  8012ca:	00 00       	nop
  8012cc:	00 00       	nop
  8012ce:	00 00       	nop
  8012d0:	00 00       	nop
  8012d2:	00 00       	nop
  8012d4:	00 00       	nop
  8012d6:	00 00       	nop
  8012d8:	00 00       	nop
  8012da:	00 00       	nop
  8012dc:	00 00       	nop
  8012de:	00 00       	nop
  8012e0:	00 00       	nop
  8012e2:	00 00       	nop
  8012e4:	00 00       	nop
  8012e6:	00 00       	nop
  8012e8:	00 00       	nop
  8012ea:	00 00       	nop
  8012ec:	00 00       	nop
  8012ee:	00 00       	nop
  8012f0:	00 00       	nop
  8012f2:	00 00       	nop
  8012f4:	00 00       	nop
  8012f6:	00 00       	nop
  8012f8:	00 00       	nop
  8012fa:	00 00       	nop
  8012fc:	00 00       	nop
  8012fe:	00 00       	nop
  801300:	00 00       	nop
  801302:	00 00       	nop
  801304:	00 00       	nop
  801306:	00 00       	nop
  801308:	00 00       	nop
  80130a:	00 00       	nop
  80130c:	00 00       	nop
  80130e:	00 00       	nop
  801310:	00 00       	nop
  801312:	00 00       	nop
  801314:	00 00       	nop

00801316 <end>:
  801316:	00 00       	nop

00801318 <begin>:
  801318:	00 00       	nop

0080131a <simulation_time>:
  80131a:	00 00       	nop
  80131c:	00 00       	nop

0080131e <__brkval>:
  80131e:	00 00       	nop

00801320 <__flp>:
  801320:	00 00       	nop

Disassembly of section .stab:

00000000 <__heap_start-0x801322>:
       0:	01 00       	.word	0x0001	; ????
       2:	00 00       	nop
       4:	00 00       	nop
       6:	a3 03       	fmuls	r18, r19
       8:	0d 10       	cpse	r0, r13
       a:	00 00       	nop
       c:	01 00       	.word	0x0001	; ????
       e:	00 00       	nop
      10:	64 00       	.word	0x0064	; ????
      12:	00 00       	nop
      14:	ca 00       	.word	0x00ca	; ????
      16:	00 00       	nop
      18:	11 00       	.word	0x0011	; ????
      1a:	00 00       	nop
      1c:	80 00       	.word	0x0080	; ????
      1e:	00 00       	nop
      20:	00 00       	nop
      22:	00 00       	nop
      24:	1b 00       	.word	0x001b	; ????
      26:	00 00       	nop
      28:	24 00       	.word	0x0024	; ????
      2a:	33 00       	.word	0x0033	; ????
      2c:	00 00       	nop
      2e:	00 00       	nop
      30:	28 00       	.word	0x0028	; ????
      32:	00 00       	nop
      34:	84 00       	.word	0x0084	; ????
      36:	00 00       	nop
      38:	00 00       	nop
      3a:	00 00       	nop
      3c:	00 00       	nop
      3e:	00 00       	nop
      40:	44 00       	.word	0x0044	; ????
      42:	34 00       	.word	0x0034	; ????
      44:	00 00       	nop
      46:	00 00       	nop
      48:	00 00       	nop
      4a:	00 00       	nop
      4c:	44 00       	.word	0x0044	; ????
      4e:	35 00       	.word	0x0035	; ????
      50:	04 00       	.word	0x0004	; ????
      52:	00 00       	nop
      54:	00 00       	nop
      56:	00 00       	nop
      58:	44 00       	.word	0x0044	; ????
      5a:	36 00       	.word	0x0036	; ????
      5c:	08 00       	.word	0x0008	; ????
      5e:	00 00       	nop
      60:	00 00       	nop
      62:	00 00       	nop
      64:	44 00       	.word	0x0044	; ????
      66:	37 00       	.word	0x0037	; ????
      68:	0c 00       	.word	0x000c	; ????
      6a:	00 00       	nop
      6c:	00 00       	nop
      6e:	00 00       	nop
      70:	44 00       	.word	0x0044	; ????
      72:	38 00       	.word	0x0038	; ????
      74:	10 00       	.word	0x0010	; ????
      76:	00 00       	nop
      78:	00 00       	nop
      7a:	00 00       	nop
      7c:	44 00       	.word	0x0044	; ????
      7e:	39 00       	.word	0x0039	; ????
      80:	14 00       	.word	0x0014	; ????
      82:	00 00       	nop
      84:	00 00       	nop
      86:	00 00       	nop
      88:	44 00       	.word	0x0044	; ????
      8a:	3a 00       	.word	0x003a	; ????
      8c:	18 00       	.word	0x0018	; ????
      8e:	00 00       	nop
      90:	00 00       	nop
      92:	00 00       	nop
      94:	44 00       	.word	0x0044	; ????
      96:	3b 00       	.word	0x003b	; ????
      98:	1c 00       	.word	0x001c	; ????
      9a:	00 00       	nop
      9c:	00 00       	nop
      9e:	00 00       	nop
      a0:	44 00       	.word	0x0044	; ????
      a2:	3c 00       	.word	0x003c	; ????
      a4:	20 00       	.word	0x0020	; ????
      a6:	00 00       	nop
      a8:	00 00       	nop
      aa:	00 00       	nop
      ac:	44 00       	.word	0x0044	; ????
      ae:	3d 00       	.word	0x003d	; ????
      b0:	24 00       	.word	0x0024	; ????
      b2:	00 00       	nop
      b4:	00 00       	nop
      b6:	00 00       	nop
      b8:	44 00       	.word	0x0044	; ????
      ba:	3e 00       	.word	0x003e	; ????
      bc:	28 00       	.word	0x0028	; ????
      be:	00 00       	nop
      c0:	00 00       	nop
      c2:	00 00       	nop
      c4:	44 00       	.word	0x0044	; ????
      c6:	3f 00       	.word	0x003f	; ????
      c8:	2c 00       	.word	0x002c	; ????
      ca:	00 00       	nop
      cc:	00 00       	nop
      ce:	00 00       	nop
      d0:	44 00       	.word	0x0044	; ????
      d2:	40 00       	.word	0x0040	; ????
      d4:	30 00       	.word	0x0030	; ????
      d6:	00 00       	nop
      d8:	00 00       	nop
      da:	00 00       	nop
      dc:	44 00       	.word	0x0044	; ????
      de:	41 00       	.word	0x0041	; ????
      e0:	34 00       	.word	0x0034	; ????
      e2:	00 00       	nop
      e4:	00 00       	nop
      e6:	00 00       	nop
      e8:	44 00       	.word	0x0044	; ????
      ea:	42 00       	.word	0x0042	; ????
      ec:	38 00       	.word	0x0038	; ????
      ee:	00 00       	nop
      f0:	00 00       	nop
      f2:	00 00       	nop
      f4:	44 00       	.word	0x0044	; ????
      f6:	43 00       	.word	0x0043	; ????
      f8:	3c 00       	.word	0x003c	; ????
      fa:	00 00       	nop
      fc:	00 00       	nop
      fe:	00 00       	nop
     100:	44 00       	.word	0x0044	; ????
     102:	44 00       	.word	0x0044	; ????
     104:	40 00       	.word	0x0040	; ????
     106:	00 00       	nop
     108:	00 00       	nop
     10a:	00 00       	nop
     10c:	44 00       	.word	0x0044	; ????
     10e:	45 00       	.word	0x0045	; ????
     110:	44 00       	.word	0x0044	; ????
     112:	00 00       	nop
     114:	00 00       	nop
     116:	00 00       	nop
     118:	44 00       	.word	0x0044	; ????
     11a:	46 00       	.word	0x0046	; ????
     11c:	48 00       	.word	0x0048	; ????
     11e:	00 00       	nop
     120:	00 00       	nop
     122:	00 00       	nop
     124:	44 00       	.word	0x0044	; ????
     126:	47 00       	.word	0x0047	; ????
     128:	4c 00       	.word	0x004c	; ????
     12a:	00 00       	nop
     12c:	00 00       	nop
     12e:	00 00       	nop
     130:	44 00       	.word	0x0044	; ????
     132:	48 00       	.word	0x0048	; ????
     134:	50 00       	.word	0x0050	; ????
     136:	00 00       	nop
     138:	00 00       	nop
     13a:	00 00       	nop
     13c:	44 00       	.word	0x0044	; ????
     13e:	49 00       	.word	0x0049	; ????
     140:	54 00       	.word	0x0054	; ????
     142:	00 00       	nop
     144:	00 00       	nop
     146:	00 00       	nop
     148:	44 00       	.word	0x0044	; ????
     14a:	4a 00       	.word	0x004a	; ????
     14c:	58 00       	.word	0x0058	; ????
     14e:	00 00       	nop
     150:	00 00       	nop
     152:	00 00       	nop
     154:	44 00       	.word	0x0044	; ????
     156:	4b 00       	.word	0x004b	; ????
     158:	5c 00       	.word	0x005c	; ????
     15a:	00 00       	nop
     15c:	00 00       	nop
     15e:	00 00       	nop
     160:	44 00       	.word	0x0044	; ????
     162:	4c 00       	.word	0x004c	; ????
     164:	60 00       	.word	0x0060	; ????
     166:	00 00       	nop
     168:	00 00       	nop
     16a:	00 00       	nop
     16c:	44 00       	.word	0x0044	; ????
     16e:	4d 00       	.word	0x004d	; ????
     170:	64 00       	.word	0x0064	; ????
     172:	00 00       	nop
     174:	00 00       	nop
     176:	00 00       	nop
     178:	44 00       	.word	0x0044	; ????
     17a:	4e 00       	.word	0x004e	; ????
     17c:	68 00       	.word	0x0068	; ????
     17e:	00 00       	nop
     180:	00 00       	nop
     182:	00 00       	nop
     184:	44 00       	.word	0x0044	; ????
     186:	4f 00       	.word	0x004f	; ????
     188:	6c 00       	.word	0x006c	; ????
     18a:	00 00       	nop
     18c:	00 00       	nop
     18e:	00 00       	nop
     190:	44 00       	.word	0x0044	; ????
     192:	50 00       	.word	0x0050	; ????
     194:	70 00       	.word	0x0070	; ????
     196:	00 00       	nop
     198:	00 00       	nop
     19a:	00 00       	nop
     19c:	44 00       	.word	0x0044	; ????
     19e:	51 00       	.word	0x0051	; ????
     1a0:	74 00       	.word	0x0074	; ????
     1a2:	00 00       	nop
     1a4:	00 00       	nop
     1a6:	00 00       	nop
     1a8:	44 00       	.word	0x0044	; ????
     1aa:	52 00       	.word	0x0052	; ????
     1ac:	78 00       	.word	0x0078	; ????
     1ae:	00 00       	nop
     1b0:	00 00       	nop
     1b2:	00 00       	nop
     1b4:	44 00       	.word	0x0044	; ????
     1b6:	53 00       	.word	0x0053	; ????
     1b8:	7c 00       	.word	0x007c	; ????
     1ba:	00 00       	nop
     1bc:	00 00       	nop
     1be:	00 00       	nop
     1c0:	44 00       	.word	0x0044	; ????
     1c2:	54 00       	.word	0x0054	; ????
     1c4:	80 00       	.word	0x0080	; ????
     1c6:	00 00       	nop
     1c8:	00 00       	nop
     1ca:	00 00       	nop
     1cc:	44 00       	.word	0x0044	; ????
     1ce:	55 00       	.word	0x0055	; ????
     1d0:	84 00       	.word	0x0084	; ????
     1d2:	00 00       	nop
     1d4:	00 00       	nop
     1d6:	00 00       	nop
     1d8:	44 00       	.word	0x0044	; ????
     1da:	56 00       	.word	0x0056	; ????
     1dc:	88 00       	.word	0x0088	; ????
     1de:	00 00       	nop
     1e0:	00 00       	nop
     1e2:	00 00       	nop
     1e4:	44 00       	.word	0x0044	; ????
     1e6:	57 00       	.word	0x0057	; ????
     1e8:	8c 00       	.word	0x008c	; ????
     1ea:	00 00       	nop
     1ec:	00 00       	nop
     1ee:	00 00       	nop
     1f0:	44 00       	.word	0x0044	; ????
     1f2:	58 00       	.word	0x0058	; ????
     1f4:	8c 00       	.word	0x008c	; ????
     1f6:	00 00       	nop
     1f8:	00 00       	nop
     1fa:	00 00       	nop
     1fc:	44 00       	.word	0x0044	; ????
     1fe:	59 00       	.word	0x0059	; ????
     200:	8c 00       	.word	0x008c	; ????
     202:	00 00       	nop
     204:	00 00       	nop
     206:	00 00       	nop
     208:	44 00       	.word	0x0044	; ????
     20a:	5a 00       	.word	0x005a	; ????
     20c:	8c 00       	.word	0x008c	; ????
     20e:	00 00       	nop
     210:	00 00       	nop
     212:	00 00       	nop
     214:	44 00       	.word	0x0044	; ????
     216:	5b 00       	.word	0x005b	; ????
     218:	8c 00       	.word	0x008c	; ????
     21a:	00 00       	nop
     21c:	00 00       	nop
     21e:	00 00       	nop
     220:	44 00       	.word	0x0044	; ????
     222:	5c 00       	.word	0x005c	; ????
     224:	8c 00       	.word	0x008c	; ????
     226:	00 00       	nop
     228:	00 00       	nop
     22a:	00 00       	nop
     22c:	44 00       	.word	0x0044	; ????
     22e:	5d 00       	.word	0x005d	; ????
     230:	8c 00       	.word	0x008c	; ????
     232:	00 00       	nop
     234:	00 00       	nop
     236:	00 00       	nop
     238:	44 00       	.word	0x0044	; ????
     23a:	5e 00       	.word	0x005e	; ????
     23c:	8c 00       	.word	0x008c	; ????
     23e:	00 00       	nop
     240:	00 00       	nop
     242:	00 00       	nop
     244:	44 00       	.word	0x0044	; ????
     246:	5f 00       	.word	0x005f	; ????
     248:	8c 00       	.word	0x008c	; ????
     24a:	00 00       	nop
     24c:	00 00       	nop
     24e:	00 00       	nop
     250:	44 00       	.word	0x0044	; ????
     252:	60 00       	.word	0x0060	; ????
     254:	8c 00       	.word	0x008c	; ????
     256:	00 00       	nop
     258:	00 00       	nop
     25a:	00 00       	nop
     25c:	44 00       	.word	0x0044	; ????
     25e:	61 00       	.word	0x0061	; ????
     260:	8c 00       	.word	0x008c	; ????
     262:	00 00       	nop
     264:	00 00       	nop
     266:	00 00       	nop
     268:	44 00       	.word	0x0044	; ????
     26a:	62 00       	.word	0x0062	; ????
     26c:	8c 00       	.word	0x008c	; ????
     26e:	00 00       	nop
     270:	00 00       	nop
     272:	00 00       	nop
     274:	44 00       	.word	0x0044	; ????
     276:	63 00       	.word	0x0063	; ????
     278:	8c 00       	.word	0x008c	; ????
     27a:	00 00       	nop
     27c:	00 00       	nop
     27e:	00 00       	nop
     280:	44 00       	.word	0x0044	; ????
     282:	64 00       	.word	0x0064	; ????
     284:	8c 00       	.word	0x008c	; ????
     286:	00 00       	nop
     288:	00 00       	nop
     28a:	00 00       	nop
     28c:	44 00       	.word	0x0044	; ????
     28e:	65 00       	.word	0x0065	; ????
     290:	8c 00       	.word	0x008c	; ????
     292:	00 00       	nop
     294:	00 00       	nop
     296:	00 00       	nop
     298:	44 00       	.word	0x0044	; ????
     29a:	66 00       	.word	0x0066	; ????
     29c:	8c 00       	.word	0x008c	; ????
     29e:	00 00       	nop
     2a0:	00 00       	nop
     2a2:	00 00       	nop
     2a4:	44 00       	.word	0x0044	; ????
     2a6:	67 00       	.word	0x0067	; ????
     2a8:	8c 00       	.word	0x008c	; ????
     2aa:	00 00       	nop
     2ac:	00 00       	nop
     2ae:	00 00       	nop
     2b0:	44 00       	.word	0x0044	; ????
     2b2:	68 00       	.word	0x0068	; ????
     2b4:	8c 00       	.word	0x008c	; ????
     2b6:	00 00       	nop
     2b8:	00 00       	nop
     2ba:	00 00       	nop
     2bc:	44 00       	.word	0x0044	; ????
     2be:	69 00       	.word	0x0069	; ????
     2c0:	8c 00       	.word	0x008c	; ????
     2c2:	00 00       	nop
     2c4:	00 00       	nop
     2c6:	00 00       	nop
     2c8:	44 00       	.word	0x0044	; ????
     2ca:	6a 00       	.word	0x006a	; ????
     2cc:	8c 00       	.word	0x008c	; ????
     2ce:	00 00       	nop
     2d0:	00 00       	nop
     2d2:	00 00       	nop
     2d4:	44 00       	.word	0x0044	; ????
     2d6:	6b 00       	.word	0x006b	; ????
     2d8:	8c 00       	.word	0x008c	; ????
     2da:	00 00       	nop
     2dc:	00 00       	nop
     2de:	00 00       	nop
     2e0:	44 00       	.word	0x0044	; ????
     2e2:	6c 00       	.word	0x006c	; ????
     2e4:	8c 00       	.word	0x008c	; ????
     2e6:	00 00       	nop
     2e8:	00 00       	nop
     2ea:	00 00       	nop
     2ec:	44 00       	.word	0x0044	; ????
     2ee:	6d 00       	.word	0x006d	; ????
     2f0:	8c 00       	.word	0x008c	; ????
     2f2:	00 00       	nop
     2f4:	00 00       	nop
     2f6:	00 00       	nop
     2f8:	44 00       	.word	0x0044	; ????
     2fa:	6e 00       	.word	0x006e	; ????
     2fc:	8c 00       	.word	0x008c	; ????
     2fe:	00 00       	nop
     300:	00 00       	nop
     302:	00 00       	nop
     304:	44 00       	.word	0x0044	; ????
     306:	6f 00       	.word	0x006f	; ????
     308:	8c 00       	.word	0x008c	; ????
     30a:	00 00       	nop
     30c:	00 00       	nop
     30e:	00 00       	nop
     310:	44 00       	.word	0x0044	; ????
     312:	70 00       	.word	0x0070	; ????
     314:	8c 00       	.word	0x008c	; ????
     316:	00 00       	nop
     318:	00 00       	nop
     31a:	00 00       	nop
     31c:	44 00       	.word	0x0044	; ????
     31e:	71 00       	.word	0x0071	; ????
     320:	8c 00       	.word	0x008c	; ????
     322:	00 00       	nop
     324:	00 00       	nop
     326:	00 00       	nop
     328:	44 00       	.word	0x0044	; ????
     32a:	72 00       	.word	0x0072	; ????
     32c:	8c 00       	.word	0x008c	; ????
     32e:	00 00       	nop
     330:	00 00       	nop
     332:	00 00       	nop
     334:	44 00       	.word	0x0044	; ????
     336:	73 00       	.word	0x0073	; ????
     338:	8c 00       	.word	0x008c	; ????
     33a:	00 00       	nop
     33c:	00 00       	nop
     33e:	00 00       	nop
     340:	44 00       	.word	0x0044	; ????
     342:	74 00       	.word	0x0074	; ????
     344:	8c 00       	.word	0x008c	; ????
     346:	00 00       	nop
     348:	00 00       	nop
     34a:	00 00       	nop
     34c:	44 00       	.word	0x0044	; ????
     34e:	75 00       	.word	0x0075	; ????
     350:	8c 00       	.word	0x008c	; ????
     352:	00 00       	nop
     354:	00 00       	nop
     356:	00 00       	nop
     358:	44 00       	.word	0x0044	; ????
     35a:	76 00       	.word	0x0076	; ????
     35c:	8c 00       	.word	0x008c	; ????
     35e:	00 00       	nop
     360:	00 00       	nop
     362:	00 00       	nop
     364:	44 00       	.word	0x0044	; ????
     366:	77 00       	.word	0x0077	; ????
     368:	8c 00       	.word	0x008c	; ????
     36a:	00 00       	nop
     36c:	00 00       	nop
     36e:	00 00       	nop
     370:	44 00       	.word	0x0044	; ????
     372:	78 00       	.word	0x0078	; ????
     374:	8c 00       	.word	0x008c	; ????
     376:	00 00       	nop
     378:	00 00       	nop
     37a:	00 00       	nop
     37c:	44 00       	.word	0x0044	; ????
     37e:	79 00       	.word	0x0079	; ????
     380:	8c 00       	.word	0x008c	; ????
     382:	00 00       	nop
     384:	00 00       	nop
     386:	00 00       	nop
     388:	44 00       	.word	0x0044	; ????
     38a:	7a 00       	.word	0x007a	; ????
     38c:	8c 00       	.word	0x008c	; ????
     38e:	00 00       	nop
     390:	00 00       	nop
     392:	00 00       	nop
     394:	44 00       	.word	0x0044	; ????
     396:	7b 00       	.word	0x007b	; ????
     398:	8c 00       	.word	0x008c	; ????
     39a:	00 00       	nop
     39c:	00 00       	nop
     39e:	00 00       	nop
     3a0:	44 00       	.word	0x0044	; ????
     3a2:	7c 00       	.word	0x007c	; ????
     3a4:	8c 00       	.word	0x008c	; ????
     3a6:	00 00       	nop
     3a8:	00 00       	nop
     3aa:	00 00       	nop
     3ac:	44 00       	.word	0x0044	; ????
     3ae:	7d 00       	.word	0x007d	; ????
     3b0:	8c 00       	.word	0x008c	; ????
     3b2:	00 00       	nop
     3b4:	00 00       	nop
     3b6:	00 00       	nop
     3b8:	44 00       	.word	0x0044	; ????
     3ba:	7e 00       	.word	0x007e	; ????
     3bc:	8c 00       	.word	0x008c	; ????
     3be:	00 00       	nop
     3c0:	00 00       	nop
     3c2:	00 00       	nop
     3c4:	44 00       	.word	0x0044	; ????
     3c6:	7f 00       	.word	0x007f	; ????
     3c8:	8c 00       	.word	0x008c	; ????
     3ca:	00 00       	nop
     3cc:	00 00       	nop
     3ce:	00 00       	nop
     3d0:	44 00       	.word	0x0044	; ????
     3d2:	80 00       	.word	0x0080	; ????
     3d4:	8c 00       	.word	0x008c	; ????
     3d6:	00 00       	nop
     3d8:	00 00       	nop
     3da:	00 00       	nop
     3dc:	44 00       	.word	0x0044	; ????
     3de:	81 00       	.word	0x0081	; ????
     3e0:	8c 00       	.word	0x008c	; ????
     3e2:	00 00       	nop
     3e4:	00 00       	nop
     3e6:	00 00       	nop
     3e8:	44 00       	.word	0x0044	; ????
     3ea:	82 00       	.word	0x0082	; ????
     3ec:	8c 00       	.word	0x008c	; ????
     3ee:	00 00       	nop
     3f0:	00 00       	nop
     3f2:	00 00       	nop
     3f4:	44 00       	.word	0x0044	; ????
     3f6:	83 00       	.word	0x0083	; ????
     3f8:	8c 00       	.word	0x008c	; ????
     3fa:	00 00       	nop
     3fc:	00 00       	nop
     3fe:	00 00       	nop
     400:	44 00       	.word	0x0044	; ????
     402:	84 00       	.word	0x0084	; ????
     404:	8c 00       	.word	0x008c	; ????
     406:	00 00       	nop
     408:	00 00       	nop
     40a:	00 00       	nop
     40c:	44 00       	.word	0x0044	; ????
     40e:	85 00       	.word	0x0085	; ????
     410:	8c 00       	.word	0x008c	; ????
     412:	00 00       	nop
     414:	00 00       	nop
     416:	00 00       	nop
     418:	44 00       	.word	0x0044	; ????
     41a:	86 00       	.word	0x0086	; ????
     41c:	8c 00       	.word	0x008c	; ????
     41e:	00 00       	nop
     420:	00 00       	nop
     422:	00 00       	nop
     424:	44 00       	.word	0x0044	; ????
     426:	87 00       	.word	0x0087	; ????
     428:	8c 00       	.word	0x008c	; ????
     42a:	00 00       	nop
     42c:	00 00       	nop
     42e:	00 00       	nop
     430:	44 00       	.word	0x0044	; ????
     432:	88 00       	.word	0x0088	; ????
     434:	8c 00       	.word	0x008c	; ????
     436:	00 00       	nop
     438:	00 00       	nop
     43a:	00 00       	nop
     43c:	44 00       	.word	0x0044	; ????
     43e:	89 00       	.word	0x0089	; ????
     440:	8c 00       	.word	0x008c	; ????
     442:	00 00       	nop
     444:	00 00       	nop
     446:	00 00       	nop
     448:	44 00       	.word	0x0044	; ????
     44a:	8a 00       	.word	0x008a	; ????
     44c:	8c 00       	.word	0x008c	; ????
     44e:	00 00       	nop
     450:	00 00       	nop
     452:	00 00       	nop
     454:	44 00       	.word	0x0044	; ????
     456:	8b 00       	.word	0x008b	; ????
     458:	8c 00       	.word	0x008c	; ????
     45a:	00 00       	nop
     45c:	00 00       	nop
     45e:	00 00       	nop
     460:	44 00       	.word	0x0044	; ????
     462:	8c 00       	.word	0x008c	; ????
     464:	8c 00       	.word	0x008c	; ????
     466:	00 00       	nop
     468:	00 00       	nop
     46a:	00 00       	nop
     46c:	44 00       	.word	0x0044	; ????
     46e:	8d 00       	.word	0x008d	; ????
     470:	8c 00       	.word	0x008c	; ????
     472:	00 00       	nop
     474:	00 00       	nop
     476:	00 00       	nop
     478:	44 00       	.word	0x0044	; ????
     47a:	8e 00       	.word	0x008e	; ????
     47c:	8c 00       	.word	0x008c	; ????
     47e:	00 00       	nop
     480:	00 00       	nop
     482:	00 00       	nop
     484:	44 00       	.word	0x0044	; ????
     486:	8f 00       	.word	0x008f	; ????
     488:	8c 00       	.word	0x008c	; ????
     48a:	00 00       	nop
     48c:	00 00       	nop
     48e:	00 00       	nop
     490:	44 00       	.word	0x0044	; ????
     492:	90 00       	.word	0x0090	; ????
     494:	8c 00       	.word	0x008c	; ????
     496:	00 00       	nop
     498:	00 00       	nop
     49a:	00 00       	nop
     49c:	44 00       	.word	0x0044	; ????
     49e:	91 00       	.word	0x0091	; ????
     4a0:	8c 00       	.word	0x008c	; ????
     4a2:	00 00       	nop
     4a4:	00 00       	nop
     4a6:	00 00       	nop
     4a8:	44 00       	.word	0x0044	; ????
     4aa:	92 00       	.word	0x0092	; ????
     4ac:	8c 00       	.word	0x008c	; ????
     4ae:	00 00       	nop
     4b0:	00 00       	nop
     4b2:	00 00       	nop
     4b4:	44 00       	.word	0x0044	; ????
     4b6:	93 00       	.word	0x0093	; ????
     4b8:	8c 00       	.word	0x008c	; ????
     4ba:	00 00       	nop
     4bc:	00 00       	nop
     4be:	00 00       	nop
     4c0:	44 00       	.word	0x0044	; ????
     4c2:	94 00       	.word	0x0094	; ????
     4c4:	8c 00       	.word	0x008c	; ????
     4c6:	00 00       	nop
     4c8:	00 00       	nop
     4ca:	00 00       	nop
     4cc:	44 00       	.word	0x0044	; ????
     4ce:	95 00       	.word	0x0095	; ????
     4d0:	8c 00       	.word	0x008c	; ????
     4d2:	00 00       	nop
     4d4:	00 00       	nop
     4d6:	00 00       	nop
     4d8:	44 00       	.word	0x0044	; ????
     4da:	96 00       	.word	0x0096	; ????
     4dc:	8c 00       	.word	0x008c	; ????
     4de:	00 00       	nop
     4e0:	00 00       	nop
     4e2:	00 00       	nop
     4e4:	44 00       	.word	0x0044	; ????
     4e6:	97 00       	.word	0x0097	; ????
     4e8:	8c 00       	.word	0x008c	; ????
     4ea:	00 00       	nop
     4ec:	00 00       	nop
     4ee:	00 00       	nop
     4f0:	44 00       	.word	0x0044	; ????
     4f2:	98 00       	.word	0x0098	; ????
     4f4:	8c 00       	.word	0x008c	; ????
     4f6:	00 00       	nop
     4f8:	00 00       	nop
     4fa:	00 00       	nop
     4fc:	44 00       	.word	0x0044	; ????
     4fe:	99 00       	.word	0x0099	; ????
     500:	8c 00       	.word	0x008c	; ????
     502:	00 00       	nop
     504:	00 00       	nop
     506:	00 00       	nop
     508:	44 00       	.word	0x0044	; ????
     50a:	9a 00       	.word	0x009a	; ????
     50c:	8c 00       	.word	0x008c	; ????
     50e:	00 00       	nop
     510:	00 00       	nop
     512:	00 00       	nop
     514:	44 00       	.word	0x0044	; ????
     516:	9b 00       	.word	0x009b	; ????
     518:	8c 00       	.word	0x008c	; ????
     51a:	00 00       	nop
     51c:	00 00       	nop
     51e:	00 00       	nop
     520:	44 00       	.word	0x0044	; ????
     522:	9c 00       	.word	0x009c	; ????
     524:	8c 00       	.word	0x008c	; ????
     526:	00 00       	nop
     528:	00 00       	nop
     52a:	00 00       	nop
     52c:	44 00       	.word	0x0044	; ????
     52e:	9d 00       	.word	0x009d	; ????
     530:	8c 00       	.word	0x008c	; ????
     532:	00 00       	nop
     534:	00 00       	nop
     536:	00 00       	nop
     538:	44 00       	.word	0x0044	; ????
     53a:	9e 00       	.word	0x009e	; ????
     53c:	8c 00       	.word	0x008c	; ????
     53e:	00 00       	nop
     540:	00 00       	nop
     542:	00 00       	nop
     544:	44 00       	.word	0x0044	; ????
     546:	9f 00       	.word	0x009f	; ????
     548:	8c 00       	.word	0x008c	; ????
     54a:	00 00       	nop
     54c:	00 00       	nop
     54e:	00 00       	nop
     550:	44 00       	.word	0x0044	; ????
     552:	a0 00       	.word	0x00a0	; ????
     554:	8c 00       	.word	0x008c	; ????
     556:	00 00       	nop
     558:	00 00       	nop
     55a:	00 00       	nop
     55c:	44 00       	.word	0x0044	; ????
     55e:	a1 00       	.word	0x00a1	; ????
     560:	8c 00       	.word	0x008c	; ????
     562:	00 00       	nop
     564:	00 00       	nop
     566:	00 00       	nop
     568:	44 00       	.word	0x0044	; ????
     56a:	a2 00       	.word	0x00a2	; ????
     56c:	8c 00       	.word	0x008c	; ????
     56e:	00 00       	nop
     570:	00 00       	nop
     572:	00 00       	nop
     574:	44 00       	.word	0x0044	; ????
     576:	a3 00       	.word	0x00a3	; ????
     578:	8c 00       	.word	0x008c	; ????
     57a:	00 00       	nop
     57c:	00 00       	nop
     57e:	00 00       	nop
     580:	44 00       	.word	0x0044	; ????
     582:	a4 00       	.word	0x00a4	; ????
     584:	8c 00       	.word	0x008c	; ????
     586:	00 00       	nop
     588:	00 00       	nop
     58a:	00 00       	nop
     58c:	44 00       	.word	0x0044	; ????
     58e:	a5 00       	.word	0x00a5	; ????
     590:	8c 00       	.word	0x008c	; ????
     592:	00 00       	nop
     594:	00 00       	nop
     596:	00 00       	nop
     598:	44 00       	.word	0x0044	; ????
     59a:	a6 00       	.word	0x00a6	; ????
     59c:	8c 00       	.word	0x008c	; ????
     59e:	00 00       	nop
     5a0:	00 00       	nop
     5a2:	00 00       	nop
     5a4:	44 00       	.word	0x0044	; ????
     5a6:	a7 00       	.word	0x00a7	; ????
     5a8:	8c 00       	.word	0x008c	; ????
     5aa:	00 00       	nop
     5ac:	00 00       	nop
     5ae:	00 00       	nop
     5b0:	44 00       	.word	0x0044	; ????
     5b2:	a8 00       	.word	0x00a8	; ????
     5b4:	8c 00       	.word	0x008c	; ????
     5b6:	00 00       	nop
     5b8:	00 00       	nop
     5ba:	00 00       	nop
     5bc:	44 00       	.word	0x0044	; ????
     5be:	a9 00       	.word	0x00a9	; ????
     5c0:	8c 00       	.word	0x008c	; ????
     5c2:	00 00       	nop
     5c4:	00 00       	nop
     5c6:	00 00       	nop
     5c8:	44 00       	.word	0x0044	; ????
     5ca:	aa 00       	.word	0x00aa	; ????
     5cc:	8c 00       	.word	0x008c	; ????
     5ce:	00 00       	nop
     5d0:	00 00       	nop
     5d2:	00 00       	nop
     5d4:	44 00       	.word	0x0044	; ????
     5d6:	ab 00       	.word	0x00ab	; ????
     5d8:	8c 00       	.word	0x008c	; ????
     5da:	00 00       	nop
     5dc:	00 00       	nop
     5de:	00 00       	nop
     5e0:	44 00       	.word	0x0044	; ????
     5e2:	ac 00       	.word	0x00ac	; ????
     5e4:	8c 00       	.word	0x008c	; ????
     5e6:	00 00       	nop
     5e8:	00 00       	nop
     5ea:	00 00       	nop
     5ec:	44 00       	.word	0x0044	; ????
     5ee:	ad 00       	.word	0x00ad	; ????
     5f0:	8c 00       	.word	0x008c	; ????
     5f2:	00 00       	nop
     5f4:	00 00       	nop
     5f6:	00 00       	nop
     5f8:	44 00       	.word	0x0044	; ????
     5fa:	ae 00       	.word	0x00ae	; ????
     5fc:	8c 00       	.word	0x008c	; ????
     5fe:	00 00       	nop
     600:	00 00       	nop
     602:	00 00       	nop
     604:	44 00       	.word	0x0044	; ????
     606:	af 00       	.word	0x00af	; ????
     608:	8c 00       	.word	0x008c	; ????
     60a:	00 00       	nop
     60c:	00 00       	nop
     60e:	00 00       	nop
     610:	44 00       	.word	0x0044	; ????
     612:	b0 00       	.word	0x00b0	; ????
     614:	8c 00       	.word	0x008c	; ????
     616:	00 00       	nop
     618:	00 00       	nop
     61a:	00 00       	nop
     61c:	44 00       	.word	0x0044	; ????
     61e:	b1 00       	.word	0x00b1	; ????
     620:	8c 00       	.word	0x008c	; ????
     622:	00 00       	nop
     624:	00 00       	nop
     626:	00 00       	nop
     628:	24 00       	.word	0x0024	; ????
     62a:	00 00       	nop
     62c:	8c 00       	.word	0x008c	; ????
     62e:	00 00       	nop
     630:	41 00       	.word	0x0041	; ????
     632:	00 00       	nop
     634:	24 00       	.word	0x0024	; ????
     636:	be 00       	.word	0x00be	; ????
     638:	ca 00       	.word	0x00ca	; ????
     63a:	00 00       	nop
     63c:	00 00       	nop
     63e:	00 00       	nop
     640:	44 00       	.word	0x0044	; ????
     642:	c1 00       	.word	0x00c1	; ????
     644:	00 00       	nop
     646:	00 00       	nop
     648:	00 00       	nop
     64a:	00 00       	nop
     64c:	24 00       	.word	0x0024	; ????
     64e:	00 00       	nop
     650:	04 00       	.word	0x0004	; ????
     652:	00 00       	nop
     654:	00 00       	nop
     656:	00 00       	nop
     658:	44 00       	.word	0x0044	; ????
     65a:	d6 00       	.word	0x00d6	; ????
     65c:	8c 00       	.word	0x008c	; ????
     65e:	00 00       	nop
     660:	00 00       	nop
     662:	00 00       	nop
     664:	44 00       	.word	0x0044	; ????
     666:	d7 00       	.word	0x00d7	; ????
     668:	8e 00       	.word	0x008e	; ????
     66a:	00 00       	nop
     66c:	00 00       	nop
     66e:	00 00       	nop
     670:	44 00       	.word	0x0044	; ????
     672:	d8 00       	.word	0x00d8	; ????
     674:	90 00       	.word	0x0090	; ????
     676:	00 00       	nop
     678:	00 00       	nop
     67a:	00 00       	nop
     67c:	44 00       	.word	0x0044	; ????
     67e:	da 00       	.word	0x00da	; ????
     680:	92 00       	.word	0x0092	; ????
     682:	00 00       	nop
     684:	00 00       	nop
     686:	00 00       	nop
     688:	44 00       	.word	0x0044	; ????
     68a:	db 00       	.word	0x00db	; ????
     68c:	94 00       	.word	0x0094	; ????
     68e:	00 00       	nop
     690:	00 00       	nop
     692:	00 00       	nop
     694:	44 00       	.word	0x0044	; ????
     696:	dd 00       	.word	0x00dd	; ????
     698:	96 00       	.word	0x0096	; ????
     69a:	00 00       	nop
     69c:	00 00       	nop
     69e:	00 00       	nop
     6a0:	44 00       	.word	0x0044	; ????
     6a2:	f2 00       	.word	0x00f2	; ????
     6a4:	98 00       	.word	0x0098	; ????
     6a6:	00 00       	nop
     6a8:	00 00       	nop
     6aa:	00 00       	nop
     6ac:	44 00       	.word	0x0044	; ????
     6ae:	f3 00       	.word	0x00f3	; ????
     6b0:	9a 00       	.word	0x009a	; ????
     6b2:	00 00       	nop
     6b4:	00 00       	nop
     6b6:	00 00       	nop
     6b8:	44 00       	.word	0x0044	; ????
     6ba:	f4 00       	.word	0x00f4	; ????
     6bc:	9c 00       	.word	0x009c	; ????
     6be:	00 00       	nop
     6c0:	00 00       	nop
     6c2:	00 00       	nop
     6c4:	44 00       	.word	0x0044	; ????
     6c6:	f5 00       	.word	0x00f5	; ????
     6c8:	9e 00       	.word	0x009e	; ????
     6ca:	00 00       	nop
     6cc:	00 00       	nop
     6ce:	00 00       	nop
     6d0:	44 00       	.word	0x0044	; ????
     6d2:	f6 00       	.word	0x00f6	; ????
     6d4:	a0 00       	.word	0x00a0	; ????
     6d6:	00 00       	nop
     6d8:	00 00       	nop
     6da:	00 00       	nop
     6dc:	44 00       	.word	0x0044	; ????
     6de:	fc 00       	.word	0x00fc	; ????
     6e0:	a2 00       	.word	0x00a2	; ????
     6e2:	00 00       	nop
     6e4:	00 00       	nop
     6e6:	00 00       	nop
     6e8:	44 00       	.word	0x0044	; ????
     6ea:	02 01       	movw	r0, r4
     6ec:	a4 00       	.word	0x00a4	; ????
     6ee:	00 00       	nop
     6f0:	00 00       	nop
     6f2:	00 00       	nop
     6f4:	44 00       	.word	0x0044	; ????
     6f6:	03 01       	movw	r0, r6
     6f8:	a6 00       	.word	0x00a6	; ????
     6fa:	00 00       	nop
     6fc:	00 00       	nop
     6fe:	00 00       	nop
     700:	44 00       	.word	0x0044	; ????
     702:	06 01       	movw	r0, r12
     704:	a8 00       	.word	0x00a8	; ????
     706:	00 00       	nop
     708:	00 00       	nop
     70a:	00 00       	nop
     70c:	44 00       	.word	0x0044	; ????
     70e:	0a 01       	movw	r0, r20
     710:	aa 00       	.word	0x00aa	; ????
     712:	00 00       	nop
     714:	00 00       	nop
     716:	00 00       	nop
     718:	44 00       	.word	0x0044	; ????
     71a:	10 01       	movw	r2, r0
     71c:	ac 00       	.word	0x00ac	; ????
     71e:	00 00       	nop
     720:	00 00       	nop
     722:	00 00       	nop
     724:	44 00       	.word	0x0044	; ????
     726:	11 01       	movw	r2, r2
     728:	ae 00       	.word	0x00ae	; ????
     72a:	00 00       	nop
     72c:	00 00       	nop
     72e:	00 00       	nop
     730:	44 00       	.word	0x0044	; ????
     732:	12 01       	movw	r2, r4
     734:	b0 00       	.word	0x00b0	; ????
     736:	00 00       	nop
     738:	00 00       	nop
     73a:	00 00       	nop
     73c:	44 00       	.word	0x0044	; ????
     73e:	20 01       	movw	r4, r0
     740:	c2 00       	.word	0x00c2	; ????
     742:	00 00       	nop
     744:	00 00       	nop
     746:	00 00       	nop
     748:	44 00       	.word	0x0044	; ????
     74a:	21 01       	movw	r4, r2
     74c:	c6 00       	.word	0x00c6	; ????
     74e:	00 00       	nop
     750:	54 00       	.word	0x0054	; ????
     752:	00 00       	nop
     754:	64 00       	.word	0x0064	; ????
     756:	02 00       	.word	0x0002	; ????
     758:	da 1f       	adc	r29, r26
     75a:	00 00       	nop
     75c:	80 00       	.word	0x0080	; ????
     75e:	00 00       	nop
     760:	64 00       	.word	0x0064	; ????
     762:	02 00       	.word	0x0002	; ????
     764:	da 1f       	adc	r29, r26
     766:	00 00       	nop
     768:	9e 00       	.word	0x009e	; ????
     76a:	00 00       	nop
     76c:	3c 00       	.word	0x003c	; ????
     76e:	00 00       	nop
     770:	00 00       	nop
     772:	00 00       	nop
     774:	ad 00       	.word	0x00ad	; ????
     776:	00 00       	nop
     778:	80 00       	.word	0x0080	; ????
     77a:	01 00       	.word	0x0001	; ????
     77c:	00 00       	nop
     77e:	00 00       	nop
     780:	cd 00       	.word	0x00cd	; ????
     782:	00 00       	nop
     784:	80 00       	.word	0x0080	; ????
     786:	01 00       	.word	0x0001	; ????
     788:	00 00       	nop
     78a:	00 00       	nop
     78c:	e7 00       	.word	0x00e7	; ????
     78e:	00 00       	nop
     790:	80 00       	.word	0x0080	; ????
     792:	01 00       	.word	0x0001	; ????
     794:	00 00       	nop
     796:	00 00       	nop
     798:	1e 01       	movw	r2, r28
     79a:	00 00       	nop
     79c:	80 00       	.word	0x0080	; ????
     79e:	01 00       	.word	0x0001	; ????
     7a0:	00 00       	nop
     7a2:	00 00       	nop
     7a4:	44 01       	movw	r8, r8
     7a6:	00 00       	nop
     7a8:	80 00       	.word	0x0080	; ????
     7aa:	01 00       	.word	0x0001	; ????
     7ac:	00 00       	nop
     7ae:	00 00       	nop
     7b0:	79 01       	movw	r14, r18
     7b2:	00 00       	nop
     7b4:	80 00       	.word	0x0080	; ????
     7b6:	01 00       	.word	0x0001	; ????
     7b8:	00 00       	nop
     7ba:	00 00       	nop
     7bc:	ca 01       	movw	r24, r20
     7be:	00 00       	nop
     7c0:	80 00       	.word	0x0080	; ????
     7c2:	01 00       	.word	0x0001	; ????
     7c4:	00 00       	nop
     7c6:	00 00       	nop
     7c8:	0f 02       	muls	r16, r31
     7ca:	00 00       	nop
     7cc:	80 00       	.word	0x0080	; ????
     7ce:	01 00       	.word	0x0001	; ????
     7d0:	00 00       	nop
     7d2:	00 00       	nop
     7d4:	35 02       	muls	r19, r21
     7d6:	00 00       	nop
     7d8:	80 00       	.word	0x0080	; ????
     7da:	01 00       	.word	0x0001	; ????
     7dc:	00 00       	nop
     7de:	00 00       	nop
     7e0:	61 02       	muls	r22, r17
     7e2:	00 00       	nop
     7e4:	80 00       	.word	0x0080	; ????
     7e6:	01 00       	.word	0x0001	; ????
     7e8:	00 00       	nop
     7ea:	00 00       	nop
     7ec:	8b 02       	muls	r24, r27
     7ee:	00 00       	nop
     7f0:	80 00       	.word	0x0080	; ????
     7f2:	01 00       	.word	0x0001	; ????
     7f4:	00 00       	nop
     7f6:	00 00       	nop
     7f8:	b4 02       	muls	r27, r20
     7fa:	00 00       	nop
     7fc:	80 00       	.word	0x0080	; ????
     7fe:	01 00       	.word	0x0001	; ????
     800:	00 00       	nop
     802:	00 00       	nop
     804:	ce 02       	muls	r28, r30
     806:	00 00       	nop
     808:	80 00       	.word	0x0080	; ????
     80a:	01 00       	.word	0x0001	; ????
     80c:	00 00       	nop
     80e:	00 00       	nop
     810:	e9 02       	muls	r30, r25
     812:	00 00       	nop
     814:	80 00       	.word	0x0080	; ????
     816:	01 00       	.word	0x0001	; ????
     818:	00 00       	nop
     81a:	00 00       	nop
     81c:	09 03       	fmul	r16, r17
     81e:	00 00       	nop
     820:	80 00       	.word	0x0080	; ????
     822:	01 00       	.word	0x0001	; ????
     824:	00 00       	nop
     826:	00 00       	nop
     828:	1d 03       	fmul	r17, r21
     82a:	00 00       	nop
     82c:	82 00       	.word	0x0082	; ????
     82e:	00 00       	nop
     830:	3e 24       	eor	r3, r14
     832:	00 00       	nop
     834:	37 03       	mulsu	r19, r23
     836:	00 00       	nop
     838:	82 00       	.word	0x0082	; ????
     83a:	00 00       	nop
     83c:	08 0a       	sbc	r0, r24
     83e:	00 00       	nop
     840:	5f 03       	fmul	r21, r23
     842:	00 00       	nop
     844:	80 00       	.word	0x0080	; ????
     846:	d6 00       	.word	0x00d6	; ????
     848:	00 00       	nop
     84a:	00 00       	nop
     84c:	73 03       	mulsu	r23, r19
     84e:	00 00       	nop
     850:	80 00       	.word	0x0080	; ????
     852:	46 01       	movw	r8, r12
     854:	00 00       	nop
     856:	00 00       	nop
     858:	00 00       	nop
     85a:	00 00       	nop
     85c:	a2 00       	.word	0x00a2	; ????
     85e:	00 00       	nop
     860:	00 00       	nop
     862:	00 00       	nop
     864:	88 03       	fmulsu	r16, r16
     866:	00 00       	nop
     868:	80 00       	.word	0x0080	; ????
     86a:	47 00       	.word	0x0047	; ????
     86c:	00 00       	nop
     86e:	00 00       	nop
     870:	bf 03       	fmulsu	r19, r23
     872:	00 00       	nop
     874:	80 00       	.word	0x0080	; ????
     876:	4d 00       	.word	0x004d	; ????
     878:	00 00       	nop
     87a:	00 00       	nop
     87c:	f7 03       	fmuls	r23, r23
     87e:	00 00       	nop
     880:	80 00       	.word	0x0080	; ????
     882:	50 00       	.word	0x0050	; ????
     884:	00 00       	nop
     886:	00 00       	nop
     888:	00 00       	nop
     88a:	00 00       	nop
     88c:	a2 00       	.word	0x00a2	; ????
     88e:	00 00       	nop
     890:	00 00       	nop
     892:	00 00       	nop
     894:	20 04       	cpc	r2, r0
     896:	00 00       	nop
     898:	82 00       	.word	0x0082	; ????
     89a:	00 00       	nop
     89c:	bb 0d       	add	r27, r11
     89e:	00 00       	nop
     8a0:	46 04       	cpc	r4, r6
     8a2:	00 00       	nop
     8a4:	82 00       	.word	0x0082	; ????
     8a6:	00 00       	nop
     8a8:	25 0f       	add	r18, r21
     8aa:	00 00       	nop
     8ac:	62 04       	cpc	r6, r2
     8ae:	00 00       	nop
     8b0:	82 00       	.word	0x0082	; ????
     8b2:	00 00       	nop
     8b4:	33 b8       	out	0x03, r3	; 3
     8b6:	00 00       	nop
     8b8:	7c 04       	cpc	r7, r12
     8ba:	00 00       	nop
     8bc:	80 00       	.word	0x0080	; ????
     8be:	79 00       	.word	0x0079	; ????
     8c0:	00 00       	nop
     8c2:	00 00       	nop
     8c4:	91 04       	cpc	r9, r1
     8c6:	00 00       	nop
     8c8:	80 00       	.word	0x0080	; ????
     8ca:	7a 00       	.word	0x007a	; ????
     8cc:	00 00       	nop
     8ce:	00 00       	nop
     8d0:	a7 04       	cpc	r10, r7
     8d2:	00 00       	nop
     8d4:	80 00       	.word	0x0080	; ????
     8d6:	7b 00       	.word	0x007b	; ????
     8d8:	00 00       	nop
     8da:	00 00       	nop
     8dc:	bc 04       	cpc	r11, r12
     8de:	00 00       	nop
     8e0:	80 00       	.word	0x0080	; ????
     8e2:	7c 00       	.word	0x007c	; ????
     8e4:	00 00       	nop
     8e6:	00 00       	nop
     8e8:	d2 04       	cpc	r13, r2
     8ea:	00 00       	nop
     8ec:	80 00       	.word	0x0080	; ????
     8ee:	7d 00       	.word	0x007d	; ????
     8f0:	00 00       	nop
     8f2:	00 00       	nop
     8f4:	e7 04       	cpc	r14, r7
     8f6:	00 00       	nop
     8f8:	80 00       	.word	0x0080	; ????
     8fa:	7e 00       	.word	0x007e	; ????
     8fc:	00 00       	nop
     8fe:	00 00       	nop
     900:	fd 04       	cpc	r15, r13
     902:	00 00       	nop
     904:	80 00       	.word	0x0080	; ????
     906:	80 00       	.word	0x0080	; ????
     908:	00 00       	nop
     90a:	00 00       	nop
     90c:	12 05       	cpc	r17, r2
     90e:	00 00       	nop
     910:	80 00       	.word	0x0080	; ????
     912:	81 00       	.word	0x0081	; ????
     914:	00 00       	nop
     916:	00 00       	nop
     918:	28 05       	cpc	r18, r8
     91a:	00 00       	nop
     91c:	80 00       	.word	0x0080	; ????
     91e:	8e 00       	.word	0x008e	; ????
     920:	00 00       	nop
     922:	00 00       	nop
     924:	3e 05       	cpc	r19, r14
     926:	00 00       	nop
     928:	80 00       	.word	0x0080	; ????
     92a:	93 00       	.word	0x0093	; ????
     92c:	00 00       	nop
     92e:	00 00       	nop
     930:	56 05       	cpc	r21, r6
     932:	00 00       	nop
     934:	80 00       	.word	0x0080	; ????
     936:	9f 00       	.word	0x009f	; ????
     938:	00 00       	nop
     93a:	00 00       	nop
     93c:	71 05       	cpc	r23, r1
     93e:	00 00       	nop
     940:	80 00       	.word	0x0080	; ????
     942:	a4 00       	.word	0x00a4	; ????
     944:	00 00       	nop
     946:	00 00       	nop
     948:	8d 05       	cpc	r24, r13
     94a:	00 00       	nop
     94c:	80 00       	.word	0x0080	; ????
     94e:	a9 00       	.word	0x00a9	; ????
     950:	00 00       	nop
     952:	00 00       	nop
     954:	a9 05       	cpc	r26, r9
     956:	00 00       	nop
     958:	80 00       	.word	0x0080	; ????
     95a:	ae 00       	.word	0x00ae	; ????
     95c:	00 00       	nop
     95e:	00 00       	nop
     960:	c6 05       	cpc	r28, r6
     962:	00 00       	nop
     964:	80 00       	.word	0x0080	; ????
     966:	b3 00       	.word	0x00b3	; ????
     968:	00 00       	nop
     96a:	00 00       	nop
     96c:	e2 05       	cpc	r30, r2
     96e:	00 00       	nop
     970:	80 00       	.word	0x0080	; ????
     972:	b8 00       	.word	0x00b8	; ????
     974:	00 00       	nop
     976:	00 00       	nop
     978:	ff 05       	cpc	r31, r15
     97a:	00 00       	nop
     97c:	80 00       	.word	0x0080	; ????
     97e:	c0 00       	.word	0x00c0	; ????
     980:	00 00       	nop
     982:	00 00       	nop
     984:	1b 06       	cpc	r1, r27
     986:	00 00       	nop
     988:	80 00       	.word	0x0080	; ????
     98a:	c7 00       	.word	0x00c7	; ????
     98c:	00 00       	nop
     98e:	00 00       	nop
     990:	38 06       	cpc	r3, r24
     992:	00 00       	nop
     994:	80 00       	.word	0x0080	; ????
     996:	d5 00       	.word	0x00d5	; ????
     998:	00 00       	nop
     99a:	00 00       	nop
     99c:	52 06       	cpc	r5, r18
     99e:	00 00       	nop
     9a0:	80 00       	.word	0x0080	; ????
     9a2:	da 00       	.word	0x00da	; ????
     9a4:	00 00       	nop
     9a6:	00 00       	nop
     9a8:	6d 06       	cpc	r6, r29
     9aa:	00 00       	nop
     9ac:	80 00       	.word	0x0080	; ????
     9ae:	df 00       	.word	0x00df	; ????
     9b0:	00 00       	nop
     9b2:	00 00       	nop
     9b4:	88 06       	cpc	r8, r24
     9b6:	00 00       	nop
     9b8:	80 00       	.word	0x0080	; ????
     9ba:	e4 00       	.word	0x00e4	; ????
     9bc:	00 00       	nop
     9be:	00 00       	nop
     9c0:	a4 06       	cpc	r10, r20
     9c2:	00 00       	nop
     9c4:	80 00       	.word	0x0080	; ????
     9c6:	e9 00       	.word	0x00e9	; ????
     9c8:	00 00       	nop
     9ca:	00 00       	nop
     9cc:	bf 06       	cpc	r11, r31
     9ce:	00 00       	nop
     9d0:	80 00       	.word	0x0080	; ????
     9d2:	ee 00       	.word	0x00ee	; ????
     9d4:	00 00       	nop
     9d6:	00 00       	nop
     9d8:	db 06       	cpc	r13, r27
     9da:	00 00       	nop
     9dc:	80 00       	.word	0x0080	; ????
     9de:	f6 00       	.word	0x00f6	; ????
     9e0:	00 00       	nop
     9e2:	00 00       	nop
     9e4:	f6 06       	cpc	r15, r22
     9e6:	00 00       	nop
     9e8:	80 00       	.word	0x0080	; ????
     9ea:	fd 00       	.word	0x00fd	; ????
     9ec:	00 00       	nop
     9ee:	00 00       	nop
     9f0:	12 07       	cpc	r17, r18
     9f2:	00 00       	nop
     9f4:	80 00       	.word	0x0080	; ????
     9f6:	11 01       	movw	r2, r2
     9f8:	00 00       	nop
     9fa:	00 00       	nop
     9fc:	29 07       	cpc	r18, r25
     9fe:	00 00       	nop
     a00:	80 00       	.word	0x0080	; ????
     a02:	16 01       	movw	r2, r12
     a04:	00 00       	nop
     a06:	00 00       	nop
     a08:	00 00       	nop
     a0a:	00 00       	nop
     a0c:	a2 00       	.word	0x00a2	; ????
     a0e:	00 00       	nop
     a10:	00 00       	nop
     a12:	00 00       	nop
     a14:	41 07       	cpc	r20, r17
     a16:	00 00       	nop
     a18:	80 00       	.word	0x0080	; ????
     a1a:	4d 00       	.word	0x004d	; ????
     a1c:	00 00       	nop
     a1e:	00 00       	nop
     a20:	5b 07       	cpc	r21, r27
     a22:	00 00       	nop
     a24:	80 00       	.word	0x0080	; ????
     a26:	51 00       	.word	0x0051	; ????
     a28:	00 00       	nop
     a2a:	00 00       	nop
     a2c:	00 00       	nop
     a2e:	00 00       	nop
     a30:	a2 00       	.word	0x00a2	; ????
     a32:	00 00       	nop
     a34:	00 00       	nop
     a36:	00 00       	nop
     a38:	76 07       	cpc	r23, r22
     a3a:	00 00       	nop
     a3c:	80 00       	.word	0x0080	; ????
     a3e:	00 00       	nop
     a40:	00 00       	nop
     a42:	00 00       	nop
     a44:	00 00       	nop
     a46:	00 00       	nop
     a48:	a2 00       	.word	0x00a2	; ????
     a4a:	00 00       	nop
     a4c:	00 00       	nop
     a4e:	00 00       	nop
     a50:	b0 07       	cpc	r27, r16
     a52:	00 00       	nop
     a54:	24 00       	.word	0x0024	; ????
     a56:	44 00       	.word	0x0044	; ????
     a58:	28 20       	and	r2, r8
     a5a:	00 00       	nop
     a5c:	c7 07       	cpc	r28, r23
     a5e:	00 00       	nop
     a60:	40 00       	.word	0x0040	; ????
     a62:	43 00       	.word	0x0043	; ????
     a64:	16 00       	.word	0x0016	; ????
     a66:	00 00       	nop
     a68:	00 00       	nop
     a6a:	00 00       	nop
     a6c:	2e 00       	.word	0x002e	; ????
     a6e:	00 00       	nop
     a70:	28 20       	and	r2, r8
     a72:	00 00       	nop
     a74:	00 00       	nop
     a76:	00 00       	nop
     a78:	44 00       	.word	0x0044	; ????
     a7a:	4f 00       	.word	0x004f	; ????
     a7c:	00 00       	nop
     a7e:	00 00       	nop
     a80:	00 00       	nop
     a82:	00 00       	nop
     a84:	44 00       	.word	0x0044	; ????
     a86:	4f 00       	.word	0x004f	; ????
     a88:	06 00       	.word	0x0006	; ????
     a8a:	00 00       	nop
     a8c:	00 00       	nop
     a8e:	00 00       	nop
     a90:	44 00       	.word	0x0044	; ????
     a92:	59 00       	.word	0x0059	; ????
     a94:	10 00       	.word	0x0010	; ????
     a96:	00 00       	nop
     a98:	00 00       	nop
     a9a:	00 00       	nop
     a9c:	44 00       	.word	0x0044	; ????
     a9e:	5c 00       	.word	0x005c	; ????
     aa0:	24 00       	.word	0x0024	; ????
     aa2:	00 00       	nop
     aa4:	00 00       	nop
     aa6:	00 00       	nop
     aa8:	44 00       	.word	0x0044	; ????
     aaa:	61 00       	.word	0x0061	; ????
     aac:	32 00       	.word	0x0032	; ????
     aae:	00 00       	nop
     ab0:	00 00       	nop
     ab2:	00 00       	nop
     ab4:	44 00       	.word	0x0044	; ????
     ab6:	62 00       	.word	0x0062	; ????
     ab8:	36 00       	.word	0x0036	; ????
     aba:	00 00       	nop
     abc:	00 00       	nop
     abe:	00 00       	nop
     ac0:	44 00       	.word	0x0044	; ????
     ac2:	64 00       	.word	0x0064	; ????
     ac4:	3c 00       	.word	0x003c	; ????
     ac6:	00 00       	nop
     ac8:	00 00       	nop
     aca:	00 00       	nop
     acc:	44 00       	.word	0x0044	; ????
     ace:	65 00       	.word	0x0065	; ????
     ad0:	44 00       	.word	0x0044	; ????
     ad2:	00 00       	nop
     ad4:	00 00       	nop
     ad6:	00 00       	nop
     ad8:	44 00       	.word	0x0044	; ????
     ada:	67 00       	.word	0x0067	; ????
     adc:	48 00       	.word	0x0048	; ????
     ade:	00 00       	nop
     ae0:	00 00       	nop
     ae2:	00 00       	nop
     ae4:	44 00       	.word	0x0044	; ????
     ae6:	68 00       	.word	0x0068	; ????
     ae8:	4e 00       	.word	0x004e	; ????
     aea:	00 00       	nop
     aec:	00 00       	nop
     aee:	00 00       	nop
     af0:	44 00       	.word	0x0044	; ????
     af2:	5b 00       	.word	0x005b	; ????
     af4:	5c 00       	.word	0x005c	; ????
     af6:	00 00       	nop
     af8:	00 00       	nop
     afa:	00 00       	nop
     afc:	44 00       	.word	0x0044	; ????
     afe:	5a 00       	.word	0x005a	; ????
     b00:	66 00       	.word	0x0066	; ????
     b02:	00 00       	nop
     b04:	00 00       	nop
     b06:	00 00       	nop
     b08:	44 00       	.word	0x0044	; ????
     b0a:	76 00       	.word	0x0076	; ????
     b0c:	6a 00       	.word	0x006a	; ????
     b0e:	00 00       	nop
     b10:	00 00       	nop
     b12:	00 00       	nop
     b14:	44 00       	.word	0x0044	; ????
     b16:	77 00       	.word	0x0077	; ????
     b18:	70 00       	.word	0x0070	; ????
     b1a:	00 00       	nop
     b1c:	00 00       	nop
     b1e:	00 00       	nop
     b20:	44 00       	.word	0x0044	; ????
     b22:	7c 00       	.word	0x007c	; ????
     b24:	82 00       	.word	0x0082	; ????
     b26:	00 00       	nop
     b28:	00 00       	nop
     b2a:	00 00       	nop
     b2c:	44 00       	.word	0x0044	; ????
     b2e:	7d 00       	.word	0x007d	; ????
     b30:	8e 00       	.word	0x008e	; ????
     b32:	00 00       	nop
     b34:	00 00       	nop
     b36:	00 00       	nop
     b38:	44 00       	.word	0x0044	; ????
     b3a:	82 00       	.word	0x0082	; ????
     b3c:	9c 00       	.word	0x009c	; ????
     b3e:	00 00       	nop
     b40:	00 00       	nop
     b42:	00 00       	nop
     b44:	44 00       	.word	0x0044	; ????
     b46:	83 00       	.word	0x0083	; ????
     b48:	a0 00       	.word	0x00a0	; ????
     b4a:	00 00       	nop
     b4c:	00 00       	nop
     b4e:	00 00       	nop
     b50:	44 00       	.word	0x0044	; ????
     b52:	85 00       	.word	0x0085	; ????
     b54:	a6 00       	.word	0x00a6	; ????
     b56:	00 00       	nop
     b58:	00 00       	nop
     b5a:	00 00       	nop
     b5c:	44 00       	.word	0x0044	; ????
     b5e:	86 00       	.word	0x0086	; ????
     b60:	ae 00       	.word	0x00ae	; ????
     b62:	00 00       	nop
     b64:	00 00       	nop
     b66:	00 00       	nop
     b68:	44 00       	.word	0x0044	; ????
     b6a:	95 00       	.word	0x0095	; ????
     b6c:	b4 00       	.word	0x00b4	; ????
     b6e:	00 00       	nop
     b70:	00 00       	nop
     b72:	00 00       	nop
     b74:	44 00       	.word	0x0044	; ????
     b76:	98 00       	.word	0x0098	; ????
     b78:	ba 00       	.word	0x00ba	; ????
     b7a:	00 00       	nop
     b7c:	00 00       	nop
     b7e:	00 00       	nop
     b80:	44 00       	.word	0x0044	; ????
     b82:	99 00       	.word	0x0099	; ????
     b84:	c4 00       	.word	0x00c4	; ????
     b86:	00 00       	nop
     b88:	00 00       	nop
     b8a:	00 00       	nop
     b8c:	44 00       	.word	0x0044	; ????
     b8e:	7b 00       	.word	0x007b	; ????
     b90:	cc 00       	.word	0x00cc	; ????
     b92:	00 00       	nop
     b94:	00 00       	nop
     b96:	00 00       	nop
     b98:	44 00       	.word	0x0044	; ????
     b9a:	7a 00       	.word	0x007a	; ????
     b9c:	d6 00       	.word	0x00d6	; ????
     b9e:	00 00       	nop
     ba0:	00 00       	nop
     ba2:	00 00       	nop
     ba4:	44 00       	.word	0x0044	; ????
     ba6:	a8 00       	.word	0x00a8	; ????
     ba8:	da 00       	.word	0x00da	; ????
     baa:	00 00       	nop
     bac:	00 00       	nop
     bae:	00 00       	nop
     bb0:	44 00       	.word	0x0044	; ????
     bb2:	a9 00       	.word	0x00a9	; ????
     bb4:	e6 00       	.word	0x00e6	; ????
     bb6:	00 00       	nop
     bb8:	00 00       	nop
     bba:	00 00       	nop
     bbc:	44 00       	.word	0x0044	; ????
     bbe:	aa 00       	.word	0x00aa	; ????
     bc0:	f6 00       	.word	0x00f6	; ????
     bc2:	00 00       	nop
     bc4:	00 00       	nop
     bc6:	00 00       	nop
     bc8:	44 00       	.word	0x0044	; ????
     bca:	ab 00       	.word	0x00ab	; ????
     bcc:	fe 00       	.word	0x00fe	; ????
     bce:	00 00       	nop
     bd0:	00 00       	nop
     bd2:	00 00       	nop
     bd4:	44 00       	.word	0x0044	; ????
     bd6:	ac 00       	.word	0x00ac	; ????
     bd8:	04 01       	movw	r0, r8
     bda:	00 00       	nop
     bdc:	00 00       	nop
     bde:	00 00       	nop
     be0:	44 00       	.word	0x0044	; ????
     be2:	ad 00       	.word	0x00ad	; ????
     be4:	14 01       	movw	r2, r8
     be6:	00 00       	nop
     be8:	00 00       	nop
     bea:	00 00       	nop
     bec:	44 00       	.word	0x0044	; ????
     bee:	b2 00       	.word	0x00b2	; ????
     bf0:	22 01       	movw	r4, r4
     bf2:	00 00       	nop
     bf4:	00 00       	nop
     bf6:	00 00       	nop
     bf8:	44 00       	.word	0x0044	; ????
     bfa:	b6 00       	.word	0x00b6	; ????
     bfc:	28 01       	movw	r4, r16
     bfe:	00 00       	nop
     c00:	00 00       	nop
     c02:	00 00       	nop
     c04:	44 00       	.word	0x0044	; ????
     c06:	b8 00       	.word	0x00b8	; ????
     c08:	3a 01       	movw	r6, r20
     c0a:	00 00       	nop
     c0c:	00 00       	nop
     c0e:	00 00       	nop
     c10:	44 00       	.word	0x0044	; ????
     c12:	b9 00       	.word	0x00b9	; ????
     c14:	46 01       	movw	r8, r12
     c16:	00 00       	nop
     c18:	00 00       	nop
     c1a:	00 00       	nop
     c1c:	44 00       	.word	0x0044	; ????
     c1e:	ba 00       	.word	0x00ba	; ????
     c20:	4e 01       	movw	r8, r28
     c22:	00 00       	nop
     c24:	00 00       	nop
     c26:	00 00       	nop
     c28:	44 00       	.word	0x0044	; ????
     c2a:	c0 00       	.word	0x00c0	; ????
     c2c:	52 01       	movw	r10, r4
     c2e:	00 00       	nop
     c30:	d2 07       	cpc	r29, r18
     c32:	00 00       	nop
     c34:	40 00       	.word	0x0040	; ????
     c36:	45 00       	.word	0x0045	; ????
     c38:	1c 00       	.word	0x001c	; ????
     c3a:	00 00       	nop
     c3c:	dd 07       	cpc	r29, r29
     c3e:	00 00       	nop
     c40:	40 00       	.word	0x0040	; ????
     c42:	45 00       	.word	0x0045	; ????
     c44:	1e 00       	.word	0x001e	; ????
     c46:	00 00       	nop
     c48:	e8 07       	cpc	r30, r24
     c4a:	00 00       	nop
     c4c:	40 00       	.word	0x0040	; ????
     c4e:	46 00       	.word	0x0046	; ????
     c50:	14 00       	.word	0x0014	; ????
     c52:	00 00       	nop
     c54:	fa 07       	cpc	r31, r26
     c56:	00 00       	nop
     c58:	40 00       	.word	0x0040	; ????
     c5a:	47 00       	.word	0x0047	; ????
     c5c:	14 00       	.word	0x0014	; ????
     c5e:	00 00       	nop
     c60:	03 08       	sbc	r0, r3
     c62:	00 00       	nop
     c64:	40 00       	.word	0x0040	; ????
     c66:	47 00       	.word	0x0047	; ????
     c68:	18 00       	.word	0x0018	; ????
     c6a:	00 00       	nop
     c6c:	00 00       	nop
     c6e:	00 00       	nop
     c70:	c0 00       	.word	0x00c0	; ????
     c72:	00 00       	nop
     c74:	00 00       	nop
     c76:	00 00       	nop
     c78:	00 00       	nop
     c7a:	00 00       	nop
     c7c:	e0 00       	.word	0x00e0	; ????
     c7e:	00 00       	nop
     c80:	5a 01       	movw	r10, r20
     c82:	00 00       	nop
     c84:	00 00       	nop
     c86:	00 00       	nop
     c88:	24 00       	.word	0x0024	; ????
     c8a:	00 00       	nop
     c8c:	5a 01       	movw	r10, r20
     c8e:	00 00       	nop
     c90:	00 00       	nop
     c92:	00 00       	nop
     c94:	4e 00       	.word	0x004e	; ????
     c96:	00 00       	nop
     c98:	82 21       	and	r24, r2
     c9a:	00 00       	nop
     c9c:	10 08       	sbc	r1, r0
     c9e:	00 00       	nop
     ca0:	24 00       	.word	0x0024	; ????
     ca2:	c6 00       	.word	0x00c6	; ????
     ca4:	82 21       	and	r24, r2
     ca6:	00 00       	nop
     ca8:	1d 08       	sbc	r1, r13
     caa:	00 00       	nop
     cac:	40 00       	.word	0x0040	; ????
     cae:	c5 00       	.word	0x00c5	; ????
     cb0:	18 00       	.word	0x0018	; ????
     cb2:	00 00       	nop
     cb4:	00 00       	nop
     cb6:	00 00       	nop
     cb8:	2e 00       	.word	0x002e	; ????
     cba:	00 00       	nop
     cbc:	82 21       	and	r24, r2
     cbe:	00 00       	nop
     cc0:	00 00       	nop
     cc2:	00 00       	nop
     cc4:	44 00       	.word	0x0044	; ????
     cc6:	cb 00       	.word	0x00cb	; ????
     cc8:	00 00       	nop
     cca:	00 00       	nop
     ccc:	00 00       	nop
     cce:	00 00       	nop
     cd0:	44 00       	.word	0x0044	; ????
     cd2:	cb 00       	.word	0x00cb	; ????
     cd4:	04 00       	.word	0x0004	; ????
     cd6:	00 00       	nop
     cd8:	00 00       	nop
     cda:	00 00       	nop
     cdc:	44 00       	.word	0x0044	; ????
     cde:	cf 00       	.word	0x00cf	; ????
     ce0:	0a 00       	.word	0x000a	; ????
     ce2:	00 00       	nop
     ce4:	00 00       	nop
     ce6:	00 00       	nop
     ce8:	44 00       	.word	0x0044	; ????
     cea:	d1 00       	.word	0x00d1	; ????
     cec:	0e 00       	.word	0x000e	; ????
     cee:	00 00       	nop
     cf0:	00 00       	nop
     cf2:	00 00       	nop
     cf4:	44 00       	.word	0x0044	; ????
     cf6:	d7 00       	.word	0x00d7	; ????
     cf8:	12 00       	.word	0x0012	; ????
     cfa:	00 00       	nop
     cfc:	00 00       	nop
     cfe:	00 00       	nop
     d00:	44 00       	.word	0x0044	; ????
     d02:	d9 00       	.word	0x00d9	; ????
     d04:	1e 00       	.word	0x001e	; ????
     d06:	00 00       	nop
     d08:	00 00       	nop
     d0a:	00 00       	nop
     d0c:	44 00       	.word	0x0044	; ????
     d0e:	e4 00       	.word	0x00e4	; ????
     d10:	22 00       	.word	0x0022	; ????
     d12:	00 00       	nop
     d14:	00 00       	nop
     d16:	00 00       	nop
     d18:	44 00       	.word	0x0044	; ????
     d1a:	e7 00       	.word	0x00e7	; ????
     d1c:	28 00       	.word	0x0028	; ????
     d1e:	00 00       	nop
     d20:	00 00       	nop
     d22:	00 00       	nop
     d24:	44 00       	.word	0x0044	; ????
     d26:	e8 00       	.word	0x00e8	; ????
     d28:	2c 00       	.word	0x002c	; ????
     d2a:	00 00       	nop
     d2c:	00 00       	nop
     d2e:	00 00       	nop
     d30:	44 00       	.word	0x0044	; ????
     d32:	ea 00       	.word	0x00ea	; ????
     d34:	3c 00       	.word	0x003c	; ????
     d36:	00 00       	nop
     d38:	00 00       	nop
     d3a:	00 00       	nop
     d3c:	44 00       	.word	0x0044	; ????
     d3e:	eb 00       	.word	0x00eb	; ????
     d40:	4e 00       	.word	0x004e	; ????
     d42:	00 00       	nop
     d44:	00 00       	nop
     d46:	00 00       	nop
     d48:	44 00       	.word	0x0044	; ????
     d4a:	ed 00       	.word	0x00ed	; ????
     d4c:	5a 00       	.word	0x005a	; ????
     d4e:	00 00       	nop
     d50:	00 00       	nop
     d52:	00 00       	nop
     d54:	44 00       	.word	0x0044	; ????
     d56:	ef 00       	.word	0x00ef	; ????
     d58:	60 00       	.word	0x0060	; ????
     d5a:	00 00       	nop
     d5c:	00 00       	nop
     d5e:	00 00       	nop
     d60:	44 00       	.word	0x0044	; ????
     d62:	e3 00       	.word	0x00e3	; ????
     d64:	6a 00       	.word	0x006a	; ????
     d66:	00 00       	nop
     d68:	00 00       	nop
     d6a:	00 00       	nop
     d6c:	44 00       	.word	0x0044	; ????
     d6e:	e2 00       	.word	0x00e2	; ????
     d70:	74 00       	.word	0x0074	; ????
     d72:	00 00       	nop
     d74:	00 00       	nop
     d76:	00 00       	nop
     d78:	44 00       	.word	0x0044	; ????
     d7a:	fa 00       	.word	0x00fa	; ????
     d7c:	7c 00       	.word	0x007c	; ????
     d7e:	00 00       	nop
     d80:	00 00       	nop
     d82:	00 00       	nop
     d84:	44 00       	.word	0x0044	; ????
     d86:	fc 00       	.word	0x00fc	; ????
     d88:	82 00       	.word	0x0082	; ????
     d8a:	00 00       	nop
     d8c:	00 00       	nop
     d8e:	00 00       	nop
     d90:	44 00       	.word	0x0044	; ????
     d92:	fe 00       	.word	0x00fe	; ????
     d94:	90 00       	.word	0x0090	; ????
     d96:	00 00       	nop
     d98:	00 00       	nop
     d9a:	00 00       	nop
     d9c:	44 00       	.word	0x0044	; ????
     d9e:	ff 00       	.word	0x00ff	; ????
     da0:	a2 00       	.word	0x00a2	; ????
     da2:	00 00       	nop
     da4:	00 00       	nop
     da6:	00 00       	nop
     da8:	44 00       	.word	0x0044	; ????
     daa:	01 01       	movw	r0, r2
     dac:	aa 00       	.word	0x00aa	; ????
     dae:	00 00       	nop
     db0:	d2 07       	cpc	r29, r18
     db2:	00 00       	nop
     db4:	40 00       	.word	0x0040	; ????
     db6:	c7 00       	.word	0x00c7	; ????
     db8:	1a 00       	.word	0x001a	; ????
     dba:	00 00       	nop
     dbc:	dd 07       	cpc	r29, r29
     dbe:	00 00       	nop
     dc0:	40 00       	.word	0x0040	; ????
     dc2:	c7 00       	.word	0x00c7	; ????
     dc4:	14 00       	.word	0x0014	; ????
     dc6:	00 00       	nop
     dc8:	00 00       	nop
     dca:	00 00       	nop
     dcc:	c0 00       	.word	0x00c0	; ????
     dce:	00 00       	nop
     dd0:	00 00       	nop
     dd2:	00 00       	nop
     dd4:	00 00       	nop
     dd6:	00 00       	nop
     dd8:	e0 00       	.word	0x00e0	; ????
     dda:	00 00       	nop
     ddc:	b0 00       	.word	0x00b0	; ????
     dde:	00 00       	nop
     de0:	00 00       	nop
     de2:	00 00       	nop
     de4:	24 00       	.word	0x0024	; ????
     de6:	00 00       	nop
     de8:	b0 00       	.word	0x00b0	; ????
     dea:	00 00       	nop
     dec:	00 00       	nop
     dee:	00 00       	nop
     df0:	4e 00       	.word	0x004e	; ????
     df2:	00 00       	nop
     df4:	32 22       	and	r3, r18
     df6:	00 00       	nop
     df8:	27 08       	sbc	r2, r7
     dfa:	00 00       	nop
     dfc:	20 00       	.word	0x0020	; ????
     dfe:	3a 00       	.word	0x003a	; ????
     e00:	00 00       	nop
     e02:	00 00       	nop
     e04:	3e 08       	sbc	r3, r14
     e06:	00 00       	nop
     e08:	20 00       	.word	0x0020	; ????
     e0a:	3b 00       	.word	0x003b	; ????
     e0c:	00 00       	nop
     e0e:	00 00       	nop
     e10:	5a 08       	sbc	r5, r10
     e12:	00 00       	nop
     e14:	20 00       	.word	0x0020	; ????
     e16:	3c 00       	.word	0x003c	; ????
     e18:	00 00       	nop
     e1a:	00 00       	nop
     e1c:	74 08       	sbc	r7, r4
     e1e:	00 00       	nop
     e20:	20 00       	.word	0x0020	; ????
     e22:	3e 00       	.word	0x003e	; ????
     e24:	00 00       	nop
     e26:	00 00       	nop
     e28:	85 08       	sbc	r8, r5
     e2a:	00 00       	nop
     e2c:	20 00       	.word	0x0020	; ????
     e2e:	3f 00       	.word	0x003f	; ????
     e30:	00 00       	nop
     e32:	00 00       	nop
     e34:	00 00       	nop
     e36:	00 00       	nop
     e38:	64 00       	.word	0x0064	; ????
     e3a:	00 00       	nop
     e3c:	da 1f       	adc	r29, r26
     e3e:	00 00       	nop
     e40:	54 00       	.word	0x0054	; ????
     e42:	00 00       	nop
     e44:	64 00       	.word	0x0064	; ????
     e46:	02 00       	.word	0x0002	; ????
     e48:	da 1f       	adc	r29, r26
     e4a:	00 00       	nop
     e4c:	92 08       	sbc	r9, r2
     e4e:	00 00       	nop
     e50:	64 00       	.word	0x0064	; ????
     e52:	02 00       	.word	0x0002	; ????
     e54:	da 1f       	adc	r29, r26
     e56:	00 00       	nop
     e58:	9e 00       	.word	0x009e	; ????
     e5a:	00 00       	nop
     e5c:	3c 00       	.word	0x003c	; ????
     e5e:	00 00       	nop
     e60:	00 00       	nop
     e62:	00 00       	nop
     e64:	ad 00       	.word	0x00ad	; ????
     e66:	00 00       	nop
     e68:	80 00       	.word	0x0080	; ????
     e6a:	01 00       	.word	0x0001	; ????
     e6c:	00 00       	nop
     e6e:	00 00       	nop
     e70:	cd 00       	.word	0x00cd	; ????
     e72:	00 00       	nop
     e74:	80 00       	.word	0x0080	; ????
     e76:	01 00       	.word	0x0001	; ????
     e78:	00 00       	nop
     e7a:	00 00       	nop
     e7c:	e7 00       	.word	0x00e7	; ????
     e7e:	00 00       	nop
     e80:	80 00       	.word	0x0080	; ????
     e82:	01 00       	.word	0x0001	; ????
     e84:	00 00       	nop
     e86:	00 00       	nop
     e88:	1e 01       	movw	r2, r28
     e8a:	00 00       	nop
     e8c:	80 00       	.word	0x0080	; ????
     e8e:	01 00       	.word	0x0001	; ????
     e90:	00 00       	nop
     e92:	00 00       	nop
     e94:	44 01       	movw	r8, r8
     e96:	00 00       	nop
     e98:	80 00       	.word	0x0080	; ????
     e9a:	01 00       	.word	0x0001	; ????
     e9c:	00 00       	nop
     e9e:	00 00       	nop
     ea0:	79 01       	movw	r14, r18
     ea2:	00 00       	nop
     ea4:	80 00       	.word	0x0080	; ????
     ea6:	01 00       	.word	0x0001	; ????
     ea8:	00 00       	nop
     eaa:	00 00       	nop
     eac:	ca 01       	movw	r24, r20
     eae:	00 00       	nop
     eb0:	80 00       	.word	0x0080	; ????
     eb2:	01 00       	.word	0x0001	; ????
     eb4:	00 00       	nop
     eb6:	00 00       	nop
     eb8:	0f 02       	muls	r16, r31
     eba:	00 00       	nop
     ebc:	80 00       	.word	0x0080	; ????
     ebe:	01 00       	.word	0x0001	; ????
     ec0:	00 00       	nop
     ec2:	00 00       	nop
     ec4:	35 02       	muls	r19, r21
     ec6:	00 00       	nop
     ec8:	80 00       	.word	0x0080	; ????
     eca:	01 00       	.word	0x0001	; ????
     ecc:	00 00       	nop
     ece:	00 00       	nop
     ed0:	61 02       	muls	r22, r17
     ed2:	00 00       	nop
     ed4:	80 00       	.word	0x0080	; ????
     ed6:	01 00       	.word	0x0001	; ????
     ed8:	00 00       	nop
     eda:	00 00       	nop
     edc:	8b 02       	muls	r24, r27
     ede:	00 00       	nop
     ee0:	80 00       	.word	0x0080	; ????
     ee2:	01 00       	.word	0x0001	; ????
     ee4:	00 00       	nop
     ee6:	00 00       	nop
     ee8:	b4 02       	muls	r27, r20
     eea:	00 00       	nop
     eec:	80 00       	.word	0x0080	; ????
     eee:	01 00       	.word	0x0001	; ????
     ef0:	00 00       	nop
     ef2:	00 00       	nop
     ef4:	ce 02       	muls	r28, r30
     ef6:	00 00       	nop
     ef8:	80 00       	.word	0x0080	; ????
     efa:	01 00       	.word	0x0001	; ????
     efc:	00 00       	nop
     efe:	00 00       	nop
     f00:	e9 02       	muls	r30, r25
     f02:	00 00       	nop
     f04:	80 00       	.word	0x0080	; ????
     f06:	01 00       	.word	0x0001	; ????
     f08:	00 00       	nop
     f0a:	00 00       	nop
     f0c:	09 03       	fmul	r16, r17
     f0e:	00 00       	nop
     f10:	80 00       	.word	0x0080	; ????
     f12:	01 00       	.word	0x0001	; ????
     f14:	00 00       	nop
     f16:	00 00       	nop
     f18:	1d 03       	fmul	r17, r21
     f1a:	00 00       	nop
     f1c:	c2 00       	.word	0x00c2	; ????
     f1e:	00 00       	nop
     f20:	3e 24       	eor	r3, r14
     f22:	00 00       	nop
     f24:	37 03       	mulsu	r19, r23
     f26:	00 00       	nop
     f28:	c2 00       	.word	0x00c2	; ????
     f2a:	00 00       	nop
     f2c:	08 0a       	sbc	r0, r24
     f2e:	00 00       	nop
     f30:	ae 08       	sbc	r10, r14
     f32:	00 00       	nop
     f34:	24 00       	.word	0x0024	; ????
     f36:	2d 00       	.word	0x002d	; ????
     f38:	32 22       	and	r3, r18
     f3a:	00 00       	nop
     f3c:	bd 08       	sbc	r11, r13
     f3e:	00 00       	nop
     f40:	40 00       	.word	0x0040	; ????
     f42:	2c 00       	.word	0x002c	; ????
     f44:	1c 00       	.word	0x001c	; ????
     f46:	00 00       	nop
     f48:	00 00       	nop
     f4a:	00 00       	nop
     f4c:	2e 00       	.word	0x002e	; ????
     f4e:	00 00       	nop
     f50:	32 22       	and	r3, r18
     f52:	00 00       	nop
     f54:	00 00       	nop
     f56:	00 00       	nop
     f58:	44 00       	.word	0x0044	; ????
     f5a:	2d 00       	.word	0x002d	; ????
     f5c:	00 00       	nop
     f5e:	00 00       	nop
     f60:	00 00       	nop
     f62:	00 00       	nop
     f64:	44 00       	.word	0x0044	; ????
     f66:	41 00       	.word	0x0041	; ????
     f68:	16 00       	.word	0x0016	; ????
     f6a:	00 00       	nop
     f6c:	00 00       	nop
     f6e:	00 00       	nop
     f70:	44 00       	.word	0x0044	; ????
     f72:	43 00       	.word	0x0043	; ????
     f74:	1e 00       	.word	0x001e	; ????
     f76:	00 00       	nop
     f78:	00 00       	nop
     f7a:	00 00       	nop
     f7c:	44 00       	.word	0x0044	; ????
     f7e:	47 00       	.word	0x0047	; ????
     f80:	38 00       	.word	0x0038	; ????
     f82:	00 00       	nop
     f84:	00 00       	nop
     f86:	00 00       	nop
     f88:	44 00       	.word	0x0044	; ????
     f8a:	48 00       	.word	0x0048	; ????
     f8c:	80 00       	.word	0x0080	; ????
     f8e:	00 00       	nop
     f90:	00 00       	nop
     f92:	00 00       	nop
     f94:	44 00       	.word	0x0044	; ????
     f96:	49 00       	.word	0x0049	; ????
     f98:	84 00       	.word	0x0084	; ????
     f9a:	00 00       	nop
     f9c:	00 00       	nop
     f9e:	00 00       	nop
     fa0:	44 00       	.word	0x0044	; ????
     fa2:	4a 00       	.word	0x004a	; ????
     fa4:	8c 00       	.word	0x008c	; ????
     fa6:	00 00       	nop
     fa8:	00 00       	nop
     faa:	00 00       	nop
     fac:	44 00       	.word	0x0044	; ????
     fae:	4c 00       	.word	0x004c	; ????
     fb0:	98 00       	.word	0x0098	; ????
     fb2:	00 00       	nop
     fb4:	d0 08       	sbc	r13, r0
     fb6:	00 00       	nop
     fb8:	40 00       	.word	0x0040	; ????
     fba:	3f 00       	.word	0x003f	; ????
     fbc:	0a 00       	.word	0x000a	; ????
     fbe:	00 00       	nop
     fc0:	00 00       	nop
     fc2:	00 00       	nop
     fc4:	c0 00       	.word	0x00c0	; ????
     fc6:	00 00       	nop
     fc8:	00 00       	nop
     fca:	00 00       	nop
     fcc:	00 00       	nop
     fce:	00 00       	nop
     fd0:	e0 00       	.word	0x00e0	; ????
     fd2:	00 00       	nop
     fd4:	b0 00       	.word	0x00b0	; ????
     fd6:	00 00       	nop
     fd8:	00 00       	nop
     fda:	00 00       	nop
     fdc:	24 00       	.word	0x0024	; ????
     fde:	00 00       	nop
     fe0:	b0 00       	.word	0x00b0	; ????
     fe2:	00 00       	nop
     fe4:	00 00       	nop
     fe6:	00 00       	nop
     fe8:	4e 00       	.word	0x004e	; ????
     fea:	00 00       	nop
     fec:	e2 22       	and	r14, r18
     fee:	00 00       	nop
     ff0:	d9 08       	sbc	r13, r9
     ff2:	00 00       	nop
     ff4:	24 00       	.word	0x0024	; ????
     ff6:	52 00       	.word	0x0052	; ????
     ff8:	e2 22       	and	r14, r18
     ffa:	00 00       	nop
     ffc:	e7 08       	sbc	r14, r7
     ffe:	00 00       	nop
    1000:	40 00       	.word	0x0040	; ????
    1002:	51 00       	.word	0x0051	; ????
    1004:	18 00       	.word	0x0018	; ????
    1006:	00 00       	nop
    1008:	00 00       	nop
    100a:	00 00       	nop
    100c:	2e 00       	.word	0x002e	; ????
    100e:	00 00       	nop
    1010:	e2 22       	and	r14, r18
    1012:	00 00       	nop
    1014:	00 00       	nop
    1016:	00 00       	nop
    1018:	44 00       	.word	0x0044	; ????
    101a:	52 00       	.word	0x0052	; ????
    101c:	00 00       	nop
    101e:	00 00       	nop
    1020:	00 00       	nop
    1022:	00 00       	nop
    1024:	44 00       	.word	0x0044	; ????
    1026:	53 00       	.word	0x0053	; ????
    1028:	00 00       	nop
    102a:	00 00       	nop
    102c:	00 00       	nop
    102e:	00 00       	nop
    1030:	44 00       	.word	0x0044	; ????
    1032:	54 00       	.word	0x0054	; ????
    1034:	04 00       	.word	0x0004	; ????
    1036:	00 00       	nop
    1038:	00 00       	nop
    103a:	00 00       	nop
    103c:	24 00       	.word	0x0024	; ????
    103e:	00 00       	nop
    1040:	06 00       	.word	0x0006	; ????
    1042:	00 00       	nop
    1044:	00 00       	nop
    1046:	00 00       	nop
    1048:	4e 00       	.word	0x004e	; ????
    104a:	00 00       	nop
    104c:	e8 22       	and	r14, r24
    104e:	00 00       	nop
    1050:	f3 08       	sbc	r15, r3
    1052:	00 00       	nop
    1054:	24 00       	.word	0x0024	; ????
    1056:	5c 00       	.word	0x005c	; ????
    1058:	e8 22       	and	r14, r24
    105a:	00 00       	nop
    105c:	00 00       	nop
    105e:	00 00       	nop
    1060:	2e 00       	.word	0x002e	; ????
    1062:	00 00       	nop
    1064:	e8 22       	and	r14, r24
    1066:	00 00       	nop
    1068:	00 00       	nop
    106a:	00 00       	nop
    106c:	44 00       	.word	0x0044	; ????
    106e:	5c 00       	.word	0x005c	; ????
    1070:	00 00       	nop
    1072:	00 00       	nop
    1074:	00 00       	nop
    1076:	00 00       	nop
    1078:	44 00       	.word	0x0044	; ????
    107a:	5d 00       	.word	0x005d	; ????
    107c:	00 00       	nop
    107e:	00 00       	nop
    1080:	00 00       	nop
    1082:	00 00       	nop
    1084:	44 00       	.word	0x0044	; ????
    1086:	5e 00       	.word	0x005e	; ????
    1088:	08 00       	.word	0x0008	; ????
    108a:	00 00       	nop
    108c:	00 00       	nop
    108e:	00 00       	nop
    1090:	24 00       	.word	0x0024	; ????
    1092:	00 00       	nop
    1094:	0a 00       	.word	0x000a	; ????
    1096:	00 00       	nop
    1098:	00 00       	nop
    109a:	00 00       	nop
    109c:	4e 00       	.word	0x004e	; ????
    109e:	00 00       	nop
    10a0:	f2 22       	and	r15, r18
    10a2:	00 00       	nop
    10a4:	ff 08       	sbc	r15, r15
    10a6:	00 00       	nop
    10a8:	24 00       	.word	0x0024	; ????
    10aa:	63 00       	.word	0x0063	; ????
    10ac:	f2 22       	and	r15, r18
    10ae:	00 00       	nop
    10b0:	0d 09       	sbc	r16, r13
    10b2:	00 00       	nop
    10b4:	40 00       	.word	0x0040	; ????
    10b6:	62 00       	.word	0x0062	; ????
    10b8:	18 00       	.word	0x0018	; ????
    10ba:	00 00       	nop
    10bc:	00 00       	nop
    10be:	00 00       	nop
    10c0:	2e 00       	.word	0x002e	; ????
    10c2:	00 00       	nop
    10c4:	f2 22       	and	r15, r18
    10c6:	00 00       	nop
    10c8:	00 00       	nop
    10ca:	00 00       	nop
    10cc:	44 00       	.word	0x0044	; ????
    10ce:	63 00       	.word	0x0063	; ????
    10d0:	00 00       	nop
    10d2:	00 00       	nop
    10d4:	00 00       	nop
    10d6:	00 00       	nop
    10d8:	44 00       	.word	0x0044	; ????
    10da:	64 00       	.word	0x0064	; ????
    10dc:	00 00       	nop
    10de:	00 00       	nop
    10e0:	00 00       	nop
    10e2:	00 00       	nop
    10e4:	44 00       	.word	0x0044	; ????
    10e6:	65 00       	.word	0x0065	; ????
    10e8:	14 00       	.word	0x0014	; ????
    10ea:	00 00       	nop
    10ec:	00 00       	nop
    10ee:	00 00       	nop
    10f0:	24 00       	.word	0x0024	; ????
    10f2:	00 00       	nop
    10f4:	16 00       	.word	0x0016	; ????
    10f6:	00 00       	nop
    10f8:	00 00       	nop
    10fa:	00 00       	nop
    10fc:	4e 00       	.word	0x004e	; ????
    10fe:	00 00       	nop
    1100:	08 23       	and	r16, r24
    1102:	00 00       	nop
    1104:	19 09       	sbc	r17, r9
    1106:	00 00       	nop
    1108:	26 00       	.word	0x0026	; ????
    110a:	57 00       	.word	0x0057	; ????
    110c:	1e 02       	muls	r17, r30
    110e:	80 00       	.word	0x0080	; ????
    1110:	00 00       	nop
    1112:	00 00       	nop
    1114:	64 00       	.word	0x0064	; ????
    1116:	00 00       	nop
    1118:	da 1f       	adc	r29, r26
    111a:	00 00       	nop
    111c:	25 09       	sbc	r18, r5
    111e:	00 00       	nop
    1120:	64 00       	.word	0x0064	; ????
    1122:	00 00       	nop
    1124:	da 1f       	adc	r29, r26
    1126:	00 00       	nop
    1128:	35 09       	sbc	r19, r5
    112a:	00 00       	nop
    112c:	84 00       	.word	0x0084	; ????
    112e:	00 00       	nop
    1130:	08 23       	and	r16, r24
    1132:	00 00       	nop
    1134:	00 00       	nop
    1136:	00 00       	nop
    1138:	44 00       	.word	0x0044	; ????
    113a:	28 00       	.word	0x0028	; ????
    113c:	08 23       	and	r16, r24
    113e:	00 00       	nop
    1140:	00 00       	nop
    1142:	00 00       	nop
    1144:	44 00       	.word	0x0044	; ????
    1146:	29 00       	.word	0x0029	; ????
    1148:	0a 23       	and	r16, r26
    114a:	00 00       	nop
    114c:	00 00       	nop
    114e:	00 00       	nop
    1150:	44 00       	.word	0x0044	; ????
    1152:	2a 00       	.word	0x002a	; ????
    1154:	0c 23       	and	r16, r28
    1156:	00 00       	nop
    1158:	00 00       	nop
    115a:	00 00       	nop
    115c:	44 00       	.word	0x0044	; ????
    115e:	2b 00       	.word	0x002b	; ????
    1160:	0e 23       	and	r16, r30
    1162:	00 00       	nop
    1164:	52 09       	sbc	r21, r2
    1166:	00 00       	nop
    1168:	64 00       	.word	0x0064	; ????
    116a:	00 00       	nop
    116c:	da 1f       	adc	r29, r26
    116e:	00 00       	nop
    1170:	62 09       	sbc	r22, r2
    1172:	00 00       	nop
    1174:	84 00       	.word	0x0084	; ????
    1176:	00 00       	nop
    1178:	12 23       	and	r17, r18
    117a:	00 00       	nop
    117c:	00 00       	nop
    117e:	00 00       	nop
    1180:	44 00       	.word	0x0044	; ????
    1182:	39 00       	.word	0x0039	; ????
    1184:	12 23       	and	r17, r18
    1186:	00 00       	nop
    1188:	00 00       	nop
    118a:	00 00       	nop
    118c:	44 00       	.word	0x0044	; ????
    118e:	3a 00       	.word	0x003a	; ????
    1190:	14 23       	and	r17, r20
    1192:	00 00       	nop
    1194:	00 00       	nop
    1196:	00 00       	nop
    1198:	44 00       	.word	0x0044	; ????
    119a:	4b 00       	.word	0x004b	; ????
    119c:	16 23       	and	r17, r22
    119e:	00 00       	nop
    11a0:	00 00       	nop
    11a2:	00 00       	nop
    11a4:	44 00       	.word	0x0044	; ????
    11a6:	4d 00       	.word	0x004d	; ????
    11a8:	18 23       	and	r17, r24
    11aa:	00 00       	nop
    11ac:	00 00       	nop
    11ae:	00 00       	nop
    11b0:	44 00       	.word	0x0044	; ????
    11b2:	4e 00       	.word	0x004e	; ????
    11b4:	1a 23       	and	r17, r26
    11b6:	00 00       	nop
    11b8:	00 00       	nop
    11ba:	00 00       	nop
    11bc:	44 00       	.word	0x0044	; ????
    11be:	50 00       	.word	0x0050	; ????
    11c0:	1c 23       	and	r17, r28
    11c2:	00 00       	nop
    11c4:	00 00       	nop
    11c6:	00 00       	nop
    11c8:	44 00       	.word	0x0044	; ????
    11ca:	51 00       	.word	0x0051	; ????
    11cc:	1e 23       	and	r17, r30
    11ce:	00 00       	nop
    11d0:	00 00       	nop
    11d2:	00 00       	nop
    11d4:	44 00       	.word	0x0044	; ????
    11d6:	53 00       	.word	0x0053	; ????
    11d8:	20 23       	and	r18, r16
    11da:	00 00       	nop
    11dc:	00 00       	nop
    11de:	00 00       	nop
    11e0:	44 00       	.word	0x0044	; ????
    11e2:	55 00       	.word	0x0055	; ????
    11e4:	22 23       	and	r18, r18
    11e6:	00 00       	nop
    11e8:	80 09       	sbc	r24, r0
    11ea:	00 00       	nop
    11ec:	64 00       	.word	0x0064	; ????
    11ee:	00 00       	nop
    11f0:	da 1f       	adc	r29, r26
    11f2:	00 00       	nop
    11f4:	90 09       	sbc	r25, r0
    11f6:	00 00       	nop
    11f8:	84 00       	.word	0x0084	; ????
    11fa:	00 00       	nop
    11fc:	24 23       	and	r18, r20
    11fe:	00 00       	nop
    1200:	00 00       	nop
    1202:	00 00       	nop
    1204:	44 00       	.word	0x0044	; ????
    1206:	3d 00       	.word	0x003d	; ????
    1208:	24 23       	and	r18, r20
    120a:	00 00       	nop
    120c:	00 00       	nop
    120e:	00 00       	nop
    1210:	44 00       	.word	0x0044	; ????
    1212:	3e 00       	.word	0x003e	; ????
    1214:	26 23       	and	r18, r22
    1216:	00 00       	nop
    1218:	00 00       	nop
    121a:	00 00       	nop
    121c:	44 00       	.word	0x0044	; ????
    121e:	40 00       	.word	0x0040	; ????
    1220:	28 23       	and	r18, r24
    1222:	00 00       	nop
    1224:	00 00       	nop
    1226:	00 00       	nop
    1228:	44 00       	.word	0x0044	; ????
    122a:	41 00       	.word	0x0041	; ????
    122c:	2a 23       	and	r18, r26
    122e:	00 00       	nop
    1230:	00 00       	nop
    1232:	00 00       	nop
    1234:	44 00       	.word	0x0044	; ????
    1236:	42 00       	.word	0x0042	; ????
    1238:	2c 23       	and	r18, r28
    123a:	00 00       	nop
    123c:	00 00       	nop
    123e:	00 00       	nop
    1240:	44 00       	.word	0x0044	; ????
    1242:	43 00       	.word	0x0043	; ????
    1244:	2e 23       	and	r18, r30
    1246:	00 00       	nop
    1248:	00 00       	nop
    124a:	00 00       	nop
    124c:	44 00       	.word	0x0044	; ????
    124e:	44 00       	.word	0x0044	; ????
    1250:	30 23       	and	r19, r16
    1252:	00 00       	nop
    1254:	00 00       	nop
    1256:	00 00       	nop
    1258:	44 00       	.word	0x0044	; ????
    125a:	46 00       	.word	0x0046	; ????
    125c:	32 23       	and	r19, r18
    125e:	00 00       	nop
    1260:	00 00       	nop
    1262:	00 00       	nop
    1264:	44 00       	.word	0x0044	; ????
    1266:	47 00       	.word	0x0047	; ????
    1268:	34 23       	and	r19, r20
    126a:	00 00       	nop
    126c:	54 00       	.word	0x0054	; ????
    126e:	00 00       	nop
    1270:	64 00       	.word	0x0064	; ????
    1272:	02 00       	.word	0x0002	; ????
    1274:	da 1f       	adc	r29, r26
    1276:	00 00       	nop
    1278:	ae 09       	sbc	r26, r14
    127a:	00 00       	nop
    127c:	64 00       	.word	0x0064	; ????
    127e:	02 00       	.word	0x0002	; ????
    1280:	da 1f       	adc	r29, r26
    1282:	00 00       	nop
    1284:	9e 00       	.word	0x009e	; ????
    1286:	00 00       	nop
    1288:	3c 00       	.word	0x003c	; ????
    128a:	00 00       	nop
    128c:	00 00       	nop
    128e:	00 00       	nop
    1290:	ad 00       	.word	0x00ad	; ????
    1292:	00 00       	nop
    1294:	80 00       	.word	0x0080	; ????
    1296:	01 00       	.word	0x0001	; ????
    1298:	00 00       	nop
    129a:	00 00       	nop
    129c:	cd 00       	.word	0x00cd	; ????
    129e:	00 00       	nop
    12a0:	80 00       	.word	0x0080	; ????
    12a2:	01 00       	.word	0x0001	; ????
    12a4:	00 00       	nop
    12a6:	00 00       	nop
    12a8:	e7 00       	.word	0x00e7	; ????
    12aa:	00 00       	nop
    12ac:	80 00       	.word	0x0080	; ????
    12ae:	01 00       	.word	0x0001	; ????
    12b0:	00 00       	nop
    12b2:	00 00       	nop
    12b4:	1e 01       	movw	r2, r28
    12b6:	00 00       	nop
    12b8:	80 00       	.word	0x0080	; ????
    12ba:	01 00       	.word	0x0001	; ????
    12bc:	00 00       	nop
    12be:	00 00       	nop
    12c0:	44 01       	movw	r8, r8
    12c2:	00 00       	nop
    12c4:	80 00       	.word	0x0080	; ????
    12c6:	01 00       	.word	0x0001	; ????
    12c8:	00 00       	nop
    12ca:	00 00       	nop
    12cc:	79 01       	movw	r14, r18
    12ce:	00 00       	nop
    12d0:	80 00       	.word	0x0080	; ????
    12d2:	01 00       	.word	0x0001	; ????
    12d4:	00 00       	nop
    12d6:	00 00       	nop
    12d8:	ca 01       	movw	r24, r20
    12da:	00 00       	nop
    12dc:	80 00       	.word	0x0080	; ????
    12de:	01 00       	.word	0x0001	; ????
    12e0:	00 00       	nop
    12e2:	00 00       	nop
    12e4:	0f 02       	muls	r16, r31
    12e6:	00 00       	nop
    12e8:	80 00       	.word	0x0080	; ????
    12ea:	01 00       	.word	0x0001	; ????
    12ec:	00 00       	nop
    12ee:	00 00       	nop
    12f0:	35 02       	muls	r19, r21
    12f2:	00 00       	nop
    12f4:	80 00       	.word	0x0080	; ????
    12f6:	01 00       	.word	0x0001	; ????
    12f8:	00 00       	nop
    12fa:	00 00       	nop
    12fc:	61 02       	muls	r22, r17
    12fe:	00 00       	nop
    1300:	80 00       	.word	0x0080	; ????
    1302:	01 00       	.word	0x0001	; ????
    1304:	00 00       	nop
    1306:	00 00       	nop
    1308:	8b 02       	muls	r24, r27
    130a:	00 00       	nop
    130c:	80 00       	.word	0x0080	; ????
    130e:	01 00       	.word	0x0001	; ????
    1310:	00 00       	nop
    1312:	00 00       	nop
    1314:	b4 02       	muls	r27, r20
    1316:	00 00       	nop
    1318:	80 00       	.word	0x0080	; ????
    131a:	01 00       	.word	0x0001	; ????
    131c:	00 00       	nop
    131e:	00 00       	nop
    1320:	ce 02       	muls	r28, r30
    1322:	00 00       	nop
    1324:	80 00       	.word	0x0080	; ????
    1326:	01 00       	.word	0x0001	; ????
    1328:	00 00       	nop
    132a:	00 00       	nop
    132c:	e9 02       	muls	r30, r25
    132e:	00 00       	nop
    1330:	80 00       	.word	0x0080	; ????
    1332:	01 00       	.word	0x0001	; ????
    1334:	00 00       	nop
    1336:	00 00       	nop
    1338:	09 03       	fmul	r16, r17
    133a:	00 00       	nop
    133c:	80 00       	.word	0x0080	; ????
    133e:	01 00       	.word	0x0001	; ????
    1340:	00 00       	nop
    1342:	00 00       	nop
    1344:	cd 09       	sbc	r28, r13
    1346:	00 00       	nop
    1348:	82 00       	.word	0x0082	; ????
    134a:	00 00       	nop
    134c:	89 0e       	add	r8, r25
    134e:	00 00       	nop
    1350:	f5 09       	sbc	r31, r5
    1352:	00 00       	nop
    1354:	80 00       	.word	0x0080	; ????
    1356:	2b 00       	.word	0x002b	; ????
    1358:	00 00       	nop
    135a:	00 00       	nop
    135c:	19 0a       	sbc	r1, r25
    135e:	00 00       	nop
    1360:	80 00       	.word	0x0080	; ????
    1362:	69 00       	.word	0x0069	; ????
    1364:	00 00       	nop
    1366:	00 00       	nop
    1368:	00 00       	nop
    136a:	00 00       	nop
    136c:	a2 00       	.word	0x00a2	; ????
    136e:	00 00       	nop
    1370:	00 00       	nop
    1372:	00 00       	nop
    1374:	2e 0a       	sbc	r2, r30
    1376:	00 00       	nop
    1378:	82 00       	.word	0x0082	; ????
    137a:	00 00       	nop
    137c:	2d 2b       	or	r18, r29
    137e:	00 00       	nop
    1380:	46 04       	cpc	r4, r6
    1382:	00 00       	nop
    1384:	c2 00       	.word	0x00c2	; ????
    1386:	00 00       	nop
    1388:	25 0f       	add	r18, r21
    138a:	00 00       	nop
    138c:	62 04       	cpc	r6, r2
    138e:	00 00       	nop
    1390:	c2 00       	.word	0x00c2	; ????
    1392:	00 00       	nop
    1394:	33 b8       	out	0x03, r3	; 3
    1396:	00 00       	nop
    1398:	37 03       	mulsu	r19, r23
    139a:	00 00       	nop
    139c:	82 00       	.word	0x0082	; ????
    139e:	00 00       	nop
    13a0:	d8 04       	cpc	r13, r8
    13a2:	00 00       	nop
    13a4:	47 0a       	sbc	r4, r23
    13a6:	00 00       	nop
    13a8:	80 00       	.word	0x0080	; ????
    13aa:	d6 00       	.word	0x00d6	; ????
    13ac:	00 00       	nop
    13ae:	00 00       	nop
    13b0:	00 00       	nop
    13b2:	00 00       	nop
    13b4:	a2 00       	.word	0x00a2	; ????
    13b6:	00 00       	nop
    13b8:	00 00       	nop
    13ba:	00 00       	nop
    13bc:	5b 0a       	sbc	r5, r27
    13be:	00 00       	nop
    13c0:	80 00       	.word	0x0080	; ????
    13c2:	00 00       	nop
    13c4:	00 00       	nop
    13c6:	00 00       	nop
    13c8:	00 00       	nop
    13ca:	00 00       	nop
    13cc:	a2 00       	.word	0x00a2	; ????
    13ce:	00 00       	nop
    13d0:	00 00       	nop
    13d2:	00 00       	nop
    13d4:	1e 0b       	sbc	r17, r30
    13d6:	00 00       	nop
    13d8:	24 00       	.word	0x0024	; ????
    13da:	28 00       	.word	0x0028	; ????
    13dc:	36 23       	and	r19, r22
    13de:	00 00       	nop
    13e0:	2e 0b       	sbc	r18, r30
    13e2:	00 00       	nop
    13e4:	a0 00       	.word	0x00a0	; ????
    13e6:	27 00       	.word	0x0027	; ????
    13e8:	15 00       	.word	0x0015	; ????
    13ea:	00 00       	nop
    13ec:	37 0b       	sbc	r19, r23
    13ee:	00 00       	nop
    13f0:	a0 00       	.word	0x00a0	; ????
    13f2:	27 00       	.word	0x0027	; ????
    13f4:	17 00       	.word	0x0017	; ????
    13f6:	00 00       	nop
    13f8:	40 0b       	sbc	r20, r16
    13fa:	00 00       	nop
    13fc:	a0 00       	.word	0x00a0	; ????
    13fe:	27 00       	.word	0x0027	; ????
    1400:	19 00       	.word	0x0019	; ????
    1402:	00 00       	nop
    1404:	00 00       	nop
    1406:	00 00       	nop
    1408:	2e 00       	.word	0x002e	; ????
    140a:	00 00       	nop
    140c:	36 23       	and	r19, r22
    140e:	00 00       	nop
    1410:	00 00       	nop
    1412:	00 00       	nop
    1414:	44 00       	.word	0x0044	; ????
    1416:	34 00       	.word	0x0034	; ????
    1418:	00 00       	nop
    141a:	00 00       	nop
    141c:	00 00       	nop
    141e:	00 00       	nop
    1420:	44 00       	.word	0x0044	; ????
    1422:	34 00       	.word	0x0034	; ????
    1424:	20 00       	.word	0x0020	; ????
    1426:	00 00       	nop
    1428:	00 00       	nop
    142a:	00 00       	nop
    142c:	44 00       	.word	0x0044	; ????
    142e:	36 00       	.word	0x0036	; ????
    1430:	28 00       	.word	0x0028	; ????
    1432:	00 00       	nop
    1434:	00 00       	nop
    1436:	00 00       	nop
    1438:	44 00       	.word	0x0044	; ????
    143a:	2e 00       	.word	0x002e	; ????
    143c:	2e 00       	.word	0x002e	; ????
    143e:	00 00       	nop
    1440:	00 00       	nop
    1442:	00 00       	nop
    1444:	44 00       	.word	0x0044	; ????
    1446:	2d 00       	.word	0x002d	; ????
    1448:	32 00       	.word	0x0032	; ????
    144a:	00 00       	nop
    144c:	00 00       	nop
    144e:	00 00       	nop
    1450:	44 00       	.word	0x0044	; ????
    1452:	28 00       	.word	0x0028	; ????
    1454:	36 00       	.word	0x0036	; ????
    1456:	00 00       	nop
    1458:	00 00       	nop
    145a:	00 00       	nop
    145c:	44 00       	.word	0x0044	; ????
    145e:	39 00       	.word	0x0039	; ????
    1460:	3c 00       	.word	0x003c	; ????
    1462:	00 00       	nop
    1464:	00 00       	nop
    1466:	00 00       	nop
    1468:	44 00       	.word	0x0044	; ????
    146a:	3e 00       	.word	0x003e	; ????
    146c:	4a 00       	.word	0x004a	; ????
    146e:	00 00       	nop
    1470:	00 00       	nop
    1472:	00 00       	nop
    1474:	44 00       	.word	0x0044	; ????
    1476:	3f 00       	.word	0x003f	; ????
    1478:	52 00       	.word	0x0052	; ????
    147a:	00 00       	nop
    147c:	00 00       	nop
    147e:	00 00       	nop
    1480:	44 00       	.word	0x0044	; ????
    1482:	42 00       	.word	0x0042	; ????
    1484:	66 00       	.word	0x0066	; ????
    1486:	00 00       	nop
    1488:	5b 0b       	sbc	r21, r27
    148a:	00 00       	nop
    148c:	80 00       	.word	0x0080	; ????
    148e:	2a 00       	.word	0x002a	; ????
    1490:	01 00       	.word	0x0001	; ????
    1492:	00 00       	nop
    1494:	63 0b       	sbc	r22, r19
    1496:	00 00       	nop
    1498:	40 00       	.word	0x0040	; ????
    149a:	27 00       	.word	0x0027	; ????
    149c:	10 00       	.word	0x0010	; ????
    149e:	00 00       	nop
    14a0:	6c 0b       	sbc	r22, r28
    14a2:	00 00       	nop
    14a4:	40 00       	.word	0x0040	; ????
    14a6:	27 00       	.word	0x0027	; ????
    14a8:	18 00       	.word	0x0018	; ????
    14aa:	00 00       	nop
    14ac:	00 00       	nop
    14ae:	00 00       	nop
    14b0:	c0 00       	.word	0x00c0	; ????
    14b2:	00 00       	nop
    14b4:	00 00       	nop
    14b6:	00 00       	nop
    14b8:	00 00       	nop
    14ba:	00 00       	nop
    14bc:	e0 00       	.word	0x00e0	; ????
    14be:	00 00       	nop
    14c0:	7c 00       	.word	0x007c	; ????
    14c2:	00 00       	nop
    14c4:	00 00       	nop
    14c6:	00 00       	nop
    14c8:	24 00       	.word	0x0024	; ????
    14ca:	00 00       	nop
    14cc:	7c 00       	.word	0x007c	; ????
    14ce:	00 00       	nop
    14d0:	00 00       	nop
    14d2:	00 00       	nop
    14d4:	4e 00       	.word	0x004e	; ????
    14d6:	00 00       	nop
    14d8:	b2 23       	and	r27, r18
    14da:	00 00       	nop
    14dc:	00 00       	nop
    14de:	00 00       	nop
    14e0:	64 00       	.word	0x0064	; ????
    14e2:	00 00       	nop
    14e4:	da 1f       	adc	r29, r26
    14e6:	00 00       	nop
    14e8:	54 00       	.word	0x0054	; ????
    14ea:	00 00       	nop
    14ec:	64 00       	.word	0x0064	; ????
    14ee:	02 00       	.word	0x0002	; ????
    14f0:	da 1f       	adc	r29, r26
    14f2:	00 00       	nop
    14f4:	75 0b       	sbc	r23, r21
    14f6:	00 00       	nop
    14f8:	64 00       	.word	0x0064	; ????
    14fa:	02 00       	.word	0x0002	; ????
    14fc:	da 1f       	adc	r29, r26
    14fe:	00 00       	nop
    1500:	9e 00       	.word	0x009e	; ????
    1502:	00 00       	nop
    1504:	3c 00       	.word	0x003c	; ????
    1506:	00 00       	nop
    1508:	00 00       	nop
    150a:	00 00       	nop
    150c:	ad 00       	.word	0x00ad	; ????
    150e:	00 00       	nop
    1510:	80 00       	.word	0x0080	; ????
    1512:	01 00       	.word	0x0001	; ????
    1514:	00 00       	nop
    1516:	00 00       	nop
    1518:	cd 00       	.word	0x00cd	; ????
    151a:	00 00       	nop
    151c:	80 00       	.word	0x0080	; ????
    151e:	01 00       	.word	0x0001	; ????
    1520:	00 00       	nop
    1522:	00 00       	nop
    1524:	e7 00       	.word	0x00e7	; ????
    1526:	00 00       	nop
    1528:	80 00       	.word	0x0080	; ????
    152a:	01 00       	.word	0x0001	; ????
    152c:	00 00       	nop
    152e:	00 00       	nop
    1530:	1e 01       	movw	r2, r28
    1532:	00 00       	nop
    1534:	80 00       	.word	0x0080	; ????
    1536:	01 00       	.word	0x0001	; ????
    1538:	00 00       	nop
    153a:	00 00       	nop
    153c:	44 01       	movw	r8, r8
    153e:	00 00       	nop
    1540:	80 00       	.word	0x0080	; ????
    1542:	01 00       	.word	0x0001	; ????
    1544:	00 00       	nop
    1546:	00 00       	nop
    1548:	79 01       	movw	r14, r18
    154a:	00 00       	nop
    154c:	80 00       	.word	0x0080	; ????
    154e:	01 00       	.word	0x0001	; ????
    1550:	00 00       	nop
    1552:	00 00       	nop
    1554:	ca 01       	movw	r24, r20
    1556:	00 00       	nop
    1558:	80 00       	.word	0x0080	; ????
    155a:	01 00       	.word	0x0001	; ????
    155c:	00 00       	nop
    155e:	00 00       	nop
    1560:	0f 02       	muls	r16, r31
    1562:	00 00       	nop
    1564:	80 00       	.word	0x0080	; ????
    1566:	01 00       	.word	0x0001	; ????
    1568:	00 00       	nop
    156a:	00 00       	nop
    156c:	35 02       	muls	r19, r21
    156e:	00 00       	nop
    1570:	80 00       	.word	0x0080	; ????
    1572:	01 00       	.word	0x0001	; ????
    1574:	00 00       	nop
    1576:	00 00       	nop
    1578:	61 02       	muls	r22, r17
    157a:	00 00       	nop
    157c:	80 00       	.word	0x0080	; ????
    157e:	01 00       	.word	0x0001	; ????
    1580:	00 00       	nop
    1582:	00 00       	nop
    1584:	8b 02       	muls	r24, r27
    1586:	00 00       	nop
    1588:	80 00       	.word	0x0080	; ????
    158a:	01 00       	.word	0x0001	; ????
    158c:	00 00       	nop
    158e:	00 00       	nop
    1590:	b4 02       	muls	r27, r20
    1592:	00 00       	nop
    1594:	80 00       	.word	0x0080	; ????
    1596:	01 00       	.word	0x0001	; ????
    1598:	00 00       	nop
    159a:	00 00       	nop
    159c:	ce 02       	muls	r28, r30
    159e:	00 00       	nop
    15a0:	80 00       	.word	0x0080	; ????
    15a2:	01 00       	.word	0x0001	; ????
    15a4:	00 00       	nop
    15a6:	00 00       	nop
    15a8:	e9 02       	muls	r30, r25
    15aa:	00 00       	nop
    15ac:	80 00       	.word	0x0080	; ????
    15ae:	01 00       	.word	0x0001	; ????
    15b0:	00 00       	nop
    15b2:	00 00       	nop
    15b4:	09 03       	fmul	r16, r17
    15b6:	00 00       	nop
    15b8:	80 00       	.word	0x0080	; ????
    15ba:	01 00       	.word	0x0001	; ????
    15bc:	00 00       	nop
    15be:	00 00       	nop
    15c0:	cd 09       	sbc	r28, r13
    15c2:	00 00       	nop
    15c4:	c2 00       	.word	0x00c2	; ????
    15c6:	00 00       	nop
    15c8:	89 0e       	add	r8, r25
    15ca:	00 00       	nop
    15cc:	2e 0a       	sbc	r2, r30
    15ce:	00 00       	nop
    15d0:	c2 00       	.word	0x00c2	; ????
    15d2:	00 00       	nop
    15d4:	2d 2b       	or	r18, r29
    15d6:	00 00       	nop
    15d8:	46 04       	cpc	r4, r6
    15da:	00 00       	nop
    15dc:	c2 00       	.word	0x00c2	; ????
    15de:	00 00       	nop
    15e0:	25 0f       	add	r18, r21
    15e2:	00 00       	nop
    15e4:	62 04       	cpc	r6, r2
    15e6:	00 00       	nop
    15e8:	c2 00       	.word	0x00c2	; ????
    15ea:	00 00       	nop
    15ec:	33 b8       	out	0x03, r3	; 3
    15ee:	00 00       	nop
    15f0:	37 03       	mulsu	r19, r23
    15f2:	00 00       	nop
    15f4:	c2 00       	.word	0x00c2	; ????
    15f6:	00 00       	nop
    15f8:	d8 04       	cpc	r13, r8
    15fa:	00 00       	nop
    15fc:	93 0b       	sbc	r25, r19
    15fe:	00 00       	nop
    1600:	24 00       	.word	0x0024	; ????
    1602:	29 00       	.word	0x0029	; ????
    1604:	b2 23       	and	r27, r18
    1606:	00 00       	nop
    1608:	2e 0b       	sbc	r18, r30
    160a:	00 00       	nop
    160c:	a0 00       	.word	0x00a0	; ????
    160e:	28 00       	.word	0x0028	; ????
    1610:	15 00       	.word	0x0015	; ????
    1612:	00 00       	nop
    1614:	40 0b       	sbc	r20, r16
    1616:	00 00       	nop
    1618:	a0 00       	.word	0x00a0	; ????
    161a:	28 00       	.word	0x0028	; ????
    161c:	17 00       	.word	0x0017	; ????
    161e:	00 00       	nop
    1620:	00 00       	nop
    1622:	00 00       	nop
    1624:	2e 00       	.word	0x002e	; ????
    1626:	00 00       	nop
    1628:	b2 23       	and	r27, r18
    162a:	00 00       	nop
    162c:	00 00       	nop
    162e:	00 00       	nop
    1630:	44 00       	.word	0x0044	; ????
    1632:	2e 00       	.word	0x002e	; ????
    1634:	00 00       	nop
    1636:	00 00       	nop
    1638:	00 00       	nop
    163a:	00 00       	nop
    163c:	44 00       	.word	0x0044	; ????
    163e:	2e 00       	.word	0x002e	; ????
    1640:	1c 00       	.word	0x001c	; ????
    1642:	00 00       	nop
    1644:	00 00       	nop
    1646:	00 00       	nop
    1648:	44 00       	.word	0x0044	; ????
    164a:	2f 00       	.word	0x002f	; ????
    164c:	20 00       	.word	0x0020	; ????
    164e:	00 00       	nop
    1650:	00 00       	nop
    1652:	00 00       	nop
    1654:	44 00       	.word	0x0044	; ????
    1656:	30 00       	.word	0x0030	; ????
    1658:	24 00       	.word	0x0024	; ????
    165a:	00 00       	nop
    165c:	00 00       	nop
    165e:	00 00       	nop
    1660:	44 00       	.word	0x0044	; ????
    1662:	29 00       	.word	0x0029	; ????
    1664:	2c 00       	.word	0x002c	; ????
    1666:	00 00       	nop
    1668:	00 00       	nop
    166a:	00 00       	nop
    166c:	44 00       	.word	0x0044	; ????
    166e:	32 00       	.word	0x0032	; ????
    1670:	32 00       	.word	0x0032	; ????
    1672:	00 00       	nop
    1674:	00 00       	nop
    1676:	00 00       	nop
    1678:	44 00       	.word	0x0044	; ????
    167a:	34 00       	.word	0x0034	; ????
    167c:	40 00       	.word	0x0040	; ????
    167e:	00 00       	nop
    1680:	00 00       	nop
    1682:	00 00       	nop
    1684:	44 00       	.word	0x0044	; ????
    1686:	37 00       	.word	0x0037	; ????
    1688:	4c 00       	.word	0x004c	; ????
    168a:	00 00       	nop
    168c:	5b 0b       	sbc	r21, r27
    168e:	00 00       	nop
    1690:	80 00       	.word	0x0080	; ????
    1692:	2b 00       	.word	0x002b	; ????
    1694:	01 00       	.word	0x0001	; ????
    1696:	00 00       	nop
    1698:	63 0b       	sbc	r22, r19
    169a:	00 00       	nop
    169c:	40 00       	.word	0x0040	; ????
    169e:	28 00       	.word	0x0028	; ????
    16a0:	10 00       	.word	0x0010	; ????
    16a2:	00 00       	nop
    16a4:	00 00       	nop
    16a6:	00 00       	nop
    16a8:	c0 00       	.word	0x00c0	; ????
    16aa:	00 00       	nop
    16ac:	00 00       	nop
    16ae:	00 00       	nop
    16b0:	00 00       	nop
    16b2:	00 00       	nop
    16b4:	e0 00       	.word	0x00e0	; ????
    16b6:	00 00       	nop
    16b8:	62 00       	.word	0x0062	; ????
    16ba:	00 00       	nop
    16bc:	00 00       	nop
    16be:	00 00       	nop
    16c0:	24 00       	.word	0x0024	; ????
    16c2:	00 00       	nop
    16c4:	62 00       	.word	0x0062	; ????
    16c6:	00 00       	nop
    16c8:	00 00       	nop
    16ca:	00 00       	nop
    16cc:	4e 00       	.word	0x004e	; ????
    16ce:	00 00       	nop
    16d0:	14 24       	eor	r1, r4
    16d2:	00 00       	nop
    16d4:	00 00       	nop
    16d6:	00 00       	nop
    16d8:	64 00       	.word	0x0064	; ????
    16da:	00 00       	nop
    16dc:	da 1f       	adc	r29, r26
    16de:	00 00       	nop
    16e0:	54 00       	.word	0x0054	; ????
    16e2:	00 00       	nop
    16e4:	64 00       	.word	0x0064	; ????
    16e6:	02 00       	.word	0x0002	; ????
    16e8:	da 1f       	adc	r29, r26
    16ea:	00 00       	nop
    16ec:	a2 0b       	sbc	r26, r18
    16ee:	00 00       	nop
    16f0:	64 00       	.word	0x0064	; ????
    16f2:	02 00       	.word	0x0002	; ????
    16f4:	da 1f       	adc	r29, r26
    16f6:	00 00       	nop
    16f8:	9e 00       	.word	0x009e	; ????
    16fa:	00 00       	nop
    16fc:	3c 00       	.word	0x003c	; ????
    16fe:	00 00       	nop
    1700:	00 00       	nop
    1702:	00 00       	nop
    1704:	ad 00       	.word	0x00ad	; ????
    1706:	00 00       	nop
    1708:	80 00       	.word	0x0080	; ????
    170a:	01 00       	.word	0x0001	; ????
    170c:	00 00       	nop
    170e:	00 00       	nop
    1710:	cd 00       	.word	0x00cd	; ????
    1712:	00 00       	nop
    1714:	80 00       	.word	0x0080	; ????
    1716:	01 00       	.word	0x0001	; ????
    1718:	00 00       	nop
    171a:	00 00       	nop
    171c:	e7 00       	.word	0x00e7	; ????
    171e:	00 00       	nop
    1720:	80 00       	.word	0x0080	; ????
    1722:	01 00       	.word	0x0001	; ????
    1724:	00 00       	nop
    1726:	00 00       	nop
    1728:	1e 01       	movw	r2, r28
    172a:	00 00       	nop
    172c:	80 00       	.word	0x0080	; ????
    172e:	01 00       	.word	0x0001	; ????
    1730:	00 00       	nop
    1732:	00 00       	nop
    1734:	44 01       	movw	r8, r8
    1736:	00 00       	nop
    1738:	80 00       	.word	0x0080	; ????
    173a:	01 00       	.word	0x0001	; ????
    173c:	00 00       	nop
    173e:	00 00       	nop
    1740:	79 01       	movw	r14, r18
    1742:	00 00       	nop
    1744:	80 00       	.word	0x0080	; ????
    1746:	01 00       	.word	0x0001	; ????
    1748:	00 00       	nop
    174a:	00 00       	nop
    174c:	ca 01       	movw	r24, r20
    174e:	00 00       	nop
    1750:	80 00       	.word	0x0080	; ????
    1752:	01 00       	.word	0x0001	; ????
    1754:	00 00       	nop
    1756:	00 00       	nop
    1758:	0f 02       	muls	r16, r31
    175a:	00 00       	nop
    175c:	80 00       	.word	0x0080	; ????
    175e:	01 00       	.word	0x0001	; ????
    1760:	00 00       	nop
    1762:	00 00       	nop
    1764:	35 02       	muls	r19, r21
    1766:	00 00       	nop
    1768:	80 00       	.word	0x0080	; ????
    176a:	01 00       	.word	0x0001	; ????
    176c:	00 00       	nop
    176e:	00 00       	nop
    1770:	61 02       	muls	r22, r17
    1772:	00 00       	nop
    1774:	80 00       	.word	0x0080	; ????
    1776:	01 00       	.word	0x0001	; ????
    1778:	00 00       	nop
    177a:	00 00       	nop
    177c:	8b 02       	muls	r24, r27
    177e:	00 00       	nop
    1780:	80 00       	.word	0x0080	; ????
    1782:	01 00       	.word	0x0001	; ????
    1784:	00 00       	nop
    1786:	00 00       	nop
    1788:	b4 02       	muls	r27, r20
    178a:	00 00       	nop
    178c:	80 00       	.word	0x0080	; ????
    178e:	01 00       	.word	0x0001	; ????
    1790:	00 00       	nop
    1792:	00 00       	nop
    1794:	ce 02       	muls	r28, r30
    1796:	00 00       	nop
    1798:	80 00       	.word	0x0080	; ????
    179a:	01 00       	.word	0x0001	; ????
    179c:	00 00       	nop
    179e:	00 00       	nop
    17a0:	e9 02       	muls	r30, r25
    17a2:	00 00       	nop
    17a4:	80 00       	.word	0x0080	; ????
    17a6:	01 00       	.word	0x0001	; ????
    17a8:	00 00       	nop
    17aa:	00 00       	nop
    17ac:	09 03       	fmul	r16, r17
    17ae:	00 00       	nop
    17b0:	80 00       	.word	0x0080	; ????
    17b2:	01 00       	.word	0x0001	; ????
    17b4:	00 00       	nop
    17b6:	00 00       	nop
    17b8:	cd 09       	sbc	r28, r13
    17ba:	00 00       	nop
    17bc:	c2 00       	.word	0x00c2	; ????
    17be:	00 00       	nop
    17c0:	89 0e       	add	r8, r25
    17c2:	00 00       	nop
    17c4:	2e 0a       	sbc	r2, r30
    17c6:	00 00       	nop
    17c8:	c2 00       	.word	0x00c2	; ????
    17ca:	00 00       	nop
    17cc:	2d 2b       	or	r18, r29
    17ce:	00 00       	nop
    17d0:	46 04       	cpc	r4, r6
    17d2:	00 00       	nop
    17d4:	c2 00       	.word	0x00c2	; ????
    17d6:	00 00       	nop
    17d8:	25 0f       	add	r18, r21
    17da:	00 00       	nop
    17dc:	62 04       	cpc	r6, r2
    17de:	00 00       	nop
    17e0:	c2 00       	.word	0x00c2	; ????
    17e2:	00 00       	nop
    17e4:	33 b8       	out	0x03, r3	; 3
    17e6:	00 00       	nop
    17e8:	37 03       	mulsu	r19, r23
    17ea:	00 00       	nop
    17ec:	c2 00       	.word	0x00c2	; ????
    17ee:	00 00       	nop
    17f0:	d8 04       	cpc	r13, r8
    17f2:	00 00       	nop
    17f4:	c2 0b       	sbc	r28, r18
    17f6:	00 00       	nop
    17f8:	24 00       	.word	0x0024	; ????
    17fa:	28 00       	.word	0x0028	; ????
    17fc:	14 24       	eor	r1, r4
    17fe:	00 00       	nop
    1800:	d3 0b       	sbc	r29, r19
    1802:	00 00       	nop
    1804:	40 00       	.word	0x0040	; ????
    1806:	27 00       	.word	0x0027	; ????
    1808:	10 00       	.word	0x0010	; ????
    180a:	00 00       	nop
    180c:	dc 0b       	sbc	r29, r28
    180e:	00 00       	nop
    1810:	40 00       	.word	0x0040	; ????
    1812:	27 00       	.word	0x0027	; ????
    1814:	16 00       	.word	0x0016	; ????
    1816:	00 00       	nop
    1818:	e5 0b       	sbc	r30, r21
    181a:	00 00       	nop
    181c:	40 00       	.word	0x0040	; ????
    181e:	27 00       	.word	0x0027	; ????
    1820:	14 00       	.word	0x0014	; ????
    1822:	00 00       	nop
    1824:	00 0c       	add	r0, r0
    1826:	00 00       	nop
    1828:	40 00       	.word	0x0040	; ????
    182a:	27 00       	.word	0x0027	; ????
    182c:	12 00       	.word	0x0012	; ????
    182e:	00 00       	nop
    1830:	00 00       	nop
    1832:	00 00       	nop
    1834:	2e 00       	.word	0x002e	; ????
    1836:	00 00       	nop
    1838:	14 24       	eor	r1, r4
    183a:	00 00       	nop
    183c:	00 00       	nop
    183e:	00 00       	nop
    1840:	44 00       	.word	0x0044	; ????
    1842:	33 00       	.word	0x0033	; ????
    1844:	00 00       	nop
    1846:	00 00       	nop
    1848:	00 00       	nop
    184a:	00 00       	nop
    184c:	44 00       	.word	0x0044	; ????
    184e:	33 00       	.word	0x0033	; ????
    1850:	1a 00       	.word	0x001a	; ????
    1852:	00 00       	nop
    1854:	00 00       	nop
    1856:	00 00       	nop
    1858:	44 00       	.word	0x0044	; ????
    185a:	35 00       	.word	0x0035	; ????
    185c:	22 00       	.word	0x0022	; ????
    185e:	00 00       	nop
    1860:	00 00       	nop
    1862:	00 00       	nop
    1864:	44 00       	.word	0x0044	; ????
    1866:	2d 00       	.word	0x002d	; ????
    1868:	2a 00       	.word	0x002a	; ????
    186a:	00 00       	nop
    186c:	00 00       	nop
    186e:	00 00       	nop
    1870:	44 00       	.word	0x0044	; ????
    1872:	2c 00       	.word	0x002c	; ????
    1874:	2e 00       	.word	0x002e	; ????
    1876:	00 00       	nop
    1878:	00 00       	nop
    187a:	00 00       	nop
    187c:	44 00       	.word	0x0044	; ????
    187e:	37 00       	.word	0x0037	; ????
    1880:	32 00       	.word	0x0032	; ????
    1882:	00 00       	nop
    1884:	00 00       	nop
    1886:	00 00       	nop
    1888:	44 00       	.word	0x0044	; ????
    188a:	3b 00       	.word	0x003b	; ????
    188c:	3e 00       	.word	0x003e	; ????
    188e:	00 00       	nop
    1890:	00 00       	nop
    1892:	00 00       	nop
    1894:	44 00       	.word	0x0044	; ????
    1896:	3c 00       	.word	0x003c	; ????
    1898:	46 00       	.word	0x0046	; ????
    189a:	00 00       	nop
    189c:	00 00       	nop
    189e:	00 00       	nop
    18a0:	44 00       	.word	0x0044	; ????
    18a2:	3f 00       	.word	0x003f	; ????
    18a4:	58 00       	.word	0x0058	; ????
    18a6:	00 00       	nop
    18a8:	5b 0b       	sbc	r21, r27
    18aa:	00 00       	nop
    18ac:	80 00       	.word	0x0080	; ????
    18ae:	29 00       	.word	0x0029	; ????
    18b0:	01 00       	.word	0x0001	; ????
    18b2:	00 00       	nop
    18b4:	00 00       	nop
    18b6:	00 00       	nop
    18b8:	c0 00       	.word	0x00c0	; ????
    18ba:	00 00       	nop
    18bc:	00 00       	nop
    18be:	00 00       	nop
    18c0:	00 00       	nop
    18c2:	00 00       	nop
    18c4:	e0 00       	.word	0x00e0	; ????
    18c6:	00 00       	nop
    18c8:	6e 00       	.word	0x006e	; ????
    18ca:	00 00       	nop
    18cc:	00 00       	nop
    18ce:	00 00       	nop
    18d0:	24 00       	.word	0x0024	; ????
    18d2:	00 00       	nop
    18d4:	6e 00       	.word	0x006e	; ????
    18d6:	00 00       	nop
    18d8:	00 00       	nop
    18da:	00 00       	nop
    18dc:	4e 00       	.word	0x004e	; ????
    18de:	00 00       	nop
    18e0:	82 24       	eor	r8, r2
    18e2:	00 00       	nop
    18e4:	00 00       	nop
    18e6:	00 00       	nop
    18e8:	64 00       	.word	0x0064	; ????
    18ea:	00 00       	nop
    18ec:	da 1f       	adc	r29, r26
    18ee:	00 00       	nop
    18f0:	54 00       	.word	0x0054	; ????
    18f2:	00 00       	nop
    18f4:	64 00       	.word	0x0064	; ????
    18f6:	02 00       	.word	0x0002	; ????
    18f8:	da 1f       	adc	r29, r26
    18fa:	00 00       	nop
    18fc:	0a 0c       	add	r0, r10
    18fe:	00 00       	nop
    1900:	64 00       	.word	0x0064	; ????
    1902:	02 00       	.word	0x0002	; ????
    1904:	da 1f       	adc	r29, r26
    1906:	00 00       	nop
    1908:	9e 00       	.word	0x009e	; ????
    190a:	00 00       	nop
    190c:	3c 00       	.word	0x003c	; ????
    190e:	00 00       	nop
    1910:	00 00       	nop
    1912:	00 00       	nop
    1914:	ad 00       	.word	0x00ad	; ????
    1916:	00 00       	nop
    1918:	80 00       	.word	0x0080	; ????
    191a:	01 00       	.word	0x0001	; ????
    191c:	00 00       	nop
    191e:	00 00       	nop
    1920:	cd 00       	.word	0x00cd	; ????
    1922:	00 00       	nop
    1924:	80 00       	.word	0x0080	; ????
    1926:	01 00       	.word	0x0001	; ????
    1928:	00 00       	nop
    192a:	00 00       	nop
    192c:	e7 00       	.word	0x00e7	; ????
    192e:	00 00       	nop
    1930:	80 00       	.word	0x0080	; ????
    1932:	01 00       	.word	0x0001	; ????
    1934:	00 00       	nop
    1936:	00 00       	nop
    1938:	1e 01       	movw	r2, r28
    193a:	00 00       	nop
    193c:	80 00       	.word	0x0080	; ????
    193e:	01 00       	.word	0x0001	; ????
    1940:	00 00       	nop
    1942:	00 00       	nop
    1944:	44 01       	movw	r8, r8
    1946:	00 00       	nop
    1948:	80 00       	.word	0x0080	; ????
    194a:	01 00       	.word	0x0001	; ????
    194c:	00 00       	nop
    194e:	00 00       	nop
    1950:	79 01       	movw	r14, r18
    1952:	00 00       	nop
    1954:	80 00       	.word	0x0080	; ????
    1956:	01 00       	.word	0x0001	; ????
    1958:	00 00       	nop
    195a:	00 00       	nop
    195c:	ca 01       	movw	r24, r20
    195e:	00 00       	nop
    1960:	80 00       	.word	0x0080	; ????
    1962:	01 00       	.word	0x0001	; ????
    1964:	00 00       	nop
    1966:	00 00       	nop
    1968:	0f 02       	muls	r16, r31
    196a:	00 00       	nop
    196c:	80 00       	.word	0x0080	; ????
    196e:	01 00       	.word	0x0001	; ????
    1970:	00 00       	nop
    1972:	00 00       	nop
    1974:	35 02       	muls	r19, r21
    1976:	00 00       	nop
    1978:	80 00       	.word	0x0080	; ????
    197a:	01 00       	.word	0x0001	; ????
    197c:	00 00       	nop
    197e:	00 00       	nop
    1980:	61 02       	muls	r22, r17
    1982:	00 00       	nop
    1984:	80 00       	.word	0x0080	; ????
    1986:	01 00       	.word	0x0001	; ????
    1988:	00 00       	nop
    198a:	00 00       	nop
    198c:	8b 02       	muls	r24, r27
    198e:	00 00       	nop
    1990:	80 00       	.word	0x0080	; ????
    1992:	01 00       	.word	0x0001	; ????
    1994:	00 00       	nop
    1996:	00 00       	nop
    1998:	b4 02       	muls	r27, r20
    199a:	00 00       	nop
    199c:	80 00       	.word	0x0080	; ????
    199e:	01 00       	.word	0x0001	; ????
    19a0:	00 00       	nop
    19a2:	00 00       	nop
    19a4:	ce 02       	muls	r28, r30
    19a6:	00 00       	nop
    19a8:	80 00       	.word	0x0080	; ????
    19aa:	01 00       	.word	0x0001	; ????
    19ac:	00 00       	nop
    19ae:	00 00       	nop
    19b0:	e9 02       	muls	r30, r25
    19b2:	00 00       	nop
    19b4:	80 00       	.word	0x0080	; ????
    19b6:	01 00       	.word	0x0001	; ????
    19b8:	00 00       	nop
    19ba:	00 00       	nop
    19bc:	09 03       	fmul	r16, r17
    19be:	00 00       	nop
    19c0:	80 00       	.word	0x0080	; ????
    19c2:	01 00       	.word	0x0001	; ????
    19c4:	00 00       	nop
    19c6:	00 00       	nop
    19c8:	cd 09       	sbc	r28, r13
    19ca:	00 00       	nop
    19cc:	c2 00       	.word	0x00c2	; ????
    19ce:	00 00       	nop
    19d0:	89 0e       	add	r8, r25
    19d2:	00 00       	nop
    19d4:	2e 0a       	sbc	r2, r30
    19d6:	00 00       	nop
    19d8:	c2 00       	.word	0x00c2	; ????
    19da:	00 00       	nop
    19dc:	2d 2b       	or	r18, r29
    19de:	00 00       	nop
    19e0:	46 04       	cpc	r4, r6
    19e2:	00 00       	nop
    19e4:	c2 00       	.word	0x00c2	; ????
    19e6:	00 00       	nop
    19e8:	25 0f       	add	r18, r21
    19ea:	00 00       	nop
    19ec:	62 04       	cpc	r6, r2
    19ee:	00 00       	nop
    19f0:	c2 00       	.word	0x00c2	; ????
    19f2:	00 00       	nop
    19f4:	33 b8       	out	0x03, r3	; 3
    19f6:	00 00       	nop
    19f8:	37 03       	mulsu	r19, r23
    19fa:	00 00       	nop
    19fc:	c2 00       	.word	0x00c2	; ????
    19fe:	00 00       	nop
    1a00:	d8 04       	cpc	r13, r8
    1a02:	00 00       	nop
    1a04:	29 0c       	add	r2, r9
    1a06:	00 00       	nop
    1a08:	24 00       	.word	0x0024	; ????
    1a0a:	29 00       	.word	0x0029	; ????
    1a0c:	82 24       	eor	r8, r2
    1a0e:	00 00       	nop
    1a10:	d3 0b       	sbc	r29, r19
    1a12:	00 00       	nop
    1a14:	40 00       	.word	0x0040	; ????
    1a16:	28 00       	.word	0x0028	; ????
    1a18:	10 00       	.word	0x0010	; ????
    1a1a:	00 00       	nop
    1a1c:	e5 0b       	sbc	r30, r21
    1a1e:	00 00       	nop
    1a20:	40 00       	.word	0x0040	; ????
    1a22:	28 00       	.word	0x0028	; ????
    1a24:	16 00       	.word	0x0016	; ????
    1a26:	00 00       	nop
    1a28:	00 0c       	add	r0, r0
    1a2a:	00 00       	nop
    1a2c:	40 00       	.word	0x0040	; ????
    1a2e:	28 00       	.word	0x0028	; ????
    1a30:	14 00       	.word	0x0014	; ????
    1a32:	00 00       	nop
    1a34:	00 00       	nop
    1a36:	00 00       	nop
    1a38:	2e 00       	.word	0x002e	; ????
    1a3a:	00 00       	nop
    1a3c:	82 24       	eor	r8, r2
    1a3e:	00 00       	nop
    1a40:	00 00       	nop
    1a42:	00 00       	nop
    1a44:	44 00       	.word	0x0044	; ????
    1a46:	2d 00       	.word	0x002d	; ????
    1a48:	00 00       	nop
    1a4a:	00 00       	nop
    1a4c:	00 00       	nop
    1a4e:	00 00       	nop
    1a50:	44 00       	.word	0x0044	; ????
    1a52:	2d 00       	.word	0x002d	; ????
    1a54:	1a 00       	.word	0x001a	; ????
    1a56:	00 00       	nop
    1a58:	00 00       	nop
    1a5a:	00 00       	nop
    1a5c:	44 00       	.word	0x0044	; ????
    1a5e:	2e 00       	.word	0x002e	; ????
    1a60:	1e 00       	.word	0x001e	; ????
    1a62:	00 00       	nop
    1a64:	00 00       	nop
    1a66:	00 00       	nop
    1a68:	44 00       	.word	0x0044	; ????
    1a6a:	2f 00       	.word	0x002f	; ????
    1a6c:	22 00       	.word	0x0022	; ????
    1a6e:	00 00       	nop
    1a70:	00 00       	nop
    1a72:	00 00       	nop
    1a74:	44 00       	.word	0x0044	; ????
    1a76:	30 00       	.word	0x0030	; ????
    1a78:	2a 00       	.word	0x002a	; ????
    1a7a:	00 00       	nop
    1a7c:	00 00       	nop
    1a7e:	00 00       	nop
    1a80:	44 00       	.word	0x0044	; ????
    1a82:	31 00       	.word	0x0031	; ????
    1a84:	32 00       	.word	0x0032	; ????
    1a86:	00 00       	nop
    1a88:	00 00       	nop
    1a8a:	00 00       	nop
    1a8c:	44 00       	.word	0x0044	; ????
    1a8e:	34 00       	.word	0x0034	; ????
    1a90:	3c 00       	.word	0x003c	; ????
    1a92:	00 00       	nop
    1a94:	5b 0b       	sbc	r21, r27
    1a96:	00 00       	nop
    1a98:	80 00       	.word	0x0080	; ????
    1a9a:	2a 00       	.word	0x002a	; ????
    1a9c:	01 00       	.word	0x0001	; ????
    1a9e:	00 00       	nop
    1aa0:	00 00       	nop
    1aa2:	00 00       	nop
    1aa4:	c0 00       	.word	0x00c0	; ????
    1aa6:	00 00       	nop
    1aa8:	00 00       	nop
    1aaa:	00 00       	nop
    1aac:	00 00       	nop
    1aae:	00 00       	nop
    1ab0:	e0 00       	.word	0x00e0	; ????
    1ab2:	00 00       	nop
    1ab4:	52 00       	.word	0x0052	; ????
    1ab6:	00 00       	nop
    1ab8:	00 00       	nop
    1aba:	00 00       	nop
    1abc:	24 00       	.word	0x0024	; ????
    1abe:	00 00       	nop
    1ac0:	52 00       	.word	0x0052	; ????
    1ac2:	00 00       	nop
    1ac4:	00 00       	nop
    1ac6:	00 00       	nop
    1ac8:	4e 00       	.word	0x004e	; ????
    1aca:	00 00       	nop
    1acc:	d4 24       	eor	r13, r4
    1ace:	00 00       	nop
    1ad0:	00 00       	nop
    1ad2:	00 00       	nop
    1ad4:	64 00       	.word	0x0064	; ????
    1ad6:	00 00       	nop
    1ad8:	da 1f       	adc	r29, r26
    1ada:	00 00       	nop
    1adc:	54 00       	.word	0x0054	; ????
    1ade:	00 00       	nop
    1ae0:	64 00       	.word	0x0064	; ????
    1ae2:	02 00       	.word	0x0002	; ????
    1ae4:	da 1f       	adc	r29, r26
    1ae6:	00 00       	nop
    1ae8:	39 0c       	add	r3, r9
    1aea:	00 00       	nop
    1aec:	64 00       	.word	0x0064	; ????
    1aee:	02 00       	.word	0x0002	; ????
    1af0:	da 1f       	adc	r29, r26
    1af2:	00 00       	nop
    1af4:	9e 00       	.word	0x009e	; ????
    1af6:	00 00       	nop
    1af8:	3c 00       	.word	0x003c	; ????
    1afa:	00 00       	nop
    1afc:	00 00       	nop
    1afe:	00 00       	nop
    1b00:	ad 00       	.word	0x00ad	; ????
    1b02:	00 00       	nop
    1b04:	80 00       	.word	0x0080	; ????
    1b06:	01 00       	.word	0x0001	; ????
    1b08:	00 00       	nop
    1b0a:	00 00       	nop
    1b0c:	cd 00       	.word	0x00cd	; ????
    1b0e:	00 00       	nop
    1b10:	80 00       	.word	0x0080	; ????
    1b12:	01 00       	.word	0x0001	; ????
    1b14:	00 00       	nop
    1b16:	00 00       	nop
    1b18:	e7 00       	.word	0x00e7	; ????
    1b1a:	00 00       	nop
    1b1c:	80 00       	.word	0x0080	; ????
    1b1e:	01 00       	.word	0x0001	; ????
    1b20:	00 00       	nop
    1b22:	00 00       	nop
    1b24:	1e 01       	movw	r2, r28
    1b26:	00 00       	nop
    1b28:	80 00       	.word	0x0080	; ????
    1b2a:	01 00       	.word	0x0001	; ????
    1b2c:	00 00       	nop
    1b2e:	00 00       	nop
    1b30:	44 01       	movw	r8, r8
    1b32:	00 00       	nop
    1b34:	80 00       	.word	0x0080	; ????
    1b36:	01 00       	.word	0x0001	; ????
    1b38:	00 00       	nop
    1b3a:	00 00       	nop
    1b3c:	79 01       	movw	r14, r18
    1b3e:	00 00       	nop
    1b40:	80 00       	.word	0x0080	; ????
    1b42:	01 00       	.word	0x0001	; ????
    1b44:	00 00       	nop
    1b46:	00 00       	nop
    1b48:	ca 01       	movw	r24, r20
    1b4a:	00 00       	nop
    1b4c:	80 00       	.word	0x0080	; ????
    1b4e:	01 00       	.word	0x0001	; ????
    1b50:	00 00       	nop
    1b52:	00 00       	nop
    1b54:	0f 02       	muls	r16, r31
    1b56:	00 00       	nop
    1b58:	80 00       	.word	0x0080	; ????
    1b5a:	01 00       	.word	0x0001	; ????
    1b5c:	00 00       	nop
    1b5e:	00 00       	nop
    1b60:	35 02       	muls	r19, r21
    1b62:	00 00       	nop
    1b64:	80 00       	.word	0x0080	; ????
    1b66:	01 00       	.word	0x0001	; ????
    1b68:	00 00       	nop
    1b6a:	00 00       	nop
    1b6c:	61 02       	muls	r22, r17
    1b6e:	00 00       	nop
    1b70:	80 00       	.word	0x0080	; ????
    1b72:	01 00       	.word	0x0001	; ????
    1b74:	00 00       	nop
    1b76:	00 00       	nop
    1b78:	8b 02       	muls	r24, r27
    1b7a:	00 00       	nop
    1b7c:	80 00       	.word	0x0080	; ????
    1b7e:	01 00       	.word	0x0001	; ????
    1b80:	00 00       	nop
    1b82:	00 00       	nop
    1b84:	b4 02       	muls	r27, r20
    1b86:	00 00       	nop
    1b88:	80 00       	.word	0x0080	; ????
    1b8a:	01 00       	.word	0x0001	; ????
    1b8c:	00 00       	nop
    1b8e:	00 00       	nop
    1b90:	ce 02       	muls	r28, r30
    1b92:	00 00       	nop
    1b94:	80 00       	.word	0x0080	; ????
    1b96:	01 00       	.word	0x0001	; ????
    1b98:	00 00       	nop
    1b9a:	00 00       	nop
    1b9c:	e9 02       	muls	r30, r25
    1b9e:	00 00       	nop
    1ba0:	80 00       	.word	0x0080	; ????
    1ba2:	01 00       	.word	0x0001	; ????
    1ba4:	00 00       	nop
    1ba6:	00 00       	nop
    1ba8:	09 03       	fmul	r16, r17
    1baa:	00 00       	nop
    1bac:	80 00       	.word	0x0080	; ????
    1bae:	01 00       	.word	0x0001	; ????
    1bb0:	00 00       	nop
    1bb2:	00 00       	nop
    1bb4:	58 0c       	add	r5, r8
    1bb6:	00 00       	nop
    1bb8:	82 00       	.word	0x0082	; ????
    1bba:	00 00       	nop
    1bbc:	97 5c       	subi	r25, 0xC7	; 199
    1bbe:	00 00       	nop
    1bc0:	46 04       	cpc	r4, r6
    1bc2:	00 00       	nop
    1bc4:	c2 00       	.word	0x00c2	; ????
    1bc6:	00 00       	nop
    1bc8:	25 0f       	add	r18, r21
    1bca:	00 00       	nop
    1bcc:	62 04       	cpc	r6, r2
    1bce:	00 00       	nop
    1bd0:	c2 00       	.word	0x00c2	; ????
    1bd2:	00 00       	nop
    1bd4:	33 b8       	out	0x03, r3	; 3
    1bd6:	00 00       	nop
    1bd8:	37 03       	mulsu	r19, r23
    1bda:	00 00       	nop
    1bdc:	c2 00       	.word	0x00c2	; ????
    1bde:	00 00       	nop
    1be0:	d8 04       	cpc	r13, r8
    1be2:	00 00       	nop
    1be4:	78 0c       	add	r7, r8
    1be6:	00 00       	nop
    1be8:	80 00       	.word	0x0080	; ????
    1bea:	d3 00       	.word	0x00d3	; ????
    1bec:	00 00       	nop
    1bee:	00 00       	nop
    1bf0:	95 0c       	add	r9, r5
    1bf2:	00 00       	nop
    1bf4:	80 00       	.word	0x0080	; ????
    1bf6:	d4 00       	.word	0x00d4	; ????
    1bf8:	00 00       	nop
    1bfa:	00 00       	nop
    1bfc:	c1 0c       	add	r12, r1
    1bfe:	00 00       	nop
    1c00:	80 00       	.word	0x0080	; ????
    1c02:	d5 00       	.word	0x00d5	; ????
    1c04:	00 00       	nop
    1c06:	00 00       	nop
    1c08:	eb 0c       	add	r14, r11
    1c0a:	00 00       	nop
    1c0c:	80 00       	.word	0x0080	; ????
    1c0e:	d7 00       	.word	0x00d7	; ????
    1c10:	00 00       	nop
    1c12:	00 00       	nop
    1c14:	04 0d       	add	r16, r4
    1c16:	00 00       	nop
    1c18:	80 00       	.word	0x0080	; ????
    1c1a:	d8 00       	.word	0x00d8	; ????
    1c1c:	00 00       	nop
    1c1e:	00 00       	nop
    1c20:	1e 0d       	add	r17, r14
    1c22:	00 00       	nop
    1c24:	80 00       	.word	0x0080	; ????
    1c26:	d9 00       	.word	0x00d9	; ????
    1c28:	00 00       	nop
    1c2a:	00 00       	nop
    1c2c:	3f 0d       	add	r19, r15
    1c2e:	00 00       	nop
    1c30:	80 00       	.word	0x0080	; ????
    1c32:	da 00       	.word	0x00da	; ????
    1c34:	00 00       	nop
    1c36:	00 00       	nop
    1c38:	62 0d       	add	r22, r2
    1c3a:	00 00       	nop
    1c3c:	80 00       	.word	0x0080	; ????
    1c3e:	db 00       	.word	0x00db	; ????
    1c40:	00 00       	nop
    1c42:	00 00       	nop
    1c44:	84 0d       	add	r24, r4
    1c46:	00 00       	nop
    1c48:	80 00       	.word	0x0080	; ????
    1c4a:	dc 00       	.word	0x00dc	; ????
    1c4c:	00 00       	nop
    1c4e:	00 00       	nop
    1c50:	a7 0d       	add	r26, r7
    1c52:	00 00       	nop
    1c54:	80 00       	.word	0x0080	; ????
    1c56:	de 00       	.word	0x00de	; ????
    1c58:	00 00       	nop
    1c5a:	00 00       	nop
    1c5c:	c9 0d       	add	r28, r9
    1c5e:	00 00       	nop
    1c60:	80 00       	.word	0x0080	; ????
    1c62:	df 00       	.word	0x00df	; ????
    1c64:	00 00       	nop
    1c66:	00 00       	nop
    1c68:	00 00       	nop
    1c6a:	00 00       	nop
    1c6c:	a2 00       	.word	0x00a2	; ????
    1c6e:	00 00       	nop
    1c70:	00 00       	nop
    1c72:	00 00       	nop
    1c74:	cd 09       	sbc	r28, r13
    1c76:	00 00       	nop
    1c78:	c2 00       	.word	0x00c2	; ????
    1c7a:	00 00       	nop
    1c7c:	89 0e       	add	r8, r25
    1c7e:	00 00       	nop
    1c80:	2e 0a       	sbc	r2, r30
    1c82:	00 00       	nop
    1c84:	c2 00       	.word	0x00c2	; ????
    1c86:	00 00       	nop
    1c88:	2d 2b       	or	r18, r29
    1c8a:	00 00       	nop
    1c8c:	1d 03       	fmul	r17, r21
    1c8e:	00 00       	nop
    1c90:	c2 00       	.word	0x00c2	; ????
    1c92:	00 00       	nop
    1c94:	3e 24       	eor	r3, r14
    1c96:	00 00       	nop
    1c98:	37 03       	mulsu	r19, r23
    1c9a:	00 00       	nop
    1c9c:	82 00       	.word	0x0082	; ????
    1c9e:	00 00       	nop
    1ca0:	2f 05       	cpc	r18, r15
    1ca2:	00 00       	nop
    1ca4:	ec 0d       	add	r30, r12
    1ca6:	00 00       	nop
    1ca8:	80 00       	.word	0x0080	; ????
    1caa:	46 01       	movw	r8, r12
    1cac:	00 00       	nop
    1cae:	00 00       	nop
    1cb0:	00 00       	nop
    1cb2:	00 00       	nop
    1cb4:	a2 00       	.word	0x00a2	; ????
    1cb6:	00 00       	nop
    1cb8:	00 00       	nop
    1cba:	00 00       	nop
    1cbc:	01 0e       	add	r0, r17
    1cbe:	00 00       	nop
    1cc0:	82 00       	.word	0x0082	; ????
    1cc2:	00 00       	nop
    1cc4:	00 00       	nop
    1cc6:	00 00       	nop
    1cc8:	37 03       	mulsu	r19, r23
    1cca:	00 00       	nop
    1ccc:	82 00       	.word	0x0082	; ????
    1cce:	00 00       	nop
    1cd0:	09 06       	cpc	r0, r25
    1cd2:	00 00       	nop
    1cd4:	21 0e       	add	r2, r17
    1cd6:	00 00       	nop
    1cd8:	80 00       	.word	0x0080	; ????
    1cda:	98 00       	.word	0x0098	; ????
    1cdc:	00 00       	nop
    1cde:	00 00       	nop
    1ce0:	00 00       	nop
    1ce2:	00 00       	nop
    1ce4:	a2 00       	.word	0x00a2	; ????
    1ce6:	00 00       	nop
    1ce8:	00 00       	nop
    1cea:	00 00       	nop
    1cec:	00 00       	nop
    1cee:	00 00       	nop
    1cf0:	a2 00       	.word	0x00a2	; ????
    1cf2:	00 00       	nop
    1cf4:	00 00       	nop
    1cf6:	00 00       	nop
    1cf8:	39 0e       	add	r3, r25
    1cfa:	00 00       	nop
    1cfc:	24 00       	.word	0x0024	; ????
    1cfe:	1d 01       	movw	r2, r26
    1d00:	d4 24       	eor	r13, r4
    1d02:	00 00       	nop
    1d04:	49 0e       	add	r4, r25
    1d06:	00 00       	nop
    1d08:	40 00       	.word	0x0040	; ????
    1d0a:	1c 01       	movw	r2, r24
    1d0c:	06 00       	.word	0x0006	; ????
    1d0e:	00 00       	nop
    1d10:	5f 0e       	add	r5, r31
    1d12:	00 00       	nop
    1d14:	40 00       	.word	0x0040	; ????
    1d16:	1c 01       	movw	r2, r24
    1d18:	04 00       	.word	0x0004	; ????
    1d1a:	00 00       	nop
    1d1c:	7a 0e       	add	r7, r26
    1d1e:	00 00       	nop
    1d20:	40 00       	.word	0x0040	; ????
    1d22:	1c 01       	movw	r2, r24
    1d24:	0a 00       	.word	0x000a	; ????
    1d26:	00 00       	nop
    1d28:	00 00       	nop
    1d2a:	00 00       	nop
    1d2c:	2e 00       	.word	0x002e	; ????
    1d2e:	00 00       	nop
    1d30:	d4 24       	eor	r13, r4
    1d32:	00 00       	nop
    1d34:	00 00       	nop
    1d36:	00 00       	nop
    1d38:	44 00       	.word	0x0044	; ????
    1d3a:	24 01       	movw	r4, r8
    1d3c:	00 00       	nop
    1d3e:	00 00       	nop
    1d40:	00 00       	nop
    1d42:	00 00       	nop
    1d44:	44 00       	.word	0x0044	; ????
    1d46:	24 01       	movw	r4, r8
    1d48:	3a 00       	.word	0x003a	; ????
    1d4a:	00 00       	nop
    1d4c:	00 00       	nop
    1d4e:	00 00       	nop
    1d50:	44 00       	.word	0x0044	; ????
    1d52:	26 01       	movw	r4, r12
    1d54:	40 00       	.word	0x0040	; ????
    1d56:	00 00       	nop
    1d58:	00 00       	nop
    1d5a:	00 00       	nop
    1d5c:	44 00       	.word	0x0044	; ????
    1d5e:	55 01       	movw	r10, r10
    1d60:	4c 00       	.word	0x004c	; ????
    1d62:	00 00       	nop
    1d64:	00 00       	nop
    1d66:	00 00       	nop
    1d68:	44 00       	.word	0x0044	; ????
    1d6a:	31 02       	muls	r19, r17
    1d6c:	50 00       	.word	0x0050	; ????
    1d6e:	00 00       	nop
    1d70:	00 00       	nop
    1d72:	00 00       	nop
    1d74:	44 00       	.word	0x0044	; ????
    1d76:	2c 01       	movw	r4, r24
    1d78:	58 00       	.word	0x0058	; ????
    1d7a:	00 00       	nop
    1d7c:	00 00       	nop
    1d7e:	00 00       	nop
    1d80:	44 00       	.word	0x0044	; ????
    1d82:	2d 01       	movw	r4, r26
    1d84:	68 00       	.word	0x0068	; ????
    1d86:	00 00       	nop
    1d88:	00 00       	nop
    1d8a:	00 00       	nop
    1d8c:	44 00       	.word	0x0044	; ????
    1d8e:	2e 01       	movw	r4, r28
    1d90:	6e 00       	.word	0x006e	; ????
    1d92:	00 00       	nop
    1d94:	00 00       	nop
    1d96:	00 00       	nop
    1d98:	44 00       	.word	0x0044	; ????
    1d9a:	2f 01       	movw	r4, r30
    1d9c:	72 00       	.word	0x0072	; ????
    1d9e:	00 00       	nop
    1da0:	00 00       	nop
    1da2:	00 00       	nop
    1da4:	44 00       	.word	0x0044	; ????
    1da6:	30 01       	movw	r6, r0
    1da8:	7c 00       	.word	0x007c	; ????
    1daa:	00 00       	nop
    1dac:	00 00       	nop
    1dae:	00 00       	nop
    1db0:	44 00       	.word	0x0044	; ????
    1db2:	32 01       	movw	r6, r4
    1db4:	80 00       	.word	0x0080	; ????
    1db6:	00 00       	nop
    1db8:	00 00       	nop
    1dba:	00 00       	nop
    1dbc:	44 00       	.word	0x0044	; ????
    1dbe:	33 01       	movw	r6, r6
    1dc0:	8a 00       	.word	0x008a	; ????
    1dc2:	00 00       	nop
    1dc4:	00 00       	nop
    1dc6:	00 00       	nop
    1dc8:	44 00       	.word	0x0044	; ????
    1dca:	3a 01       	movw	r6, r20
    1dcc:	92 00       	.word	0x0092	; ????
    1dce:	00 00       	nop
    1dd0:	00 00       	nop
    1dd2:	00 00       	nop
    1dd4:	44 00       	.word	0x0044	; ????
    1dd6:	3b 01       	movw	r6, r22
    1dd8:	98 00       	.word	0x0098	; ????
    1dda:	00 00       	nop
    1ddc:	00 00       	nop
    1dde:	00 00       	nop
    1de0:	44 00       	.word	0x0044	; ????
    1de2:	3d 01       	movw	r6, r26
    1de4:	b2 00       	.word	0x00b2	; ????
    1de6:	00 00       	nop
    1de8:	00 00       	nop
    1dea:	00 00       	nop
    1dec:	44 00       	.word	0x0044	; ????
    1dee:	40 01       	movw	r8, r0
    1df0:	b6 00       	.word	0x00b6	; ????
    1df2:	00 00       	nop
    1df4:	00 00       	nop
    1df6:	00 00       	nop
    1df8:	44 00       	.word	0x0044	; ????
    1dfa:	43 01       	movw	r8, r6
    1dfc:	ba 00       	.word	0x00ba	; ????
    1dfe:	00 00       	nop
    1e00:	00 00       	nop
    1e02:	00 00       	nop
    1e04:	44 00       	.word	0x0044	; ????
    1e06:	46 01       	movw	r8, r12
    1e08:	c0 00       	.word	0x00c0	; ????
    1e0a:	00 00       	nop
    1e0c:	00 00       	nop
    1e0e:	00 00       	nop
    1e10:	44 00       	.word	0x0044	; ????
    1e12:	49 01       	movw	r8, r18
    1e14:	c6 00       	.word	0x00c6	; ????
    1e16:	00 00       	nop
    1e18:	00 00       	nop
    1e1a:	00 00       	nop
    1e1c:	44 00       	.word	0x0044	; ????
    1e1e:	4e 01       	movw	r8, r28
    1e20:	cc 00       	.word	0x00cc	; ????
    1e22:	00 00       	nop
    1e24:	00 00       	nop
    1e26:	00 00       	nop
    1e28:	44 00       	.word	0x0044	; ????
    1e2a:	4f 01       	movw	r8, r30
    1e2c:	d0 00       	.word	0x00d0	; ????
    1e2e:	00 00       	nop
    1e30:	00 00       	nop
    1e32:	00 00       	nop
    1e34:	44 00       	.word	0x0044	; ????
    1e36:	51 01       	movw	r10, r2
    1e38:	d8 00       	.word	0x00d8	; ????
    1e3a:	00 00       	nop
    1e3c:	00 00       	nop
    1e3e:	00 00       	nop
    1e40:	44 00       	.word	0x0044	; ????
    1e42:	52 01       	movw	r10, r4
    1e44:	dc 00       	.word	0x00dc	; ????
    1e46:	00 00       	nop
    1e48:	00 00       	nop
    1e4a:	00 00       	nop
    1e4c:	44 00       	.word	0x0044	; ????
    1e4e:	55 01       	movw	r10, r10
    1e50:	e6 00       	.word	0x00e6	; ????
    1e52:	00 00       	nop
    1e54:	00 00       	nop
    1e56:	00 00       	nop
    1e58:	44 00       	.word	0x0044	; ????
    1e5a:	56 01       	movw	r10, r12
    1e5c:	ee 00       	.word	0x00ee	; ????
    1e5e:	00 00       	nop
    1e60:	00 00       	nop
    1e62:	00 00       	nop
    1e64:	44 00       	.word	0x0044	; ????
    1e66:	59 01       	movw	r10, r18
    1e68:	f4 00       	.word	0x00f4	; ????
    1e6a:	00 00       	nop
    1e6c:	00 00       	nop
    1e6e:	00 00       	nop
    1e70:	44 00       	.word	0x0044	; ????
    1e72:	5a 01       	movw	r10, r20
    1e74:	f8 00       	.word	0x00f8	; ????
    1e76:	00 00       	nop
    1e78:	00 00       	nop
    1e7a:	00 00       	nop
    1e7c:	44 00       	.word	0x0044	; ????
    1e7e:	5c 01       	movw	r10, r24
    1e80:	fc 00       	.word	0x00fc	; ????
    1e82:	00 00       	nop
    1e84:	00 00       	nop
    1e86:	00 00       	nop
    1e88:	44 00       	.word	0x0044	; ????
    1e8a:	5f 01       	movw	r10, r30
    1e8c:	02 01       	movw	r0, r4
    1e8e:	00 00       	nop
    1e90:	00 00       	nop
    1e92:	00 00       	nop
    1e94:	44 00       	.word	0x0044	; ????
    1e96:	60 01       	movw	r12, r0
    1e98:	06 01       	movw	r0, r12
    1e9a:	00 00       	nop
    1e9c:	00 00       	nop
    1e9e:	00 00       	nop
    1ea0:	44 00       	.word	0x0044	; ????
    1ea2:	63 01       	movw	r12, r6
    1ea4:	0c 01       	movw	r0, r24
    1ea6:	00 00       	nop
    1ea8:	00 00       	nop
    1eaa:	00 00       	nop
    1eac:	44 00       	.word	0x0044	; ????
    1eae:	68 01       	movw	r12, r16
    1eb0:	10 01       	movw	r2, r0
    1eb2:	00 00       	nop
    1eb4:	00 00       	nop
    1eb6:	00 00       	nop
    1eb8:	44 00       	.word	0x0044	; ????
    1eba:	1e 02       	muls	r17, r30
    1ebc:	22 01       	movw	r4, r4
    1ebe:	00 00       	nop
    1ec0:	00 00       	nop
    1ec2:	00 00       	nop
    1ec4:	44 00       	.word	0x0044	; ????
    1ec6:	1f 02       	muls	r17, r31
    1ec8:	30 01       	movw	r6, r0
    1eca:	00 00       	nop
    1ecc:	00 00       	nop
    1ece:	00 00       	nop
    1ed0:	44 00       	.word	0x0044	; ????
    1ed2:	20 02       	muls	r18, r16
    1ed4:	38 01       	movw	r6, r16
    1ed6:	00 00       	nop
    1ed8:	00 00       	nop
    1eda:	00 00       	nop
    1edc:	44 00       	.word	0x0044	; ????
    1ede:	2a 02       	muls	r18, r26
    1ee0:	3e 01       	movw	r6, r28
    1ee2:	00 00       	nop
    1ee4:	00 00       	nop
    1ee6:	00 00       	nop
    1ee8:	44 00       	.word	0x0044	; ????
    1eea:	2d 02       	muls	r18, r29
    1eec:	4e 01       	movw	r8, r28
    1eee:	00 00       	nop
    1ef0:	00 00       	nop
    1ef2:	00 00       	nop
    1ef4:	44 00       	.word	0x0044	; ????
    1ef6:	31 02       	muls	r19, r17
    1ef8:	5c 01       	movw	r10, r24
    1efa:	00 00       	nop
    1efc:	00 00       	nop
    1efe:	00 00       	nop
    1f00:	44 00       	.word	0x0044	; ????
    1f02:	36 02       	muls	r19, r22
    1f04:	64 01       	movw	r12, r8
    1f06:	00 00       	nop
    1f08:	00 00       	nop
    1f0a:	00 00       	nop
    1f0c:	44 00       	.word	0x0044	; ????
    1f0e:	37 02       	muls	r19, r23
    1f10:	6a 01       	movw	r12, r20
    1f12:	00 00       	nop
    1f14:	00 00       	nop
    1f16:	00 00       	nop
    1f18:	44 00       	.word	0x0044	; ????
    1f1a:	36 02       	muls	r19, r22
    1f1c:	78 01       	movw	r14, r16
    1f1e:	00 00       	nop
    1f20:	00 00       	nop
    1f22:	00 00       	nop
    1f24:	44 00       	.word	0x0044	; ????
    1f26:	37 02       	muls	r19, r23
    1f28:	80 01       	movw	r16, r0
    1f2a:	00 00       	nop
    1f2c:	00 00       	nop
    1f2e:	00 00       	nop
    1f30:	44 00       	.word	0x0044	; ????
    1f32:	39 02       	muls	r19, r25
    1f34:	88 01       	movw	r16, r16
    1f36:	00 00       	nop
    1f38:	00 00       	nop
    1f3a:	00 00       	nop
    1f3c:	44 00       	.word	0x0044	; ????
    1f3e:	3d 02       	muls	r19, r29
    1f40:	8e 01       	movw	r16, r28
    1f42:	00 00       	nop
    1f44:	00 00       	nop
    1f46:	00 00       	nop
    1f48:	44 00       	.word	0x0044	; ????
    1f4a:	3e 02       	muls	r19, r30
    1f4c:	94 01       	movw	r18, r8
    1f4e:	00 00       	nop
    1f50:	00 00       	nop
    1f52:	00 00       	nop
    1f54:	44 00       	.word	0x0044	; ????
    1f56:	3d 02       	muls	r19, r29
    1f58:	a2 01       	movw	r20, r4
    1f5a:	00 00       	nop
    1f5c:	00 00       	nop
    1f5e:	00 00       	nop
    1f60:	44 00       	.word	0x0044	; ????
    1f62:	3e 02       	muls	r19, r30
    1f64:	aa 01       	movw	r20, r20
    1f66:	00 00       	nop
    1f68:	00 00       	nop
    1f6a:	00 00       	nop
    1f6c:	44 00       	.word	0x0044	; ????
    1f6e:	3f 02       	muls	r19, r31
    1f70:	b2 01       	movw	r22, r4
    1f72:	00 00       	nop
    1f74:	00 00       	nop
    1f76:	00 00       	nop
    1f78:	44 00       	.word	0x0044	; ????
    1f7a:	42 02       	muls	r20, r18
    1f7c:	b6 01       	movw	r22, r12
    1f7e:	00 00       	nop
    1f80:	00 00       	nop
    1f82:	00 00       	nop
    1f84:	44 00       	.word	0x0044	; ????
    1f86:	44 02       	muls	r20, r20
    1f88:	bc 01       	movw	r22, r24
    1f8a:	00 00       	nop
    1f8c:	00 00       	nop
    1f8e:	00 00       	nop
    1f90:	44 00       	.word	0x0044	; ????
    1f92:	45 02       	muls	r20, r21
    1f94:	c6 01       	movw	r24, r12
    1f96:	00 00       	nop
    1f98:	00 00       	nop
    1f9a:	00 00       	nop
    1f9c:	44 00       	.word	0x0044	; ????
    1f9e:	43 02       	muls	r20, r19
    1fa0:	c8 01       	movw	r24, r16
    1fa2:	00 00       	nop
    1fa4:	00 00       	nop
    1fa6:	00 00       	nop
    1fa8:	44 00       	.word	0x0044	; ????
    1faa:	49 02       	muls	r20, r25
    1fac:	d4 01       	movw	r26, r8
    1fae:	00 00       	nop
    1fb0:	00 00       	nop
    1fb2:	00 00       	nop
    1fb4:	44 00       	.word	0x0044	; ????
    1fb6:	4a 02       	muls	r20, r26
    1fb8:	e8 01       	movw	r28, r16
    1fba:	00 00       	nop
    1fbc:	00 00       	nop
    1fbe:	00 00       	nop
    1fc0:	44 00       	.word	0x0044	; ????
    1fc2:	4b 02       	muls	r20, r27
    1fc4:	ec 01       	movw	r28, r24
    1fc6:	00 00       	nop
    1fc8:	00 00       	nop
    1fca:	00 00       	nop
    1fcc:	44 00       	.word	0x0044	; ????
    1fce:	48 02       	muls	r20, r24
    1fd0:	f0 01       	movw	r30, r0
    1fd2:	00 00       	nop
    1fd4:	00 00       	nop
    1fd6:	00 00       	nop
    1fd8:	44 00       	.word	0x0044	; ????
    1fda:	51 02       	muls	r21, r17
    1fdc:	f8 01       	movw	r30, r16
    1fde:	00 00       	nop
    1fe0:	00 00       	nop
    1fe2:	00 00       	nop
    1fe4:	44 00       	.word	0x0044	; ????
    1fe6:	52 02       	muls	r21, r18
    1fe8:	00 02       	muls	r16, r16
    1fea:	00 00       	nop
    1fec:	00 00       	nop
    1fee:	00 00       	nop
    1ff0:	44 00       	.word	0x0044	; ????
    1ff2:	53 02       	muls	r21, r19
    1ff4:	2c 02       	muls	r18, r28
    1ff6:	00 00       	nop
    1ff8:	00 00       	nop
    1ffa:	00 00       	nop
    1ffc:	44 00       	.word	0x0044	; ????
    1ffe:	54 02       	muls	r21, r20
    2000:	30 02       	muls	r19, r16
    2002:	00 00       	nop
    2004:	00 00       	nop
    2006:	00 00       	nop
    2008:	44 00       	.word	0x0044	; ????
    200a:	55 02       	muls	r21, r21
    200c:	34 02       	muls	r19, r20
    200e:	00 00       	nop
    2010:	00 00       	nop
    2012:	00 00       	nop
    2014:	44 00       	.word	0x0044	; ????
    2016:	56 02       	muls	r21, r22
    2018:	42 02       	muls	r20, r18
    201a:	00 00       	nop
    201c:	00 00       	nop
    201e:	00 00       	nop
    2020:	44 00       	.word	0x0044	; ????
    2022:	58 02       	muls	r21, r24
    2024:	46 02       	muls	r20, r22
    2026:	00 00       	nop
    2028:	00 00       	nop
    202a:	00 00       	nop
    202c:	44 00       	.word	0x0044	; ????
    202e:	5d 02       	muls	r21, r29
    2030:	5a 02       	muls	r21, r26
    2032:	00 00       	nop
    2034:	00 00       	nop
    2036:	00 00       	nop
    2038:	44 00       	.word	0x0044	; ????
    203a:	5e 02       	muls	r21, r30
    203c:	5e 02       	muls	r21, r30
    203e:	00 00       	nop
    2040:	00 00       	nop
    2042:	00 00       	nop
    2044:	44 00       	.word	0x0044	; ????
    2046:	63 02       	muls	r22, r19
    2048:	68 02       	muls	r22, r24
    204a:	00 00       	nop
    204c:	00 00       	nop
    204e:	00 00       	nop
    2050:	44 00       	.word	0x0044	; ????
    2052:	65 02       	muls	r22, r21
    2054:	6c 02       	muls	r22, r28
    2056:	00 00       	nop
    2058:	00 00       	nop
    205a:	00 00       	nop
    205c:	44 00       	.word	0x0044	; ????
    205e:	6a 02       	muls	r22, r26
    2060:	8e 02       	muls	r24, r30
    2062:	00 00       	nop
    2064:	00 00       	nop
    2066:	00 00       	nop
    2068:	44 00       	.word	0x0044	; ????
    206a:	6d 02       	muls	r22, r29
    206c:	90 02       	muls	r25, r16
    206e:	00 00       	nop
    2070:	00 00       	nop
    2072:	00 00       	nop
    2074:	44 00       	.word	0x0044	; ????
    2076:	6e 02       	muls	r22, r30
    2078:	92 02       	muls	r25, r18
    207a:	00 00       	nop
    207c:	00 00       	nop
    207e:	00 00       	nop
    2080:	44 00       	.word	0x0044	; ????
    2082:	72 02       	muls	r23, r18
    2084:	9a 02       	muls	r25, r26
    2086:	00 00       	nop
    2088:	00 00       	nop
    208a:	00 00       	nop
    208c:	44 00       	.word	0x0044	; ????
    208e:	73 02       	muls	r23, r19
    2090:	9c 02       	muls	r25, r28
    2092:	00 00       	nop
    2094:	00 00       	nop
    2096:	00 00       	nop
    2098:	44 00       	.word	0x0044	; ????
    209a:	76 02       	muls	r23, r22
    209c:	a2 02       	muls	r26, r18
    209e:	00 00       	nop
    20a0:	00 00       	nop
    20a2:	00 00       	nop
    20a4:	44 00       	.word	0x0044	; ????
    20a6:	7a 02       	muls	r23, r26
    20a8:	d4 02       	muls	r29, r20
    20aa:	00 00       	nop
    20ac:	00 00       	nop
    20ae:	00 00       	nop
    20b0:	44 00       	.word	0x0044	; ????
    20b2:	86 02       	muls	r24, r22
    20b4:	da 02       	muls	r29, r26
    20b6:	00 00       	nop
    20b8:	00 00       	nop
    20ba:	00 00       	nop
    20bc:	44 00       	.word	0x0044	; ????
    20be:	87 02       	muls	r24, r23
    20c0:	de 02       	muls	r29, r30
    20c2:	00 00       	nop
    20c4:	00 00       	nop
    20c6:	00 00       	nop
    20c8:	44 00       	.word	0x0044	; ????
    20ca:	88 02       	muls	r24, r24
    20cc:	e2 02       	muls	r30, r18
    20ce:	00 00       	nop
    20d0:	00 00       	nop
    20d2:	00 00       	nop
    20d4:	44 00       	.word	0x0044	; ????
    20d6:	8a 02       	muls	r24, r26
    20d8:	e6 02       	muls	r30, r22
    20da:	00 00       	nop
    20dc:	00 00       	nop
    20de:	00 00       	nop
    20e0:	44 00       	.word	0x0044	; ????
    20e2:	8b 02       	muls	r24, r27
    20e4:	ee 02       	muls	r30, r30
    20e6:	00 00       	nop
    20e8:	00 00       	nop
    20ea:	00 00       	nop
    20ec:	44 00       	.word	0x0044	; ????
    20ee:	8e 02       	muls	r24, r30
    20f0:	fa 02       	muls	r31, r26
    20f2:	00 00       	nop
    20f4:	00 00       	nop
    20f6:	00 00       	nop
    20f8:	44 00       	.word	0x0044	; ????
    20fa:	8f 02       	muls	r24, r31
    20fc:	fe 02       	muls	r31, r30
    20fe:	00 00       	nop
    2100:	00 00       	nop
    2102:	00 00       	nop
    2104:	44 00       	.word	0x0044	; ????
    2106:	90 02       	muls	r25, r16
    2108:	0a 03       	fmul	r16, r18
    210a:	00 00       	nop
    210c:	00 00       	nop
    210e:	00 00       	nop
    2110:	44 00       	.word	0x0044	; ????
    2112:	92 02       	muls	r25, r18
    2114:	10 03       	mulsu	r17, r16
    2116:	00 00       	nop
    2118:	00 00       	nop
    211a:	00 00       	nop
    211c:	44 00       	.word	0x0044	; ????
    211e:	93 02       	muls	r25, r19
    2120:	12 03       	mulsu	r17, r18
    2122:	00 00       	nop
    2124:	00 00       	nop
    2126:	00 00       	nop
    2128:	44 00       	.word	0x0044	; ????
    212a:	96 02       	muls	r25, r22
    212c:	18 03       	fmul	r17, r16
    212e:	00 00       	nop
    2130:	00 00       	nop
    2132:	00 00       	nop
    2134:	44 00       	.word	0x0044	; ????
    2136:	97 02       	muls	r25, r23
    2138:	1e 03       	fmul	r17, r22
    213a:	00 00       	nop
    213c:	00 00       	nop
    213e:	00 00       	nop
    2140:	44 00       	.word	0x0044	; ????
    2142:	9a 02       	muls	r25, r26
    2144:	20 03       	mulsu	r18, r16
    2146:	00 00       	nop
    2148:	00 00       	nop
    214a:	00 00       	nop
    214c:	44 00       	.word	0x0044	; ????
    214e:	9b 02       	muls	r25, r27
    2150:	26 03       	mulsu	r18, r22
    2152:	00 00       	nop
    2154:	00 00       	nop
    2156:	00 00       	nop
    2158:	44 00       	.word	0x0044	; ????
    215a:	9d 02       	muls	r25, r29
    215c:	2a 03       	fmul	r18, r18
    215e:	00 00       	nop
    2160:	00 00       	nop
    2162:	00 00       	nop
    2164:	44 00       	.word	0x0044	; ????
    2166:	9e 02       	muls	r25, r30
    2168:	32 03       	mulsu	r19, r18
    216a:	00 00       	nop
    216c:	00 00       	nop
    216e:	00 00       	nop
    2170:	44 00       	.word	0x0044	; ????
    2172:	a3 02       	muls	r26, r19
    2174:	3c 03       	fmul	r19, r20
    2176:	00 00       	nop
    2178:	00 00       	nop
    217a:	00 00       	nop
    217c:	44 00       	.word	0x0044	; ????
    217e:	a4 02       	muls	r26, r20
    2180:	46 03       	mulsu	r20, r22
    2182:	00 00       	nop
    2184:	00 00       	nop
    2186:	00 00       	nop
    2188:	44 00       	.word	0x0044	; ????
    218a:	a2 02       	muls	r26, r18
    218c:	48 03       	fmul	r20, r16
    218e:	00 00       	nop
    2190:	00 00       	nop
    2192:	00 00       	nop
    2194:	44 00       	.word	0x0044	; ????
    2196:	a8 02       	muls	r26, r24
    2198:	4e 03       	fmul	r20, r22
    219a:	00 00       	nop
    219c:	00 00       	nop
    219e:	00 00       	nop
    21a0:	44 00       	.word	0x0044	; ????
    21a2:	aa 02       	muls	r26, r26
    21a4:	58 03       	fmul	r21, r16
    21a6:	00 00       	nop
    21a8:	00 00       	nop
    21aa:	00 00       	nop
    21ac:	44 00       	.word	0x0044	; ????
    21ae:	ab 02       	muls	r26, r27
    21b0:	5c 03       	fmul	r21, r20
    21b2:	00 00       	nop
    21b4:	00 00       	nop
    21b6:	00 00       	nop
    21b8:	44 00       	.word	0x0044	; ????
    21ba:	ac 02       	muls	r26, r28
    21bc:	66 03       	mulsu	r22, r22
    21be:	00 00       	nop
    21c0:	00 00       	nop
    21c2:	00 00       	nop
    21c4:	44 00       	.word	0x0044	; ????
    21c6:	ad 02       	muls	r26, r29
    21c8:	6a 03       	fmul	r22, r18
    21ca:	00 00       	nop
    21cc:	00 00       	nop
    21ce:	00 00       	nop
    21d0:	44 00       	.word	0x0044	; ????
    21d2:	ae 02       	muls	r26, r30
    21d4:	7a 03       	fmul	r23, r18
    21d6:	00 00       	nop
    21d8:	00 00       	nop
    21da:	00 00       	nop
    21dc:	44 00       	.word	0x0044	; ????
    21de:	b0 02       	muls	r27, r16
    21e0:	80 03       	fmuls	r16, r16
    21e2:	00 00       	nop
    21e4:	00 00       	nop
    21e6:	00 00       	nop
    21e8:	44 00       	.word	0x0044	; ????
    21ea:	b1 02       	muls	r27, r17
    21ec:	8a 03       	fmulsu	r16, r18
    21ee:	00 00       	nop
    21f0:	00 00       	nop
    21f2:	00 00       	nop
    21f4:	44 00       	.word	0x0044	; ????
    21f6:	b2 02       	muls	r27, r18
    21f8:	8e 03       	fmulsu	r16, r22
    21fa:	00 00       	nop
    21fc:	00 00       	nop
    21fe:	00 00       	nop
    2200:	44 00       	.word	0x0044	; ????
    2202:	b6 02       	muls	r27, r22
    2204:	98 03       	fmulsu	r17, r16
    2206:	00 00       	nop
    2208:	00 00       	nop
    220a:	00 00       	nop
    220c:	44 00       	.word	0x0044	; ????
    220e:	b7 02       	muls	r27, r23
    2210:	a2 03       	fmuls	r18, r18
    2212:	00 00       	nop
    2214:	00 00       	nop
    2216:	00 00       	nop
    2218:	44 00       	.word	0x0044	; ????
    221a:	b5 02       	muls	r27, r21
    221c:	a4 03       	fmuls	r18, r20
    221e:	00 00       	nop
    2220:	00 00       	nop
    2222:	00 00       	nop
    2224:	44 00       	.word	0x0044	; ????
    2226:	bb 02       	muls	r27, r27
    2228:	a8 03       	fmulsu	r18, r16
    222a:	00 00       	nop
    222c:	00 00       	nop
    222e:	00 00       	nop
    2230:	44 00       	.word	0x0044	; ????
    2232:	bc 02       	muls	r27, r28
    2234:	ba 03       	fmulsu	r19, r18
    2236:	00 00       	nop
    2238:	00 00       	nop
    223a:	00 00       	nop
    223c:	44 00       	.word	0x0044	; ????
    223e:	c2 02       	muls	r28, r18
    2240:	c0 03       	fmuls	r20, r16
    2242:	00 00       	nop
    2244:	00 00       	nop
    2246:	00 00       	nop
    2248:	44 00       	.word	0x0044	; ????
    224a:	c3 02       	muls	r28, r19
    224c:	ca 03       	fmulsu	r20, r18
    224e:	00 00       	nop
    2250:	00 00       	nop
    2252:	00 00       	nop
    2254:	44 00       	.word	0x0044	; ????
    2256:	c1 02       	muls	r28, r17
    2258:	cc 03       	fmulsu	r20, r20
    225a:	00 00       	nop
    225c:	00 00       	nop
    225e:	00 00       	nop
    2260:	44 00       	.word	0x0044	; ????
    2262:	c8 02       	muls	r28, r24
    2264:	d2 03       	fmuls	r21, r18
    2266:	00 00       	nop
    2268:	00 00       	nop
    226a:	00 00       	nop
    226c:	44 00       	.word	0x0044	; ????
    226e:	c9 02       	muls	r28, r25
    2270:	d8 03       	fmulsu	r21, r16
    2272:	00 00       	nop
    2274:	84 0e       	add	r8, r20
    2276:	00 00       	nop
    2278:	40 00       	.word	0x0040	; ????
    227a:	1e 01       	movw	r2, r28
    227c:	18 00       	.word	0x0018	; ????
    227e:	00 00       	nop
    2280:	8e 0e       	add	r8, r30
    2282:	00 00       	nop
    2284:	40 00       	.word	0x0040	; ????
    2286:	1f 01       	movw	r2, r30
    2288:	0f 00       	.word	0x000f	; ????
    228a:	00 00       	nop
    228c:	9c 0e       	add	r9, r28
    228e:	00 00       	nop
    2290:	40 00       	.word	0x0040	; ????
    2292:	20 01       	movw	r4, r0
    2294:	0e 00       	.word	0x000e	; ????
    2296:	00 00       	nop
    2298:	aa 0e       	add	r10, r26
    229a:	00 00       	nop
    229c:	40 00       	.word	0x0040	; ????
    229e:	21 01       	movw	r4, r2
    22a0:	09 00       	.word	0x0009	; ????
    22a2:	00 00       	nop
    22a4:	b7 0e       	add	r11, r23
    22a6:	00 00       	nop
    22a8:	80 00       	.word	0x0080	; ????
    22aa:	22 01       	movw	r4, r4
    22ac:	01 00       	.word	0x0001	; ????
    22ae:	00 00       	nop
    22b0:	00 00       	nop
    22b2:	00 00       	nop
    22b4:	c0 00       	.word	0x00c0	; ????
    22b6:	00 00       	nop
    22b8:	00 00       	nop
    22ba:	00 00       	nop
    22bc:	ea 0e       	add	r14, r26
    22be:	00 00       	nop
    22c0:	40 00       	.word	0x0040	; ????
    22c2:	27 02       	muls	r18, r23
    22c4:	0c 00       	.word	0x000c	; ????
    22c6:	00 00       	nop
    22c8:	f6 0e       	add	r15, r22
    22ca:	00 00       	nop
    22cc:	40 00       	.word	0x0040	; ????
    22ce:	28 02       	muls	r18, r24
    22d0:	10 00       	.word	0x0010	; ????
    22d2:	00 00       	nop
    22d4:	00 00       	nop
    22d6:	00 00       	nop
    22d8:	c0 00       	.word	0x00c0	; ????
    22da:	00 00       	nop
    22dc:	50 00       	.word	0x0050	; ????
    22de:	00 00       	nop
    22e0:	00 00       	nop
    22e2:	00 00       	nop
    22e4:	e0 00       	.word	0x00e0	; ????
    22e6:	00 00       	nop
    22e8:	58 00       	.word	0x0058	; ????
    22ea:	00 00       	nop
    22ec:	02 0f       	add	r16, r18
    22ee:	00 00       	nop
    22f0:	40 00       	.word	0x0040	; ????
    22f2:	2c 01       	movw	r4, r24
    22f4:	18 00       	.word	0x0018	; ????
    22f6:	00 00       	nop
    22f8:	00 00       	nop
    22fa:	00 00       	nop
    22fc:	c0 00       	.word	0x00c0	; ????
    22fe:	00 00       	nop
    2300:	58 00       	.word	0x0058	; ????
    2302:	00 00       	nop
    2304:	00 00       	nop
    2306:	00 00       	nop
    2308:	e0 00       	.word	0x00e0	; ????
    230a:	00 00       	nop
    230c:	68 00       	.word	0x0068	; ????
    230e:	00 00       	nop
    2310:	02 0f       	add	r16, r18
    2312:	00 00       	nop
    2314:	40 00       	.word	0x0040	; ????
    2316:	2f 01       	movw	r4, r30
    2318:	18 00       	.word	0x0018	; ????
    231a:	00 00       	nop
    231c:	00 00       	nop
    231e:	00 00       	nop
    2320:	c0 00       	.word	0x00c0	; ????
    2322:	00 00       	nop
    2324:	72 00       	.word	0x0072	; ????
    2326:	00 00       	nop
    2328:	00 00       	nop
    232a:	00 00       	nop
    232c:	e0 00       	.word	0x00e0	; ????
    232e:	00 00       	nop
    2330:	7c 00       	.word	0x007c	; ????
    2332:	00 00       	nop
    2334:	ea 0e       	add	r14, r26
    2336:	00 00       	nop
    2338:	40 00       	.word	0x0040	; ????
    233a:	27 02       	muls	r18, r23
    233c:	0c 00       	.word	0x000c	; ????
    233e:	00 00       	nop
    2340:	f6 0e       	add	r15, r22
    2342:	00 00       	nop
    2344:	40 00       	.word	0x0040	; ????
    2346:	28 02       	muls	r18, r24
    2348:	10 00       	.word	0x0010	; ????
    234a:	00 00       	nop
    234c:	00 00       	nop
    234e:	00 00       	nop
    2350:	c0 00       	.word	0x00c0	; ????
    2352:	00 00       	nop
    2354:	3e 01       	movw	r6, r28
    2356:	00 00       	nop
    2358:	00 00       	nop
    235a:	00 00       	nop
    235c:	e0 00       	.word	0x00e0	; ????
    235e:	00 00       	nop
    2360:	f8 01       	movw	r30, r16
    2362:	00 00       	nop
    2364:	d0 08       	sbc	r13, r0
    2366:	00 00       	nop
    2368:	40 00       	.word	0x0040	; ????
    236a:	52 02       	muls	r21, r18
    236c:	12 00       	.word	0x0012	; ????
    236e:	00 00       	nop
    2370:	00 00       	nop
    2372:	00 00       	nop
    2374:	c0 00       	.word	0x00c0	; ????
    2376:	00 00       	nop
    2378:	00 02       	muls	r16, r16
    237a:	00 00       	nop
    237c:	00 00       	nop
    237e:	00 00       	nop
    2380:	e0 00       	.word	0x00e0	; ????
    2382:	00 00       	nop
    2384:	5a 02       	muls	r21, r26
    2386:	00 00       	nop
    2388:	0e 0f       	add	r16, r30
    238a:	00 00       	nop
    238c:	40 00       	.word	0x0040	; ????
    238e:	5b 02       	muls	r21, r27
    2390:	12 00       	.word	0x0012	; ????
    2392:	00 00       	nop
    2394:	00 00       	nop
    2396:	00 00       	nop
    2398:	c0 00       	.word	0x00c0	; ????
    239a:	00 00       	nop
    239c:	5a 02       	muls	r21, r26
    239e:	00 00       	nop
    23a0:	00 00       	nop
    23a2:	00 00       	nop
    23a4:	e0 00       	.word	0x00e0	; ????
    23a6:	00 00       	nop
    23a8:	da 02       	muls	r29, r26
    23aa:	00 00       	nop
    23ac:	1a 0f       	add	r17, r26
    23ae:	00 00       	nop
    23b0:	40 00       	.word	0x0040	; ????
    23b2:	83 02       	muls	r24, r19
    23b4:	11 00       	.word	0x0011	; ????
    23b6:	00 00       	nop
    23b8:	00 00       	nop
    23ba:	00 00       	nop
    23bc:	c0 00       	.word	0x00c0	; ????
    23be:	00 00       	nop
    23c0:	da 02       	muls	r29, r26
    23c2:	00 00       	nop
    23c4:	26 0f       	add	r18, r22
    23c6:	00 00       	nop
    23c8:	40 00       	.word	0x0040	; ????
    23ca:	af 02       	muls	r26, r31
    23cc:	18 00       	.word	0x0018	; ????
    23ce:	00 00       	nop
    23d0:	00 00       	nop
    23d2:	00 00       	nop
    23d4:	c0 00       	.word	0x00c0	; ????
    23d6:	00 00       	nop
    23d8:	80 03       	fmuls	r16, r16
    23da:	00 00       	nop
    23dc:	00 00       	nop
    23de:	00 00       	nop
    23e0:	e0 00       	.word	0x00e0	; ????
    23e2:	00 00       	nop
    23e4:	98 03       	fmulsu	r17, r16
    23e6:	00 00       	nop
    23e8:	00 00       	nop
    23ea:	00 00       	nop
    23ec:	e0 00       	.word	0x00e0	; ????
    23ee:	00 00       	nop
    23f0:	c0 03       	fmuls	r20, r16
    23f2:	00 00       	nop
    23f4:	00 00       	nop
    23f6:	00 00       	nop
    23f8:	e0 00       	.word	0x00e0	; ????
    23fa:	00 00       	nop
    23fc:	0c 04       	cpc	r0, r12
    23fe:	00 00       	nop
    2400:	00 00       	nop
    2402:	00 00       	nop
    2404:	24 00       	.word	0x0024	; ????
    2406:	00 00       	nop
    2408:	0c 04       	cpc	r0, r12
    240a:	00 00       	nop
    240c:	00 00       	nop
    240e:	00 00       	nop
    2410:	4e 00       	.word	0x004e	; ????
    2412:	00 00       	nop
    2414:	e0 28       	or	r14, r0
    2416:	00 00       	nop
    2418:	00 00       	nop
    241a:	00 00       	nop
    241c:	64 00       	.word	0x0064	; ????
    241e:	00 00       	nop
    2420:	da 1f       	adc	r29, r26
    2422:	00 00       	nop
    2424:	30 0f       	add	r19, r16
    2426:	00 00       	nop
    2428:	64 00       	.word	0x0064	; ????
    242a:	00 00       	nop
    242c:	da 1f       	adc	r29, r26
    242e:	00 00       	nop
    2430:	40 0f       	add	r20, r16
    2432:	00 00       	nop
    2434:	84 00       	.word	0x0084	; ????
    2436:	00 00       	nop
    2438:	e0 28       	or	r14, r0
    243a:	00 00       	nop
    243c:	00 00       	nop
    243e:	00 00       	nop
    2440:	44 00       	.word	0x0044	; ????
    2442:	3c 00       	.word	0x003c	; ????
    2444:	e0 28       	or	r14, r0
    2446:	00 00       	nop
    2448:	00 00       	nop
    244a:	00 00       	nop
    244c:	44 00       	.word	0x0044	; ????
    244e:	3e 00       	.word	0x003e	; ????
    2450:	e2 28       	or	r14, r2
    2452:	00 00       	nop
    2454:	00 00       	nop
    2456:	00 00       	nop
    2458:	44 00       	.word	0x0044	; ????
    245a:	3f 00       	.word	0x003f	; ????
    245c:	e4 28       	or	r14, r4
    245e:	00 00       	nop
    2460:	00 00       	nop
    2462:	00 00       	nop
    2464:	44 00       	.word	0x0044	; ????
    2466:	40 00       	.word	0x0040	; ????
    2468:	e6 28       	or	r14, r6
    246a:	00 00       	nop
    246c:	00 00       	nop
    246e:	00 00       	nop
    2470:	44 00       	.word	0x0044	; ????
    2472:	41 00       	.word	0x0041	; ????
    2474:	e8 28       	or	r14, r8
    2476:	00 00       	nop
    2478:	00 00       	nop
    247a:	00 00       	nop
    247c:	44 00       	.word	0x0044	; ????
    247e:	42 00       	.word	0x0042	; ????
    2480:	ea 28       	or	r14, r10
    2482:	00 00       	nop
    2484:	00 00       	nop
    2486:	00 00       	nop
    2488:	44 00       	.word	0x0044	; ????
    248a:	45 00       	.word	0x0045	; ????
    248c:	ec 28       	or	r14, r12
    248e:	00 00       	nop
    2490:	00 00       	nop
    2492:	00 00       	nop
    2494:	44 00       	.word	0x0044	; ????
    2496:	46 00       	.word	0x0046	; ????
    2498:	ee 28       	or	r14, r14
    249a:	00 00       	nop
    249c:	00 00       	nop
    249e:	00 00       	nop
    24a0:	44 00       	.word	0x0044	; ????
    24a2:	47 00       	.word	0x0047	; ????
    24a4:	f0 28       	or	r15, r0
    24a6:	00 00       	nop
    24a8:	00 00       	nop
    24aa:	00 00       	nop
    24ac:	44 00       	.word	0x0044	; ????
    24ae:	48 00       	.word	0x0048	; ????
    24b0:	f2 28       	or	r15, r2
    24b2:	00 00       	nop
    24b4:	00 00       	nop
    24b6:	00 00       	nop
    24b8:	44 00       	.word	0x0044	; ????
    24ba:	49 00       	.word	0x0049	; ????
    24bc:	f4 28       	or	r15, r4
    24be:	00 00       	nop
    24c0:	63 0f       	add	r22, r19
    24c2:	00 00       	nop
    24c4:	64 00       	.word	0x0064	; ????
    24c6:	00 00       	nop
    24c8:	da 1f       	adc	r29, r26
    24ca:	00 00       	nop
    24cc:	73 0f       	add	r23, r19
    24ce:	00 00       	nop
    24d0:	84 00       	.word	0x0084	; ????
    24d2:	00 00       	nop
    24d4:	f6 28       	or	r15, r6
    24d6:	00 00       	nop
    24d8:	00 00       	nop
    24da:	00 00       	nop
    24dc:	44 00       	.word	0x0044	; ????
    24de:	3a 00       	.word	0x003a	; ????
    24e0:	f6 28       	or	r15, r6
    24e2:	00 00       	nop
    24e4:	00 00       	nop
    24e6:	00 00       	nop
    24e8:	44 00       	.word	0x0044	; ????
    24ea:	3c 00       	.word	0x003c	; ????
    24ec:	f8 28       	or	r15, r8
    24ee:	00 00       	nop
    24f0:	00 00       	nop
    24f2:	00 00       	nop
    24f4:	44 00       	.word	0x0044	; ????
    24f6:	3d 00       	.word	0x003d	; ????
    24f8:	fa 28       	or	r15, r10
    24fa:	00 00       	nop
    24fc:	00 00       	nop
    24fe:	00 00       	nop
    2500:	44 00       	.word	0x0044	; ????
    2502:	3e 00       	.word	0x003e	; ????
    2504:	fc 28       	or	r15, r12
    2506:	00 00       	nop
    2508:	00 00       	nop
    250a:	00 00       	nop
    250c:	44 00       	.word	0x0044	; ????
    250e:	3f 00       	.word	0x003f	; ????
    2510:	fe 28       	or	r15, r14
    2512:	00 00       	nop
    2514:	00 00       	nop
    2516:	00 00       	nop
    2518:	44 00       	.word	0x0044	; ????
    251a:	40 00       	.word	0x0040	; ????
    251c:	00 29       	or	r16, r0
    251e:	00 00       	nop
    2520:	00 00       	nop
    2522:	00 00       	nop
    2524:	44 00       	.word	0x0044	; ????
    2526:	43 00       	.word	0x0043	; ????
    2528:	02 29       	or	r16, r2
    252a:	00 00       	nop
    252c:	00 00       	nop
    252e:	00 00       	nop
    2530:	44 00       	.word	0x0044	; ????
    2532:	44 00       	.word	0x0044	; ????
    2534:	04 29       	or	r16, r4
    2536:	00 00       	nop
    2538:	00 00       	nop
    253a:	00 00       	nop
    253c:	44 00       	.word	0x0044	; ????
    253e:	45 00       	.word	0x0045	; ????
    2540:	06 29       	or	r16, r6
    2542:	00 00       	nop
    2544:	00 00       	nop
    2546:	00 00       	nop
    2548:	44 00       	.word	0x0044	; ????
    254a:	46 00       	.word	0x0046	; ????
    254c:	08 29       	or	r16, r8
    254e:	00 00       	nop
    2550:	00 00       	nop
    2552:	00 00       	nop
    2554:	44 00       	.word	0x0044	; ????
    2556:	47 00       	.word	0x0047	; ????
    2558:	0a 29       	or	r16, r10
    255a:	00 00       	nop
    255c:	54 00       	.word	0x0054	; ????
    255e:	00 00       	nop
    2560:	64 00       	.word	0x0064	; ????
    2562:	02 00       	.word	0x0002	; ????
    2564:	da 1f       	adc	r29, r26
    2566:	00 00       	nop
    2568:	92 0f       	add	r25, r18
    256a:	00 00       	nop
    256c:	64 00       	.word	0x0064	; ????
    256e:	02 00       	.word	0x0002	; ????
    2570:	da 1f       	adc	r29, r26
    2572:	00 00       	nop
    2574:	9e 00       	.word	0x009e	; ????
    2576:	00 00       	nop
    2578:	3c 00       	.word	0x003c	; ????
    257a:	00 00       	nop
    257c:	00 00       	nop
    257e:	00 00       	nop
    2580:	ad 00       	.word	0x00ad	; ????
    2582:	00 00       	nop
    2584:	80 00       	.word	0x0080	; ????
    2586:	01 00       	.word	0x0001	; ????
    2588:	00 00       	nop
    258a:	00 00       	nop
    258c:	cd 00       	.word	0x00cd	; ????
    258e:	00 00       	nop
    2590:	80 00       	.word	0x0080	; ????
    2592:	01 00       	.word	0x0001	; ????
    2594:	00 00       	nop
    2596:	00 00       	nop
    2598:	e7 00       	.word	0x00e7	; ????
    259a:	00 00       	nop
    259c:	80 00       	.word	0x0080	; ????
    259e:	01 00       	.word	0x0001	; ????
    25a0:	00 00       	nop
    25a2:	00 00       	nop
    25a4:	1e 01       	movw	r2, r28
    25a6:	00 00       	nop
    25a8:	80 00       	.word	0x0080	; ????
    25aa:	01 00       	.word	0x0001	; ????
    25ac:	00 00       	nop
    25ae:	00 00       	nop
    25b0:	44 01       	movw	r8, r8
    25b2:	00 00       	nop
    25b4:	80 00       	.word	0x0080	; ????
    25b6:	01 00       	.word	0x0001	; ????
    25b8:	00 00       	nop
    25ba:	00 00       	nop
    25bc:	79 01       	movw	r14, r18
    25be:	00 00       	nop
    25c0:	80 00       	.word	0x0080	; ????
    25c2:	01 00       	.word	0x0001	; ????
    25c4:	00 00       	nop
    25c6:	00 00       	nop
    25c8:	ca 01       	movw	r24, r20
    25ca:	00 00       	nop
    25cc:	80 00       	.word	0x0080	; ????
    25ce:	01 00       	.word	0x0001	; ????
    25d0:	00 00       	nop
    25d2:	00 00       	nop
    25d4:	0f 02       	muls	r16, r31
    25d6:	00 00       	nop
    25d8:	80 00       	.word	0x0080	; ????
    25da:	01 00       	.word	0x0001	; ????
    25dc:	00 00       	nop
    25de:	00 00       	nop
    25e0:	35 02       	muls	r19, r21
    25e2:	00 00       	nop
    25e4:	80 00       	.word	0x0080	; ????
    25e6:	01 00       	.word	0x0001	; ????
    25e8:	00 00       	nop
    25ea:	00 00       	nop
    25ec:	61 02       	muls	r22, r17
    25ee:	00 00       	nop
    25f0:	80 00       	.word	0x0080	; ????
    25f2:	01 00       	.word	0x0001	; ????
    25f4:	00 00       	nop
    25f6:	00 00       	nop
    25f8:	8b 02       	muls	r24, r27
    25fa:	00 00       	nop
    25fc:	80 00       	.word	0x0080	; ????
    25fe:	01 00       	.word	0x0001	; ????
    2600:	00 00       	nop
    2602:	00 00       	nop
    2604:	b4 02       	muls	r27, r20
    2606:	00 00       	nop
    2608:	80 00       	.word	0x0080	; ????
    260a:	01 00       	.word	0x0001	; ????
    260c:	00 00       	nop
    260e:	00 00       	nop
    2610:	ce 02       	muls	r28, r30
    2612:	00 00       	nop
    2614:	80 00       	.word	0x0080	; ????
    2616:	01 00       	.word	0x0001	; ????
    2618:	00 00       	nop
    261a:	00 00       	nop
    261c:	e9 02       	muls	r30, r25
    261e:	00 00       	nop
    2620:	80 00       	.word	0x0080	; ????
    2622:	01 00       	.word	0x0001	; ????
    2624:	00 00       	nop
    2626:	00 00       	nop
    2628:	09 03       	fmul	r16, r17
    262a:	00 00       	nop
    262c:	80 00       	.word	0x0080	; ????
    262e:	01 00       	.word	0x0001	; ????
    2630:	00 00       	nop
    2632:	00 00       	nop
    2634:	2e 0a       	sbc	r2, r30
    2636:	00 00       	nop
    2638:	c2 00       	.word	0x00c2	; ????
    263a:	00 00       	nop
    263c:	2d 2b       	or	r18, r29
    263e:	00 00       	nop
    2640:	46 04       	cpc	r4, r6
    2642:	00 00       	nop
    2644:	c2 00       	.word	0x00c2	; ????
    2646:	00 00       	nop
    2648:	25 0f       	add	r18, r21
    264a:	00 00       	nop
    264c:	62 04       	cpc	r6, r2
    264e:	00 00       	nop
    2650:	c2 00       	.word	0x00c2	; ????
    2652:	00 00       	nop
    2654:	33 b8       	out	0x03, r3	; 3
    2656:	00 00       	nop
    2658:	cd 09       	sbc	r28, r13
    265a:	00 00       	nop
    265c:	c2 00       	.word	0x00c2	; ????
    265e:	00 00       	nop
    2660:	89 0e       	add	r8, r25
    2662:	00 00       	nop
    2664:	37 03       	mulsu	r19, r23
    2666:	00 00       	nop
    2668:	c2 00       	.word	0x00c2	; ????
    266a:	00 00       	nop
    266c:	d8 04       	cpc	r13, r8
    266e:	00 00       	nop
    2670:	ae 0f       	add	r26, r30
    2672:	00 00       	nop
    2674:	24 00       	.word	0x0024	; ????
    2676:	27 00       	.word	0x0027	; ????
    2678:	0c 29       	or	r16, r12
    267a:	00 00       	nop
    267c:	bb 0f       	add	r27, r27
    267e:	00 00       	nop
    2680:	40 00       	.word	0x0040	; ????
    2682:	26 00       	.word	0x0026	; ????
    2684:	10 00       	.word	0x0010	; ????
    2686:	00 00       	nop
    2688:	c4 0f       	add	r28, r20
    268a:	00 00       	nop
    268c:	40 00       	.word	0x0040	; ????
    268e:	26 00       	.word	0x0026	; ????
    2690:	1c 00       	.word	0x001c	; ????
    2692:	00 00       	nop
    2694:	00 00       	nop
    2696:	00 00       	nop
    2698:	2e 00       	.word	0x002e	; ????
    269a:	00 00       	nop
    269c:	0c 29       	or	r16, r12
    269e:	00 00       	nop
    26a0:	00 00       	nop
    26a2:	00 00       	nop
    26a4:	44 00       	.word	0x0044	; ????
    26a6:	29 00       	.word	0x0029	; ????
    26a8:	00 00       	nop
    26aa:	00 00       	nop
    26ac:	00 00       	nop
    26ae:	00 00       	nop
    26b0:	44 00       	.word	0x0044	; ????
    26b2:	29 00       	.word	0x0029	; ????
    26b4:	0c 00       	.word	0x000c	; ????
    26b6:	00 00       	nop
    26b8:	00 00       	nop
    26ba:	00 00       	nop
    26bc:	44 00       	.word	0x0044	; ????
    26be:	2c 00       	.word	0x002c	; ????
    26c0:	12 00       	.word	0x0012	; ????
    26c2:	00 00       	nop
    26c4:	00 00       	nop
    26c6:	00 00       	nop
    26c8:	44 00       	.word	0x0044	; ????
    26ca:	2d 00       	.word	0x002d	; ????
    26cc:	16 00       	.word	0x0016	; ????
    26ce:	00 00       	nop
    26d0:	00 00       	nop
    26d2:	00 00       	nop
    26d4:	44 00       	.word	0x0044	; ????
    26d6:	2e 00       	.word	0x002e	; ????
    26d8:	24 00       	.word	0x0024	; ????
    26da:	00 00       	nop
    26dc:	00 00       	nop
    26de:	00 00       	nop
    26e0:	44 00       	.word	0x0044	; ????
    26e2:	32 00       	.word	0x0032	; ????
    26e4:	30 00       	.word	0x0030	; ????
    26e6:	00 00       	nop
    26e8:	00 00       	nop
    26ea:	00 00       	nop
    26ec:	44 00       	.word	0x0044	; ????
    26ee:	33 00       	.word	0x0033	; ????
    26f0:	3c 00       	.word	0x003c	; ????
    26f2:	00 00       	nop
    26f4:	00 00       	nop
    26f6:	00 00       	nop
    26f8:	44 00       	.word	0x0044	; ????
    26fa:	34 00       	.word	0x0034	; ????
    26fc:	48 00       	.word	0x0048	; ????
    26fe:	00 00       	nop
    2700:	00 00       	nop
    2702:	00 00       	nop
    2704:	44 00       	.word	0x0044	; ????
    2706:	38 00       	.word	0x0038	; ????
    2708:	4c 00       	.word	0x004c	; ????
    270a:	00 00       	nop
    270c:	00 00       	nop
    270e:	00 00       	nop
    2710:	24 00       	.word	0x0024	; ????
    2712:	00 00       	nop
    2714:	58 00       	.word	0x0058	; ????
    2716:	00 00       	nop
    2718:	00 00       	nop
    271a:	00 00       	nop
    271c:	4e 00       	.word	0x004e	; ????
    271e:	00 00       	nop
    2720:	64 29       	or	r22, r4
    2722:	00 00       	nop
    2724:	00 00       	nop
    2726:	00 00       	nop
    2728:	64 00       	.word	0x0064	; ????
    272a:	00 00       	nop
    272c:	da 1f       	adc	r29, r26
    272e:	00 00       	nop
    2730:	da 0f       	add	r29, r26
    2732:	00 00       	nop
    2734:	64 00       	.word	0x0064	; ????
    2736:	00 00       	nop
    2738:	da 1f       	adc	r29, r26
    273a:	00 00       	nop
    273c:	ea 0f       	add	r30, r26
    273e:	00 00       	nop
    2740:	84 00       	.word	0x0084	; ????
    2742:	00 00       	nop
    2744:	64 29       	or	r22, r4
    2746:	00 00       	nop
    2748:	00 00       	nop
    274a:	00 00       	nop
    274c:	44 00       	.word	0x0044	; ????
    274e:	4e 00       	.word	0x004e	; ????
    2750:	64 29       	or	r22, r4
    2752:	00 00       	nop
    2754:	00 00       	nop
    2756:	00 00       	nop
    2758:	44 00       	.word	0x0044	; ????
    275a:	4f 00       	.word	0x004f	; ????
    275c:	66 29       	or	r22, r6
    275e:	00 00       	nop
    2760:	00 00       	nop
    2762:	00 00       	nop
    2764:	44 00       	.word	0x0044	; ????
    2766:	50 00       	.word	0x0050	; ????
    2768:	68 29       	or	r22, r8
    276a:	00 00       	nop
    276c:	00 00       	nop
    276e:	00 00       	nop
    2770:	44 00       	.word	0x0044	; ????
    2772:	51 00       	.word	0x0051	; ????
    2774:	6a 29       	or	r22, r10
    2776:	00 00       	nop
    2778:	00 00       	nop
    277a:	00 00       	nop
    277c:	44 00       	.word	0x0044	; ????
    277e:	52 00       	.word	0x0052	; ????
    2780:	6c 29       	or	r22, r12
    2782:	00 00       	nop
    2784:	00 00       	nop
    2786:	00 00       	nop
    2788:	44 00       	.word	0x0044	; ????
    278a:	53 00       	.word	0x0053	; ????
    278c:	6e 29       	or	r22, r14
    278e:	00 00       	nop
    2790:	00 00       	nop
    2792:	00 00       	nop
    2794:	44 00       	.word	0x0044	; ????
    2796:	56 00       	.word	0x0056	; ????
    2798:	70 29       	or	r23, r0
    279a:	00 00       	nop
    279c:	00 00       	nop
    279e:	00 00       	nop
    27a0:	44 00       	.word	0x0044	; ????
    27a2:	58 00       	.word	0x0058	; ????
    27a4:	72 29       	or	r23, r2
    27a6:	00 00       	nop
    27a8:	00 00       	nop
    27aa:	00 00       	nop
    27ac:	44 00       	.word	0x0044	; ????
    27ae:	5a 00       	.word	0x005a	; ????
    27b0:	74 29       	or	r23, r4
    27b2:	00 00       	nop
    27b4:	00 00       	nop
    27b6:	00 00       	nop
    27b8:	44 00       	.word	0x0044	; ????
    27ba:	5c 00       	.word	0x005c	; ????
    27bc:	76 29       	or	r23, r6
    27be:	00 00       	nop
    27c0:	00 00       	nop
    27c2:	00 00       	nop
    27c4:	44 00       	.word	0x0044	; ????
    27c6:	5d 00       	.word	0x005d	; ????
    27c8:	78 29       	or	r23, r8
    27ca:	00 00       	nop
    27cc:	00 00       	nop
    27ce:	00 00       	nop
    27d0:	44 00       	.word	0x0044	; ????
    27d2:	5e 00       	.word	0x005e	; ????
    27d4:	7a 29       	or	r23, r10
    27d6:	00 00       	nop
    27d8:	00 00       	nop
    27da:	00 00       	nop
    27dc:	44 00       	.word	0x0044	; ????
    27de:	5f 00       	.word	0x005f	; ????
    27e0:	7c 29       	or	r23, r12
    27e2:	00 00       	nop
    27e4:	00 00       	nop
    27e6:	00 00       	nop
    27e8:	44 00       	.word	0x0044	; ????
    27ea:	60 00       	.word	0x0060	; ????
    27ec:	7e 29       	or	r23, r14
    27ee:	00 00       	nop
    27f0:	00 00       	nop
    27f2:	00 00       	nop
    27f4:	44 00       	.word	0x0044	; ????
    27f6:	62 00       	.word	0x0062	; ????
    27f8:	80 29       	or	r24, r0
    27fa:	00 00       	nop
    27fc:	00 00       	nop
    27fe:	00 00       	nop
    2800:	44 00       	.word	0x0044	; ????
    2802:	63 00       	.word	0x0063	; ????
    2804:	82 29       	or	r24, r2
    2806:	00 00       	nop
    2808:	00 00       	nop
    280a:	00 00       	nop
    280c:	44 00       	.word	0x0044	; ????
    280e:	65 00       	.word	0x0065	; ????
    2810:	84 29       	or	r24, r4
    2812:	00 00       	nop
    2814:	00 00       	nop
    2816:	00 00       	nop
    2818:	44 00       	.word	0x0044	; ????
    281a:	66 00       	.word	0x0066	; ????
    281c:	86 29       	or	r24, r6
    281e:	00 00       	nop
    2820:	00 00       	nop
    2822:	00 00       	nop
    2824:	44 00       	.word	0x0044	; ????
    2826:	68 00       	.word	0x0068	; ????
    2828:	88 29       	or	r24, r8
    282a:	00 00       	nop
    282c:	00 00       	nop
    282e:	00 00       	nop
    2830:	44 00       	.word	0x0044	; ????
    2832:	69 00       	.word	0x0069	; ????
    2834:	8a 29       	or	r24, r10
    2836:	00 00       	nop
    2838:	00 00       	nop
    283a:	00 00       	nop
    283c:	44 00       	.word	0x0044	; ????
    283e:	6a 00       	.word	0x006a	; ????
    2840:	8c 29       	or	r24, r12
    2842:	00 00       	nop
    2844:	00 00       	nop
    2846:	00 00       	nop
    2848:	44 00       	.word	0x0044	; ????
    284a:	6b 00       	.word	0x006b	; ????
    284c:	8e 29       	or	r24, r14
    284e:	00 00       	nop
    2850:	00 00       	nop
    2852:	00 00       	nop
    2854:	44 00       	.word	0x0044	; ????
    2856:	6c 00       	.word	0x006c	; ????
    2858:	90 29       	or	r25, r0
    285a:	00 00       	nop
    285c:	00 00       	nop
    285e:	00 00       	nop
    2860:	44 00       	.word	0x0044	; ????
    2862:	6e 00       	.word	0x006e	; ????
    2864:	92 29       	or	r25, r2
    2866:	00 00       	nop
    2868:	00 00       	nop
    286a:	00 00       	nop
    286c:	44 00       	.word	0x0044	; ????
    286e:	6f 00       	.word	0x006f	; ????
    2870:	94 29       	or	r25, r4
    2872:	00 00       	nop
    2874:	00 00       	nop
    2876:	00 00       	nop
    2878:	44 00       	.word	0x0044	; ????
    287a:	70 00       	.word	0x0070	; ????
    287c:	96 29       	or	r25, r6
    287e:	00 00       	nop
    2880:	00 00       	nop
    2882:	00 00       	nop
    2884:	44 00       	.word	0x0044	; ????
    2886:	71 00       	.word	0x0071	; ????
    2888:	98 29       	or	r25, r8
    288a:	00 00       	nop
    288c:	00 00       	nop
    288e:	00 00       	nop
    2890:	44 00       	.word	0x0044	; ????
    2892:	72 00       	.word	0x0072	; ????
    2894:	9a 29       	or	r25, r10
    2896:	00 00       	nop
    2898:	00 00       	nop
    289a:	00 00       	nop
    289c:	44 00       	.word	0x0044	; ????
    289e:	74 00       	.word	0x0074	; ????
    28a0:	9c 29       	or	r25, r12
    28a2:	00 00       	nop
    28a4:	00 00       	nop
    28a6:	00 00       	nop
    28a8:	44 00       	.word	0x0044	; ????
    28aa:	75 00       	.word	0x0075	; ????
    28ac:	9e 29       	or	r25, r14
    28ae:	00 00       	nop
    28b0:	00 00       	nop
    28b2:	00 00       	nop
    28b4:	44 00       	.word	0x0044	; ????
    28b6:	76 00       	.word	0x0076	; ????
    28b8:	a0 29       	or	r26, r0
    28ba:	00 00       	nop
    28bc:	00 00       	nop
    28be:	00 00       	nop
    28c0:	44 00       	.word	0x0044	; ????
    28c2:	77 00       	.word	0x0077	; ????
    28c4:	a2 29       	or	r26, r2
    28c6:	00 00       	nop
    28c8:	00 00       	nop
    28ca:	00 00       	nop
    28cc:	44 00       	.word	0x0044	; ????
    28ce:	78 00       	.word	0x0078	; ????
    28d0:	a4 29       	or	r26, r4
    28d2:	00 00       	nop
    28d4:	00 00       	nop
    28d6:	00 00       	nop
    28d8:	44 00       	.word	0x0044	; ????
    28da:	7a 00       	.word	0x007a	; ????
    28dc:	a6 29       	or	r26, r6
    28de:	00 00       	nop
    28e0:	00 00       	nop
    28e2:	00 00       	nop
    28e4:	44 00       	.word	0x0044	; ????
    28e6:	7b 00       	.word	0x007b	; ????
    28e8:	a8 29       	or	r26, r8
    28ea:	00 00       	nop
    28ec:	00 00       	nop
    28ee:	00 00       	nop
    28f0:	44 00       	.word	0x0044	; ????
    28f2:	7c 00       	.word	0x007c	; ????
    28f4:	aa 29       	or	r26, r10
    28f6:	00 00       	nop
    28f8:	00 00       	nop
    28fa:	00 00       	nop
    28fc:	44 00       	.word	0x0044	; ????
    28fe:	7f 00       	.word	0x007f	; ????
    2900:	ac 29       	or	r26, r12
    2902:	00 00       	nop
    2904:	00 00       	nop
    2906:	00 00       	nop
    2908:	44 00       	.word	0x0044	; ????
    290a:	81 00       	.word	0x0081	; ????
    290c:	ae 29       	or	r26, r14
    290e:	00 00       	nop
    2910:	00 00       	nop
    2912:	00 00       	nop
    2914:	44 00       	.word	0x0044	; ????
    2916:	82 00       	.word	0x0082	; ????
    2918:	b0 29       	or	r27, r0
    291a:	00 00       	nop
    291c:	00 00       	nop
    291e:	00 00       	nop
    2920:	44 00       	.word	0x0044	; ????
    2922:	83 00       	.word	0x0083	; ????
    2924:	b2 29       	or	r27, r2
    2926:	00 00       	nop
    2928:	00 00       	nop
    292a:	00 00       	nop
    292c:	44 00       	.word	0x0044	; ????
    292e:	8b 00       	.word	0x008b	; ????
    2930:	b4 29       	or	r27, r4
    2932:	00 00       	nop
    2934:	00 00       	nop
    2936:	00 00       	nop
    2938:	44 00       	.word	0x0044	; ????
    293a:	8d 00       	.word	0x008d	; ????
    293c:	b6 29       	or	r27, r6
    293e:	00 00       	nop
    2940:	00 00       	nop
    2942:	00 00       	nop
    2944:	44 00       	.word	0x0044	; ????
    2946:	8e 00       	.word	0x008e	; ????
    2948:	b8 29       	or	r27, r8
    294a:	00 00       	nop
    294c:	00 00       	nop
    294e:	00 00       	nop
    2950:	44 00       	.word	0x0044	; ????
    2952:	90 00       	.word	0x0090	; ????
    2954:	ba 29       	or	r27, r10
    2956:	00 00       	nop
    2958:	00 00       	nop
    295a:	00 00       	nop
    295c:	44 00       	.word	0x0044	; ????
    295e:	93 00       	.word	0x0093	; ????
    2960:	bc 29       	or	r27, r12
    2962:	00 00       	nop
    2964:	00 00       	nop
    2966:	00 00       	nop
    2968:	44 00       	.word	0x0044	; ????
    296a:	94 00       	.word	0x0094	; ????
    296c:	be 29       	or	r27, r14
    296e:	00 00       	nop
    2970:	00 00       	nop
    2972:	00 00       	nop
    2974:	44 00       	.word	0x0044	; ????
    2976:	98 00       	.word	0x0098	; ????
    2978:	c0 29       	or	r28, r0
    297a:	00 00       	nop
    297c:	00 00       	nop
    297e:	00 00       	nop
    2980:	44 00       	.word	0x0044	; ????
    2982:	99 00       	.word	0x0099	; ????
    2984:	c2 29       	or	r28, r2
    2986:	00 00       	nop
    2988:	00 00       	nop
    298a:	00 00       	nop
    298c:	44 00       	.word	0x0044	; ????
    298e:	9a 00       	.word	0x009a	; ????
    2990:	c4 29       	or	r28, r4
    2992:	00 00       	nop
    2994:	00 00       	nop
    2996:	00 00       	nop
    2998:	44 00       	.word	0x0044	; ????
    299a:	9b 00       	.word	0x009b	; ????
    299c:	c6 29       	or	r28, r6
    299e:	00 00       	nop
    29a0:	00 00       	nop
    29a2:	00 00       	nop
    29a4:	44 00       	.word	0x0044	; ????
    29a6:	9c 00       	.word	0x009c	; ????
    29a8:	c8 29       	or	r28, r8
    29aa:	00 00       	nop
    29ac:	00 00       	nop
    29ae:	00 00       	nop
    29b0:	44 00       	.word	0x0044	; ????
    29b2:	9d 00       	.word	0x009d	; ????
    29b4:	ca 29       	or	r28, r10
    29b6:	00 00       	nop
    29b8:	00 00       	nop
    29ba:	00 00       	nop
    29bc:	44 00       	.word	0x0044	; ????
    29be:	9e 00       	.word	0x009e	; ????
    29c0:	cc 29       	or	r28, r12
    29c2:	00 00       	nop
    29c4:	00 00       	nop
    29c6:	00 00       	nop
    29c8:	44 00       	.word	0x0044	; ????
    29ca:	9f 00       	.word	0x009f	; ????
    29cc:	ce 29       	or	r28, r14
    29ce:	00 00       	nop
    29d0:	00 00       	nop
    29d2:	00 00       	nop
    29d4:	44 00       	.word	0x0044	; ????
    29d6:	a3 00       	.word	0x00a3	; ????
    29d8:	d0 29       	or	r29, r0
    29da:	00 00       	nop
    29dc:	00 00       	nop
    29de:	00 00       	nop
    29e0:	44 00       	.word	0x0044	; ????
    29e2:	a4 00       	.word	0x00a4	; ????
    29e4:	d2 29       	or	r29, r2
    29e6:	00 00       	nop
    29e8:	00 00       	nop
    29ea:	00 00       	nop
    29ec:	44 00       	.word	0x0044	; ????
    29ee:	a5 00       	.word	0x00a5	; ????
    29f0:	d4 29       	or	r29, r4
    29f2:	00 00       	nop
    29f4:	00 00       	nop
    29f6:	00 00       	nop
    29f8:	44 00       	.word	0x0044	; ????
    29fa:	a6 00       	.word	0x00a6	; ????
    29fc:	d6 29       	or	r29, r6
    29fe:	00 00       	nop
    2a00:	00 00       	nop
    2a02:	00 00       	nop
    2a04:	44 00       	.word	0x0044	; ????
    2a06:	a7 00       	.word	0x00a7	; ????
    2a08:	d8 29       	or	r29, r8
    2a0a:	00 00       	nop
    2a0c:	00 00       	nop
    2a0e:	00 00       	nop
    2a10:	44 00       	.word	0x0044	; ????
    2a12:	a8 00       	.word	0x00a8	; ????
    2a14:	da 29       	or	r29, r10
    2a16:	00 00       	nop
    2a18:	00 00       	nop
    2a1a:	00 00       	nop
    2a1c:	44 00       	.word	0x0044	; ????
    2a1e:	a9 00       	.word	0x00a9	; ????
    2a20:	dc 29       	or	r29, r12
    2a22:	00 00       	nop
    2a24:	00 00       	nop
    2a26:	00 00       	nop
    2a28:	44 00       	.word	0x0044	; ????
    2a2a:	aa 00       	.word	0x00aa	; ????
    2a2c:	de 29       	or	r29, r14
    2a2e:	00 00       	nop
    2a30:	00 00       	nop
    2a32:	00 00       	nop
    2a34:	44 00       	.word	0x0044	; ????
    2a36:	ab 00       	.word	0x00ab	; ????
    2a38:	e0 29       	or	r30, r0
    2a3a:	00 00       	nop
    2a3c:	00 00       	nop
    2a3e:	00 00       	nop
    2a40:	44 00       	.word	0x0044	; ????
    2a42:	ac 00       	.word	0x00ac	; ????
    2a44:	e2 29       	or	r30, r2
    2a46:	00 00       	nop
    2a48:	00 00       	nop
    2a4a:	00 00       	nop
    2a4c:	44 00       	.word	0x0044	; ????
    2a4e:	ad 00       	.word	0x00ad	; ????
    2a50:	e4 29       	or	r30, r4
    2a52:	00 00       	nop
    2a54:	00 00       	nop
    2a56:	00 00       	nop
    2a58:	44 00       	.word	0x0044	; ????
    2a5a:	ae 00       	.word	0x00ae	; ????
    2a5c:	e6 29       	or	r30, r6
    2a5e:	00 00       	nop
    2a60:	00 00       	nop
    2a62:	00 00       	nop
    2a64:	44 00       	.word	0x0044	; ????
    2a66:	b1 00       	.word	0x00b1	; ????
    2a68:	e8 29       	or	r30, r8
    2a6a:	00 00       	nop
    2a6c:	00 00       	nop
    2a6e:	00 00       	nop
    2a70:	44 00       	.word	0x0044	; ????
    2a72:	b3 00       	.word	0x00b3	; ????
    2a74:	ea 29       	or	r30, r10
    2a76:	00 00       	nop
    2a78:	00 00       	nop
    2a7a:	00 00       	nop
    2a7c:	44 00       	.word	0x0044	; ????
    2a7e:	b4 00       	.word	0x00b4	; ????
    2a80:	ec 29       	or	r30, r12
    2a82:	00 00       	nop
    2a84:	00 00       	nop
    2a86:	00 00       	nop
    2a88:	44 00       	.word	0x0044	; ????
    2a8a:	b5 00       	.word	0x00b5	; ????
    2a8c:	ee 29       	or	r30, r14
    2a8e:	00 00       	nop
    2a90:	00 00       	nop
    2a92:	00 00       	nop
    2a94:	44 00       	.word	0x0044	; ????
    2a96:	b6 00       	.word	0x00b6	; ????
    2a98:	f0 29       	or	r31, r0
    2a9a:	00 00       	nop
    2a9c:	00 00       	nop
    2a9e:	00 00       	nop
    2aa0:	44 00       	.word	0x0044	; ????
    2aa2:	b7 00       	.word	0x00b7	; ????
    2aa4:	f2 29       	or	r31, r2
    2aa6:	00 00       	nop
    2aa8:	00 00       	nop
    2aaa:	00 00       	nop
    2aac:	44 00       	.word	0x0044	; ????
    2aae:	b8 00       	.word	0x00b8	; ????
    2ab0:	f4 29       	or	r31, r4
    2ab2:	00 00       	nop
    2ab4:	00 00       	nop
    2ab6:	00 00       	nop
    2ab8:	44 00       	.word	0x0044	; ????
    2aba:	b9 00       	.word	0x00b9	; ????
    2abc:	f6 29       	or	r31, r6
    2abe:	00 00       	nop
    2ac0:	00 00       	nop
    2ac2:	00 00       	nop
    2ac4:	44 00       	.word	0x0044	; ????
    2ac6:	bb 00       	.word	0x00bb	; ????
    2ac8:	f8 29       	or	r31, r8
    2aca:	00 00       	nop
    2acc:	00 00       	nop
    2ace:	00 00       	nop
    2ad0:	44 00       	.word	0x0044	; ????
    2ad2:	bc 00       	.word	0x00bc	; ????
    2ad4:	fa 29       	or	r31, r10
    2ad6:	00 00       	nop
    2ad8:	00 00       	nop
    2ada:	00 00       	nop
    2adc:	44 00       	.word	0x0044	; ????
    2ade:	bd 00       	.word	0x00bd	; ????
    2ae0:	fc 29       	or	r31, r12
    2ae2:	00 00       	nop
    2ae4:	00 00       	nop
    2ae6:	00 00       	nop
    2ae8:	44 00       	.word	0x0044	; ????
    2aea:	be 00       	.word	0x00be	; ????
    2aec:	fe 29       	or	r31, r14
    2aee:	00 00       	nop
    2af0:	00 00       	nop
    2af2:	00 00       	nop
    2af4:	44 00       	.word	0x0044	; ????
    2af6:	c2 00       	.word	0x00c2	; ????
    2af8:	00 2a       	or	r0, r16
    2afa:	00 00       	nop
    2afc:	00 00       	nop
    2afe:	00 00       	nop
    2b00:	44 00       	.word	0x0044	; ????
    2b02:	c3 00       	.word	0x00c3	; ????
    2b04:	02 2a       	or	r0, r18
    2b06:	00 00       	nop
    2b08:	00 00       	nop
    2b0a:	00 00       	nop
    2b0c:	44 00       	.word	0x0044	; ????
    2b0e:	c4 00       	.word	0x00c4	; ????
    2b10:	04 2a       	or	r0, r20
    2b12:	00 00       	nop
    2b14:	00 00       	nop
    2b16:	00 00       	nop
    2b18:	44 00       	.word	0x0044	; ????
    2b1a:	c6 00       	.word	0x00c6	; ????
    2b1c:	06 2a       	or	r0, r22
    2b1e:	00 00       	nop
    2b20:	00 00       	nop
    2b22:	00 00       	nop
    2b24:	44 00       	.word	0x0044	; ????
    2b26:	c7 00       	.word	0x00c7	; ????
    2b28:	08 2a       	or	r0, r24
    2b2a:	00 00       	nop
    2b2c:	00 00       	nop
    2b2e:	00 00       	nop
    2b30:	44 00       	.word	0x0044	; ????
    2b32:	c8 00       	.word	0x00c8	; ????
    2b34:	0a 2a       	or	r0, r26
    2b36:	00 00       	nop
    2b38:	00 00       	nop
    2b3a:	00 00       	nop
    2b3c:	44 00       	.word	0x0044	; ????
    2b3e:	c9 00       	.word	0x00c9	; ????
    2b40:	0c 2a       	or	r0, r28
    2b42:	00 00       	nop
    2b44:	00 00       	nop
    2b46:	00 00       	nop
    2b48:	44 00       	.word	0x0044	; ????
    2b4a:	ca 00       	.word	0x00ca	; ????
    2b4c:	0e 2a       	or	r0, r30
    2b4e:	00 00       	nop
    2b50:	00 00       	nop
    2b52:	00 00       	nop
    2b54:	44 00       	.word	0x0044	; ????
    2b56:	cb 00       	.word	0x00cb	; ????
    2b58:	10 2a       	or	r1, r16
    2b5a:	00 00       	nop
    2b5c:	00 00       	nop
    2b5e:	00 00       	nop
    2b60:	44 00       	.word	0x0044	; ????
    2b62:	cc 00       	.word	0x00cc	; ????
    2b64:	12 2a       	or	r1, r18
    2b66:	00 00       	nop
    2b68:	00 00       	nop
    2b6a:	00 00       	nop
    2b6c:	44 00       	.word	0x0044	; ????
    2b6e:	ce 00       	.word	0x00ce	; ????
    2b70:	14 2a       	or	r1, r20
    2b72:	00 00       	nop
    2b74:	00 00       	nop
    2b76:	00 00       	nop
    2b78:	44 00       	.word	0x0044	; ????
    2b7a:	cf 00       	.word	0x00cf	; ????
    2b7c:	16 2a       	or	r1, r22
    2b7e:	00 00       	nop
    2b80:	00 00       	nop
    2b82:	00 00       	nop
    2b84:	44 00       	.word	0x0044	; ????
    2b86:	d0 00       	.word	0x00d0	; ????
    2b88:	18 2a       	or	r1, r24
    2b8a:	00 00       	nop
    2b8c:	00 00       	nop
    2b8e:	00 00       	nop
    2b90:	44 00       	.word	0x0044	; ????
    2b92:	d1 00       	.word	0x00d1	; ????
    2b94:	1a 2a       	or	r1, r26
    2b96:	00 00       	nop
    2b98:	00 00       	nop
    2b9a:	00 00       	nop
    2b9c:	44 00       	.word	0x0044	; ????
    2b9e:	d2 00       	.word	0x00d2	; ????
    2ba0:	1c 2a       	or	r1, r28
    2ba2:	00 00       	nop
    2ba4:	00 00       	nop
    2ba6:	00 00       	nop
    2ba8:	44 00       	.word	0x0044	; ????
    2baa:	d3 00       	.word	0x00d3	; ????
    2bac:	1e 2a       	or	r1, r30
    2bae:	00 00       	nop

Disassembly of section .stabstr:

00000000 <.stabstr>:
       0:	00 2f       	mov	r16, r16
       2:	74 6d       	ori	r23, 0xD4	; 212
       4:	70 2f       	mov	r23, r16
       6:	63 63       	ori	r22, 0x33	; 51
       8:	31 36       	cpi	r19, 0x61	; 97
       a:	70 58       	subi	r23, 0x80	; 128
       c:	53 34       	cpi	r21, 0x43	; 67
       e:	2e 73       	andi	r18, 0x3E	; 62
      10:	00 76       	andi	r16, 0x60	; 96
      12:	6f 69       	ori	r22, 0x9F	; 159
      14:	64 3a       	cpi	r22, 0xA4	; 164
      16:	74 31       	cpi	r23, 0x14	; 20
      18:	3d 31       	cpi	r19, 0x1D	; 29
      1a:	00 5f       	subi	r16, 0xF0	; 240
      1c:	5f 76       	andi	r21, 0x6F	; 111
      1e:	65 63       	ori	r22, 0x35	; 53
      20:	74 6f       	ori	r23, 0xF4	; 244
      22:	72 73       	andi	r23, 0x32	; 50
      24:	3a 46       	sbci	r19, 0x6A	; 106
      26:	31 00       	.word	0x0031	; ????
      28:	2e 2e       	mov	r2, r30
      2a:	2f 2e       	mov	r2, r31
      2c:	2e 2f       	mov	r18, r30
      2e:	2e 2e       	mov	r2, r30
      30:	2f 2e       	mov	r2, r31
      32:	2e 2f       	mov	r18, r30
      34:	63 72       	andi	r22, 0x23	; 35
      36:	74 31       	cpi	r23, 0x14	; 20
      38:	2f 67       	ori	r18, 0x7F	; 127
      3a:	63 72       	andi	r22, 0x23	; 35
      3c:	74 31       	cpi	r23, 0x14	; 20
      3e:	2e 53       	subi	r18, 0x3E	; 62
      40:	00 5f       	subi	r16, 0xF0	; 240
      42:	5f 62       	ori	r21, 0x2F	; 47
      44:	61 64       	ori	r22, 0x41	; 65
      46:	5f 69       	ori	r21, 0x9F	; 159
      48:	6e 74       	andi	r22, 0x4E	; 78
      4a:	65 72       	andi	r22, 0x25	; 37
      4c:	72 75       	andi	r23, 0x52	; 82
      4e:	70 74       	andi	r23, 0x40	; 64
      50:	3a 46       	sbci	r19, 0x6A	; 106
      52:	31 00       	.word	0x0031	; ????
      54:	2f 62       	ori	r18, 0x2F	; 47
      56:	75 69       	ori	r23, 0x95	; 149
      58:	6c 64       	ori	r22, 0x4C	; 76
      5a:	2f 62       	ori	r18, 0x2F	; 47
      5c:	75 69       	ori	r23, 0x95	; 149
      5e:	6c 64       	ori	r22, 0x4C	; 76
      60:	64 2f       	mov	r22, r20
      62:	61 76       	andi	r22, 0x61	; 97
      64:	72 2d       	mov	r23, r2
      66:	6c 69       	ori	r22, 0x9C	; 156
      68:	62 63       	ori	r22, 0x32	; 50
      6a:	2d 31       	cpi	r18, 0x1D	; 29
      6c:	2e 36       	cpi	r18, 0x6E	; 110
      6e:	2e 38       	cpi	r18, 0x8E	; 142
      70:	2f 61       	ori	r18, 0x1F	; 31
      72:	76 72       	andi	r23, 0x26	; 38
      74:	2f 6c       	ori	r18, 0xCF	; 207
      76:	69 62       	ori	r22, 0x29	; 41
      78:	2f 61       	ori	r18, 0x1F	; 31
      7a:	76 72       	andi	r23, 0x26	; 38
      7c:	35 31       	cpi	r19, 0x15	; 21
      7e:	2f 00       	.word	0x002f	; ????
      80:	2e 2e       	mov	r2, r30
      82:	2f 2e       	mov	r2, r31
      84:	2e 2f       	mov	r18, r30
      86:	2e 2e       	mov	r2, r30
      88:	2f 6c       	ori	r18, 0xCF	; 207
      8a:	69 62       	ori	r22, 0x29	; 41
      8c:	63 2f       	mov	r22, r19
      8e:	73 74       	andi	r23, 0x43	; 67
      90:	64 6c       	ori	r22, 0xC4	; 196
      92:	69 62       	ori	r22, 0x29	; 41
      94:	2f 6d       	ori	r18, 0xDF	; 223
      96:	61 6c       	ori	r22, 0xC1	; 193
      98:	6c 6f       	ori	r22, 0xFC	; 252
      9a:	63 2e       	mov	r6, r19
      9c:	63 00       	.word	0x0063	; ????
      9e:	67 63       	ori	r22, 0x37	; 55
      a0:	63 32       	cpi	r22, 0x23	; 35
      a2:	5f 63       	ori	r21, 0x3F	; 63
      a4:	6f 6d       	ori	r22, 0xDF	; 223
      a6:	70 69       	ori	r23, 0x90	; 144
      a8:	6c 65       	ori	r22, 0x5C	; 92
      aa:	64 2e       	mov	r6, r20
      ac:	00 69       	ori	r16, 0x90	; 144
      ae:	6e 74       	andi	r22, 0x4E	; 78
      b0:	3a 74       	andi	r19, 0x4A	; 74
      b2:	28 30       	cpi	r18, 0x08	; 8
      b4:	2c 31       	cpi	r18, 0x1C	; 28
      b6:	29 3d       	cpi	r18, 0xD9	; 217
      b8:	72 28       	or	r7, r2
      ba:	30 2c       	mov	r3, r0
      bc:	31 29       	or	r19, r1
      be:	3b 2d       	mov	r19, r11
      c0:	33 32       	cpi	r19, 0x23	; 35
      c2:	37 36       	cpi	r19, 0x67	; 103
      c4:	38 3b       	cpi	r19, 0xB8	; 184
      c6:	33 32       	cpi	r19, 0x23	; 35
      c8:	37 36       	cpi	r19, 0x67	; 103
      ca:	37 3b       	cpi	r19, 0xB7	; 183
      cc:	00 63       	ori	r16, 0x30	; 48
      ce:	68 61       	ori	r22, 0x18	; 24
      d0:	72 3a       	cpi	r23, 0xA2	; 162
      d2:	74 28       	or	r7, r4
      d4:	30 2c       	mov	r3, r0
      d6:	32 29       	or	r19, r2
      d8:	3d 72       	andi	r19, 0x2D	; 45
      da:	28 30       	cpi	r18, 0x08	; 8
      dc:	2c 32       	cpi	r18, 0x2C	; 44
      de:	29 3b       	cpi	r18, 0xB9	; 185
      e0:	30 3b       	cpi	r19, 0xB0	; 176
      e2:	31 32       	cpi	r19, 0x21	; 33
      e4:	37 3b       	cpi	r19, 0xB7	; 183
      e6:	00 6c       	ori	r16, 0xC0	; 192
      e8:	6f 6e       	ori	r22, 0xEF	; 239
      ea:	67 20       	and	r6, r7
      ec:	69 6e       	ori	r22, 0xE9	; 233
      ee:	74 3a       	cpi	r23, 0xA4	; 164
      f0:	74 28       	or	r7, r4
      f2:	30 2c       	mov	r3, r0
      f4:	33 29       	or	r19, r3
      f6:	3d 40       	sbci	r19, 0x0D	; 13
      f8:	73 33       	cpi	r23, 0x33	; 51
      fa:	32 3b       	cpi	r19, 0xB2	; 178
      fc:	72 28       	or	r7, r2
      fe:	30 2c       	mov	r3, r0
     100:	33 29       	or	r19, r3
     102:	3b 30       	cpi	r19, 0x0B	; 11
     104:	32 30       	cpi	r19, 0x02	; 2
     106:	30 30       	cpi	r19, 0x00	; 0
     108:	30 30       	cpi	r19, 0x00	; 0
     10a:	30 30       	cpi	r19, 0x00	; 0
     10c:	30 30       	cpi	r19, 0x00	; 0
     10e:	30 3b       	cpi	r19, 0xB0	; 176
     110:	30 31       	cpi	r19, 0x10	; 16
     112:	37 37       	cpi	r19, 0x77	; 119
     114:	37 37       	cpi	r19, 0x77	; 119
     116:	37 37       	cpi	r19, 0x77	; 119
     118:	37 37       	cpi	r19, 0x77	; 119
     11a:	37 37       	cpi	r19, 0x77	; 119
     11c:	3b 00       	.word	0x003b	; ????
     11e:	75 6e       	ori	r23, 0xE5	; 229
     120:	73 69       	ori	r23, 0x93	; 147
     122:	67 6e       	ori	r22, 0xE7	; 231
     124:	65 64       	ori	r22, 0x45	; 69
     126:	20 69       	ori	r18, 0x90	; 144
     128:	6e 74       	andi	r22, 0x4E	; 78
     12a:	3a 74       	andi	r19, 0x4A	; 74
     12c:	28 30       	cpi	r18, 0x08	; 8
     12e:	2c 34       	cpi	r18, 0x4C	; 76
     130:	29 3d       	cpi	r18, 0xD9	; 217
     132:	72 28       	or	r7, r2
     134:	30 2c       	mov	r3, r0
     136:	34 29       	or	r19, r4
     138:	3b 30       	cpi	r19, 0x0B	; 11
     13a:	3b 30       	cpi	r19, 0x0B	; 11
     13c:	31 37       	cpi	r19, 0x71	; 113
     13e:	37 37       	cpi	r19, 0x77	; 119
     140:	37 37       	cpi	r19, 0x77	; 119
     142:	3b 00       	.word	0x003b	; ????
     144:	6c 6f       	ori	r22, 0xFC	; 252
     146:	6e 67       	ori	r22, 0x7E	; 126
     148:	20 75       	andi	r18, 0x50	; 80
     14a:	6e 73       	andi	r22, 0x3E	; 62
     14c:	69 67       	ori	r22, 0x79	; 121
     14e:	6e 65       	ori	r22, 0x5E	; 94
     150:	64 20       	and	r6, r4
     152:	69 6e       	ori	r22, 0xE9	; 233
     154:	74 3a       	cpi	r23, 0xA4	; 164
     156:	74 28       	or	r7, r4
     158:	30 2c       	mov	r3, r0
     15a:	35 29       	or	r19, r5
     15c:	3d 40       	sbci	r19, 0x0D	; 13
     15e:	73 33       	cpi	r23, 0x33	; 51
     160:	32 3b       	cpi	r19, 0xB2	; 178
     162:	72 28       	or	r7, r2
     164:	30 2c       	mov	r3, r0
     166:	35 29       	or	r19, r5
     168:	3b 30       	cpi	r19, 0x0B	; 11
     16a:	3b 30       	cpi	r19, 0x0B	; 11
     16c:	33 37       	cpi	r19, 0x73	; 115
     16e:	37 37       	cpi	r19, 0x77	; 119
     170:	37 37       	cpi	r19, 0x77	; 119
     172:	37 37       	cpi	r19, 0x77	; 119
     174:	37 37       	cpi	r19, 0x77	; 119
     176:	37 3b       	cpi	r19, 0xB7	; 183
     178:	00 6c       	ori	r16, 0xC0	; 192
     17a:	6f 6e       	ori	r22, 0xEF	; 239
     17c:	67 20       	and	r6, r7
     17e:	6c 6f       	ori	r22, 0xFC	; 252
     180:	6e 67       	ori	r22, 0x7E	; 126
     182:	20 69       	ori	r18, 0x90	; 144
     184:	6e 74       	andi	r22, 0x4E	; 78
     186:	3a 74       	andi	r19, 0x4A	; 74
     188:	28 30       	cpi	r18, 0x08	; 8
     18a:	2c 36       	cpi	r18, 0x6C	; 108
     18c:	29 3d       	cpi	r18, 0xD9	; 217
     18e:	40 73       	andi	r20, 0x30	; 48
     190:	36 34       	cpi	r19, 0x46	; 70
     192:	3b 72       	andi	r19, 0x2B	; 43
     194:	28 30       	cpi	r18, 0x08	; 8
     196:	2c 36       	cpi	r18, 0x6C	; 108
     198:	29 3b       	cpi	r18, 0xB9	; 185
     19a:	30 31       	cpi	r19, 0x10	; 16
     19c:	30 30       	cpi	r19, 0x00	; 0
     19e:	30 30       	cpi	r19, 0x00	; 0
     1a0:	30 30       	cpi	r19, 0x00	; 0
     1a2:	30 30       	cpi	r19, 0x00	; 0
     1a4:	30 30       	cpi	r19, 0x00	; 0
     1a6:	30 30       	cpi	r19, 0x00	; 0
     1a8:	30 30       	cpi	r19, 0x00	; 0
     1aa:	30 30       	cpi	r19, 0x00	; 0
     1ac:	30 30       	cpi	r19, 0x00	; 0
     1ae:	30 30       	cpi	r19, 0x00	; 0
     1b0:	30 3b       	cpi	r19, 0xB0	; 176
     1b2:	30 37       	cpi	r19, 0x70	; 112
     1b4:	37 37       	cpi	r19, 0x77	; 119
     1b6:	37 37       	cpi	r19, 0x77	; 119
     1b8:	37 37       	cpi	r19, 0x77	; 119
     1ba:	37 37       	cpi	r19, 0x77	; 119
     1bc:	37 37       	cpi	r19, 0x77	; 119
     1be:	37 37       	cpi	r19, 0x77	; 119
     1c0:	37 37       	cpi	r19, 0x77	; 119
     1c2:	37 37       	cpi	r19, 0x77	; 119
     1c4:	37 37       	cpi	r19, 0x77	; 119
     1c6:	37 37       	cpi	r19, 0x77	; 119
     1c8:	3b 00       	.word	0x003b	; ????
     1ca:	6c 6f       	ori	r22, 0xFC	; 252
     1cc:	6e 67       	ori	r22, 0x7E	; 126
     1ce:	20 6c       	ori	r18, 0xC0	; 192
     1d0:	6f 6e       	ori	r22, 0xEF	; 239
     1d2:	67 20       	and	r6, r7
     1d4:	75 6e       	ori	r23, 0xE5	; 229
     1d6:	73 69       	ori	r23, 0x93	; 147
     1d8:	67 6e       	ori	r22, 0xE7	; 231
     1da:	65 64       	ori	r22, 0x45	; 69
     1dc:	20 69       	ori	r18, 0x90	; 144
     1de:	6e 74       	andi	r22, 0x4E	; 78
     1e0:	3a 74       	andi	r19, 0x4A	; 74
     1e2:	28 30       	cpi	r18, 0x08	; 8
     1e4:	2c 37       	cpi	r18, 0x7C	; 124
     1e6:	29 3d       	cpi	r18, 0xD9	; 217
     1e8:	40 73       	andi	r20, 0x30	; 48
     1ea:	36 34       	cpi	r19, 0x46	; 70
     1ec:	3b 72       	andi	r19, 0x2B	; 43
     1ee:	28 30       	cpi	r18, 0x08	; 8
     1f0:	2c 37       	cpi	r18, 0x7C	; 124
     1f2:	29 3b       	cpi	r18, 0xB9	; 185
     1f4:	30 3b       	cpi	r19, 0xB0	; 176
     1f6:	30 31       	cpi	r19, 0x10	; 16
     1f8:	37 37       	cpi	r19, 0x77	; 119
     1fa:	37 37       	cpi	r19, 0x77	; 119
     1fc:	37 37       	cpi	r19, 0x77	; 119
     1fe:	37 37       	cpi	r19, 0x77	; 119
     200:	37 37       	cpi	r19, 0x77	; 119
     202:	37 37       	cpi	r19, 0x77	; 119
     204:	37 37       	cpi	r19, 0x77	; 119
     206:	37 37       	cpi	r19, 0x77	; 119
     208:	37 37       	cpi	r19, 0x77	; 119
     20a:	37 37       	cpi	r19, 0x77	; 119
     20c:	37 3b       	cpi	r19, 0xB7	; 183
     20e:	00 73       	andi	r16, 0x30	; 48
     210:	68 6f       	ori	r22, 0xF8	; 248
     212:	72 74       	andi	r23, 0x42	; 66
     214:	20 69       	ori	r18, 0x90	; 144
     216:	6e 74       	andi	r22, 0x4E	; 78
     218:	3a 74       	andi	r19, 0x4A	; 74
     21a:	28 30       	cpi	r18, 0x08	; 8
     21c:	2c 38       	cpi	r18, 0x8C	; 140
     21e:	29 3d       	cpi	r18, 0xD9	; 217
     220:	72 28       	or	r7, r2
     222:	30 2c       	mov	r3, r0
     224:	38 29       	or	r19, r8
     226:	3b 2d       	mov	r19, r11
     228:	33 32       	cpi	r19, 0x23	; 35
     22a:	37 36       	cpi	r19, 0x67	; 103
     22c:	38 3b       	cpi	r19, 0xB8	; 184
     22e:	33 32       	cpi	r19, 0x23	; 35
     230:	37 36       	cpi	r19, 0x67	; 103
     232:	37 3b       	cpi	r19, 0xB7	; 183
     234:	00 73       	andi	r16, 0x30	; 48
     236:	68 6f       	ori	r22, 0xF8	; 248
     238:	72 74       	andi	r23, 0x42	; 66
     23a:	20 75       	andi	r18, 0x50	; 80
     23c:	6e 73       	andi	r22, 0x3E	; 62
     23e:	69 67       	ori	r22, 0x79	; 121
     240:	6e 65       	ori	r22, 0x5E	; 94
     242:	64 20       	and	r6, r4
     244:	69 6e       	ori	r22, 0xE9	; 233
     246:	74 3a       	cpi	r23, 0xA4	; 164
     248:	74 28       	or	r7, r4
     24a:	30 2c       	mov	r3, r0
     24c:	39 29       	or	r19, r9
     24e:	3d 72       	andi	r19, 0x2D	; 45
     250:	28 30       	cpi	r18, 0x08	; 8
     252:	2c 39       	cpi	r18, 0x9C	; 156
     254:	29 3b       	cpi	r18, 0xB9	; 185
     256:	30 3b       	cpi	r19, 0xB0	; 176
     258:	30 31       	cpi	r19, 0x10	; 16
     25a:	37 37       	cpi	r19, 0x77	; 119
     25c:	37 37       	cpi	r19, 0x77	; 119
     25e:	37 3b       	cpi	r19, 0xB7	; 183
     260:	00 73       	andi	r16, 0x30	; 48
     262:	69 67       	ori	r22, 0x79	; 121
     264:	6e 65       	ori	r22, 0x5E	; 94
     266:	64 20       	and	r6, r4
     268:	63 68       	ori	r22, 0x83	; 131
     26a:	61 72       	andi	r22, 0x21	; 33
     26c:	3a 74       	andi	r19, 0x4A	; 74
     26e:	28 30       	cpi	r18, 0x08	; 8
     270:	2c 31       	cpi	r18, 0x1C	; 28
     272:	30 29       	or	r19, r0
     274:	3d 40       	sbci	r19, 0x0D	; 13
     276:	73 38       	cpi	r23, 0x83	; 131
     278:	3b 72       	andi	r19, 0x2B	; 43
     27a:	28 30       	cpi	r18, 0x08	; 8
     27c:	2c 31       	cpi	r18, 0x1C	; 28
     27e:	30 29       	or	r19, r0
     280:	3b 2d       	mov	r19, r11
     282:	31 32       	cpi	r19, 0x21	; 33
     284:	38 3b       	cpi	r19, 0xB8	; 184
     286:	31 32       	cpi	r19, 0x21	; 33
     288:	37 3b       	cpi	r19, 0xB7	; 183
     28a:	00 75       	andi	r16, 0x50	; 80
     28c:	6e 73       	andi	r22, 0x3E	; 62
     28e:	69 67       	ori	r22, 0x79	; 121
     290:	6e 65       	ori	r22, 0x5E	; 94
     292:	64 20       	and	r6, r4
     294:	63 68       	ori	r22, 0x83	; 131
     296:	61 72       	andi	r22, 0x21	; 33
     298:	3a 74       	andi	r19, 0x4A	; 74
     29a:	28 30       	cpi	r18, 0x08	; 8
     29c:	2c 31       	cpi	r18, 0x1C	; 28
     29e:	31 29       	or	r19, r1
     2a0:	3d 40       	sbci	r19, 0x0D	; 13
     2a2:	73 38       	cpi	r23, 0x83	; 131
     2a4:	3b 72       	andi	r19, 0x2B	; 43
     2a6:	28 30       	cpi	r18, 0x08	; 8
     2a8:	2c 31       	cpi	r18, 0x1C	; 28
     2aa:	31 29       	or	r19, r1
     2ac:	3b 30       	cpi	r19, 0x0B	; 11
     2ae:	3b 32       	cpi	r19, 0x2B	; 43
     2b0:	35 35       	cpi	r19, 0x55	; 85
     2b2:	3b 00       	.word	0x003b	; ????
     2b4:	66 6c       	ori	r22, 0xC6	; 198
     2b6:	6f 61       	ori	r22, 0x1F	; 31
     2b8:	74 3a       	cpi	r23, 0xA4	; 164
     2ba:	74 28       	or	r7, r4
     2bc:	30 2c       	mov	r3, r0
     2be:	31 32       	cpi	r19, 0x21	; 33
     2c0:	29 3d       	cpi	r18, 0xD9	; 217
     2c2:	72 28       	or	r7, r2
     2c4:	30 2c       	mov	r3, r0
     2c6:	31 29       	or	r19, r1
     2c8:	3b 34       	cpi	r19, 0x4B	; 75
     2ca:	3b 30       	cpi	r19, 0x0B	; 11
     2cc:	3b 00       	.word	0x003b	; ????
     2ce:	64 6f       	ori	r22, 0xF4	; 244
     2d0:	75 62       	ori	r23, 0x25	; 37
     2d2:	6c 65       	ori	r22, 0x5C	; 92
     2d4:	3a 74       	andi	r19, 0x4A	; 74
     2d6:	28 30       	cpi	r18, 0x08	; 8
     2d8:	2c 31       	cpi	r18, 0x1C	; 28
     2da:	33 29       	or	r19, r3
     2dc:	3d 72       	andi	r19, 0x2D	; 45
     2de:	28 30       	cpi	r18, 0x08	; 8
     2e0:	2c 31       	cpi	r18, 0x1C	; 28
     2e2:	29 3b       	cpi	r18, 0xB9	; 185
     2e4:	34 3b       	cpi	r19, 0xB4	; 180
     2e6:	30 3b       	cpi	r19, 0xB0	; 176
     2e8:	00 6c       	ori	r16, 0xC0	; 192
     2ea:	6f 6e       	ori	r22, 0xEF	; 239
     2ec:	67 20       	and	r6, r7
     2ee:	64 6f       	ori	r22, 0xF4	; 244
     2f0:	75 62       	ori	r23, 0x25	; 37
     2f2:	6c 65       	ori	r22, 0x5C	; 92
     2f4:	3a 74       	andi	r19, 0x4A	; 74
     2f6:	28 30       	cpi	r18, 0x08	; 8
     2f8:	2c 31       	cpi	r18, 0x1C	; 28
     2fa:	34 29       	or	r19, r4
     2fc:	3d 72       	andi	r19, 0x2D	; 45
     2fe:	28 30       	cpi	r18, 0x08	; 8
     300:	2c 31       	cpi	r18, 0x1C	; 28
     302:	29 3b       	cpi	r18, 0xB9	; 185
     304:	34 3b       	cpi	r19, 0xB4	; 180
     306:	30 3b       	cpi	r19, 0xB0	; 176
     308:	00 76       	andi	r16, 0x60	; 96
     30a:	6f 69       	ori	r22, 0x9F	; 159
     30c:	64 3a       	cpi	r22, 0xA4	; 164
     30e:	74 28       	or	r7, r4
     310:	30 2c       	mov	r3, r0
     312:	31 35       	cpi	r19, 0x51	; 81
     314:	29 3d       	cpi	r18, 0xD9	; 217
     316:	28 30       	cpi	r18, 0x08	; 8
     318:	2c 31       	cpi	r18, 0x1C	; 28
     31a:	35 29       	or	r19, r5
     31c:	00 2e       	mov	r0, r16
     31e:	2e 2f       	mov	r18, r30
     320:	2e 2e       	mov	r2, r30
     322:	2f 2e       	mov	r2, r31
     324:	2e 2f       	mov	r18, r30
     326:	69 6e       	ori	r22, 0xE9	; 233
     328:	63 6c       	ori	r22, 0xC3	; 195
     32a:	75 64       	ori	r23, 0x45	; 69
     32c:	65 2f       	mov	r22, r21
     32e:	73 74       	andi	r23, 0x43	; 67
     330:	64 6c       	ori	r22, 0xC4	; 196
     332:	69 62       	ori	r22, 0x29	; 41
     334:	2e 68       	ori	r18, 0x8E	; 142
     336:	00 2f       	mov	r16, r16
     338:	75 73       	andi	r23, 0x35	; 53
     33a:	72 2f       	mov	r23, r18
     33c:	6c 69       	ori	r22, 0x9C	; 156
     33e:	62 2f       	mov	r22, r18
     340:	67 63       	ori	r22, 0x37	; 55
     342:	63 2f       	mov	r22, r19
     344:	61 76       	andi	r22, 0x61	; 97
     346:	72 2f       	mov	r23, r18
     348:	34 2e       	mov	r3, r20
     34a:	33 2e       	mov	r3, r19
     34c:	35 2f       	mov	r19, r21
     34e:	69 6e       	ori	r22, 0xE9	; 233
     350:	63 6c       	ori	r22, 0xC3	; 195
     352:	75 64       	ori	r23, 0x45	; 69
     354:	65 2f       	mov	r22, r21
     356:	73 74       	andi	r23, 0x43	; 67
     358:	64 64       	ori	r22, 0x44	; 68
     35a:	65 66       	ori	r22, 0x65	; 101
     35c:	2e 68       	ori	r18, 0x8E	; 142
     35e:	00 73       	andi	r16, 0x30	; 48
     360:	69 7a       	andi	r22, 0xA9	; 169
     362:	65 5f       	subi	r22, 0xF5	; 245
     364:	74 3a       	cpi	r23, 0xA4	; 164
     366:	74 28       	or	r7, r4
     368:	32 2c       	mov	r3, r2
     36a:	31 29       	or	r19, r1
     36c:	3d 28       	or	r3, r13
     36e:	30 2c       	mov	r3, r0
     370:	34 29       	or	r19, r4
     372:	00 77       	andi	r16, 0x70	; 112
     374:	63 68       	ori	r22, 0x83	; 131
     376:	61 72       	andi	r22, 0x21	; 33
     378:	5f 74       	andi	r21, 0x4F	; 79
     37a:	3a 74       	andi	r19, 0x4A	; 74
     37c:	28 32       	cpi	r18, 0x28	; 40
     37e:	2c 32       	cpi	r18, 0x2C	; 44
     380:	29 3d       	cpi	r18, 0xD9	; 217
     382:	28 30       	cpi	r18, 0x08	; 8
     384:	2c 31       	cpi	r18, 0x1C	; 28
     386:	29 00       	.word	0x0029	; ????
     388:	64 69       	ori	r22, 0x94	; 148
     38a:	76 5f       	subi	r23, 0xF6	; 246
     38c:	74 3a       	cpi	r23, 0xA4	; 164
     38e:	74 28       	or	r7, r4
     390:	31 2c       	mov	r3, r1
     392:	31 29       	or	r19, r1
     394:	3d 28       	or	r3, r13
     396:	31 2c       	mov	r3, r1
     398:	32 29       	or	r19, r2
     39a:	3d 73       	andi	r19, 0x3D	; 61
     39c:	34 71       	andi	r19, 0x14	; 20
     39e:	75 6f       	ori	r23, 0xF5	; 245
     3a0:	74 3a       	cpi	r23, 0xA4	; 164
     3a2:	28 30       	cpi	r18, 0x08	; 8
     3a4:	2c 31       	cpi	r18, 0x1C	; 28
     3a6:	29 2c       	mov	r2, r9
     3a8:	30 2c       	mov	r3, r0
     3aa:	31 36       	cpi	r19, 0x61	; 97
     3ac:	3b 72       	andi	r19, 0x2B	; 43
     3ae:	65 6d       	ori	r22, 0xD5	; 213
     3b0:	3a 28       	or	r3, r10
     3b2:	30 2c       	mov	r3, r0
     3b4:	31 29       	or	r19, r1
     3b6:	2c 31       	cpi	r18, 0x1C	; 28
     3b8:	36 2c       	mov	r3, r6
     3ba:	31 36       	cpi	r19, 0x61	; 97
     3bc:	3b 3b       	cpi	r19, 0xBB	; 187
     3be:	00 6c       	ori	r16, 0xC0	; 192
     3c0:	64 69       	ori	r22, 0x94	; 148
     3c2:	76 5f       	subi	r23, 0xF6	; 246
     3c4:	74 3a       	cpi	r23, 0xA4	; 164
     3c6:	74 28       	or	r7, r4
     3c8:	31 2c       	mov	r3, r1
     3ca:	33 29       	or	r19, r3
     3cc:	3d 28       	or	r3, r13
     3ce:	31 2c       	mov	r3, r1
     3d0:	34 29       	or	r19, r4
     3d2:	3d 73       	andi	r19, 0x3D	; 61
     3d4:	38 71       	andi	r19, 0x18	; 24
     3d6:	75 6f       	ori	r23, 0xF5	; 245
     3d8:	74 3a       	cpi	r23, 0xA4	; 164
     3da:	28 30       	cpi	r18, 0x08	; 8
     3dc:	2c 33       	cpi	r18, 0x3C	; 60
     3de:	29 2c       	mov	r2, r9
     3e0:	30 2c       	mov	r3, r0
     3e2:	33 32       	cpi	r19, 0x23	; 35
     3e4:	3b 72       	andi	r19, 0x2B	; 43
     3e6:	65 6d       	ori	r22, 0xD5	; 213
     3e8:	3a 28       	or	r3, r10
     3ea:	30 2c       	mov	r3, r0
     3ec:	33 29       	or	r19, r3
     3ee:	2c 33       	cpi	r18, 0x3C	; 60
     3f0:	32 2c       	mov	r3, r2
     3f2:	33 32       	cpi	r19, 0x23	; 35
     3f4:	3b 3b       	cpi	r19, 0xBB	; 187
     3f6:	00 5f       	subi	r16, 0xF0	; 240
     3f8:	5f 63       	ori	r21, 0x3F	; 63
     3fa:	6f 6d       	ori	r22, 0xDF	; 223
     3fc:	70 61       	ori	r23, 0x10	; 16
     3fe:	72 5f       	subi	r23, 0xF2	; 242
     400:	66 6e       	ori	r22, 0xE6	; 230
     402:	5f 74       	andi	r21, 0x4F	; 79
     404:	3a 74       	andi	r19, 0x4A	; 74
     406:	28 31       	cpi	r18, 0x18	; 24
     408:	2c 35       	cpi	r18, 0x5C	; 92
     40a:	29 3d       	cpi	r18, 0xD9	; 217
     40c:	28 31       	cpi	r18, 0x18	; 24
     40e:	2c 36       	cpi	r18, 0x6C	; 108
     410:	29 3d       	cpi	r18, 0xD9	; 217
     412:	2a 28       	or	r2, r10
     414:	31 2c       	mov	r3, r1
     416:	37 29       	or	r19, r7
     418:	3d 66       	ori	r19, 0x6D	; 109
     41a:	28 30       	cpi	r18, 0x08	; 8
     41c:	2c 31       	cpi	r18, 0x1C	; 28
     41e:	29 00       	.word	0x0029	; ????
     420:	2e 2e       	mov	r2, r30
     422:	2f 2e       	mov	r2, r31
     424:	2e 2f       	mov	r18, r30
     426:	2e 2e       	mov	r2, r30
     428:	2f 6c       	ori	r18, 0xCF	; 207
     42a:	69 62       	ori	r22, 0x29	; 41
     42c:	63 2f       	mov	r22, r19
     42e:	73 74       	andi	r23, 0x43	; 67
     430:	64 6c       	ori	r22, 0xC4	; 196
     432:	69 62       	ori	r22, 0x29	; 41
     434:	2f 73       	andi	r18, 0x3F	; 63
     436:	74 64       	ori	r23, 0x44	; 68
     438:	6c 69       	ori	r22, 0x9C	; 156
     43a:	62 5f       	subi	r22, 0xF2	; 242
     43c:	70 72       	andi	r23, 0x20	; 32
     43e:	69 76       	andi	r22, 0x69	; 105
     440:	61 74       	andi	r22, 0x41	; 65
     442:	65 2e       	mov	r6, r21
     444:	68 00       	.word	0x0068	; ????
     446:	2e 2e       	mov	r2, r30
     448:	2f 2e       	mov	r2, r31
     44a:	2e 2f       	mov	r18, r30
     44c:	2e 2e       	mov	r2, r30
     44e:	2f 69       	ori	r18, 0x9F	; 159
     450:	6e 63       	ori	r22, 0x3E	; 62
     452:	6c 75       	andi	r22, 0x5C	; 92
     454:	64 65       	ori	r22, 0x54	; 84
     456:	2f 69       	ori	r18, 0x9F	; 159
     458:	6e 74       	andi	r22, 0x4E	; 78
     45a:	74 79       	andi	r23, 0x94	; 148
     45c:	70 65       	ori	r23, 0x50	; 80
     45e:	73 2e       	mov	r7, r19
     460:	68 00       	.word	0x0068	; ????
     462:	2e 2e       	mov	r2, r30
     464:	2f 2e       	mov	r2, r31
     466:	2e 2f       	mov	r18, r30
     468:	2e 2e       	mov	r2, r30
     46a:	2f 69       	ori	r18, 0x9F	; 159
     46c:	6e 63       	ori	r22, 0x3E	; 62
     46e:	6c 75       	andi	r22, 0x5C	; 92
     470:	64 65       	ori	r22, 0x54	; 84
     472:	2f 73       	andi	r18, 0x3F	; 63
     474:	74 64       	ori	r23, 0x44	; 68
     476:	69 6e       	ori	r22, 0xE9	; 233
     478:	74 2e       	mov	r7, r20
     47a:	68 00       	.word	0x0068	; ????
     47c:	69 6e       	ori	r22, 0xE9	; 233
     47e:	74 38       	cpi	r23, 0x84	; 132
     480:	5f 74       	andi	r21, 0x4F	; 79
     482:	3a 74       	andi	r19, 0x4A	; 74
     484:	28 35       	cpi	r18, 0x58	; 88
     486:	2c 31       	cpi	r18, 0x1C	; 28
     488:	29 3d       	cpi	r18, 0xD9	; 217
     48a:	28 30       	cpi	r18, 0x08	; 8
     48c:	2c 31       	cpi	r18, 0x1C	; 28
     48e:	30 29       	or	r19, r0
     490:	00 75       	andi	r16, 0x50	; 80
     492:	69 6e       	ori	r22, 0xE9	; 233
     494:	74 38       	cpi	r23, 0x84	; 132
     496:	5f 74       	andi	r21, 0x4F	; 79
     498:	3a 74       	andi	r19, 0x4A	; 74
     49a:	28 35       	cpi	r18, 0x58	; 88
     49c:	2c 32       	cpi	r18, 0x2C	; 44
     49e:	29 3d       	cpi	r18, 0xD9	; 217
     4a0:	28 30       	cpi	r18, 0x08	; 8
     4a2:	2c 31       	cpi	r18, 0x1C	; 28
     4a4:	31 29       	or	r19, r1
     4a6:	00 69       	ori	r16, 0x90	; 144
     4a8:	6e 74       	andi	r22, 0x4E	; 78
     4aa:	31 36       	cpi	r19, 0x61	; 97
     4ac:	5f 74       	andi	r21, 0x4F	; 79
     4ae:	3a 74       	andi	r19, 0x4A	; 74
     4b0:	28 35       	cpi	r18, 0x58	; 88
     4b2:	2c 33       	cpi	r18, 0x3C	; 60
     4b4:	29 3d       	cpi	r18, 0xD9	; 217
     4b6:	28 30       	cpi	r18, 0x08	; 8
     4b8:	2c 31       	cpi	r18, 0x1C	; 28
     4ba:	29 00       	.word	0x0029	; ????
     4bc:	75 69       	ori	r23, 0x95	; 149
     4be:	6e 74       	andi	r22, 0x4E	; 78
     4c0:	31 36       	cpi	r19, 0x61	; 97
     4c2:	5f 74       	andi	r21, 0x4F	; 79
     4c4:	3a 74       	andi	r19, 0x4A	; 74
     4c6:	28 35       	cpi	r18, 0x58	; 88
     4c8:	2c 34       	cpi	r18, 0x4C	; 76
     4ca:	29 3d       	cpi	r18, 0xD9	; 217
     4cc:	28 30       	cpi	r18, 0x08	; 8
     4ce:	2c 34       	cpi	r18, 0x4C	; 76
     4d0:	29 00       	.word	0x0029	; ????
     4d2:	69 6e       	ori	r22, 0xE9	; 233
     4d4:	74 33       	cpi	r23, 0x34	; 52
     4d6:	32 5f       	subi	r19, 0xF2	; 242
     4d8:	74 3a       	cpi	r23, 0xA4	; 164
     4da:	74 28       	or	r7, r4
     4dc:	35 2c       	mov	r3, r5
     4de:	35 29       	or	r19, r5
     4e0:	3d 28       	or	r3, r13
     4e2:	30 2c       	mov	r3, r0
     4e4:	33 29       	or	r19, r3
     4e6:	00 75       	andi	r16, 0x50	; 80
     4e8:	69 6e       	ori	r22, 0xE9	; 233
     4ea:	74 33       	cpi	r23, 0x34	; 52
     4ec:	32 5f       	subi	r19, 0xF2	; 242
     4ee:	74 3a       	cpi	r23, 0xA4	; 164
     4f0:	74 28       	or	r7, r4
     4f2:	35 2c       	mov	r3, r5
     4f4:	36 29       	or	r19, r6
     4f6:	3d 28       	or	r3, r13
     4f8:	30 2c       	mov	r3, r0
     4fa:	35 29       	or	r19, r5
     4fc:	00 69       	ori	r16, 0x90	; 144
     4fe:	6e 74       	andi	r22, 0x4E	; 78
     500:	36 34       	cpi	r19, 0x46	; 70
     502:	5f 74       	andi	r21, 0x4F	; 79
     504:	3a 74       	andi	r19, 0x4A	; 74
     506:	28 35       	cpi	r18, 0x58	; 88
     508:	2c 37       	cpi	r18, 0x7C	; 124
     50a:	29 3d       	cpi	r18, 0xD9	; 217
     50c:	28 30       	cpi	r18, 0x08	; 8
     50e:	2c 36       	cpi	r18, 0x6C	; 108
     510:	29 00       	.word	0x0029	; ????
     512:	75 69       	ori	r23, 0x95	; 149
     514:	6e 74       	andi	r22, 0x4E	; 78
     516:	36 34       	cpi	r19, 0x46	; 70
     518:	5f 74       	andi	r21, 0x4F	; 79
     51a:	3a 74       	andi	r19, 0x4A	; 74
     51c:	28 35       	cpi	r18, 0x58	; 88
     51e:	2c 38       	cpi	r18, 0x8C	; 140
     520:	29 3d       	cpi	r18, 0xD9	; 217
     522:	28 30       	cpi	r18, 0x08	; 8
     524:	2c 37       	cpi	r18, 0x7C	; 124
     526:	29 00       	.word	0x0029	; ????
     528:	69 6e       	ori	r22, 0xE9	; 233
     52a:	74 70       	andi	r23, 0x04	; 4
     52c:	74 72       	andi	r23, 0x24	; 36
     52e:	5f 74       	andi	r21, 0x4F	; 79
     530:	3a 74       	andi	r19, 0x4A	; 74
     532:	28 35       	cpi	r18, 0x58	; 88
     534:	2c 39       	cpi	r18, 0x9C	; 156
     536:	29 3d       	cpi	r18, 0xD9	; 217
     538:	28 35       	cpi	r18, 0x58	; 88
     53a:	2c 33       	cpi	r18, 0x3C	; 60
     53c:	29 00       	.word	0x0029	; ????
     53e:	75 69       	ori	r23, 0x95	; 149
     540:	6e 74       	andi	r22, 0x4E	; 78
     542:	70 74       	andi	r23, 0x40	; 64
     544:	72 5f       	subi	r23, 0xF2	; 242
     546:	74 3a       	cpi	r23, 0xA4	; 164
     548:	74 28       	or	r7, r4
     54a:	35 2c       	mov	r3, r5
     54c:	31 30       	cpi	r19, 0x01	; 1
     54e:	29 3d       	cpi	r18, 0xD9	; 217
     550:	28 35       	cpi	r18, 0x58	; 88
     552:	2c 34       	cpi	r18, 0x4C	; 76
     554:	29 00       	.word	0x0029	; ????
     556:	69 6e       	ori	r22, 0xE9	; 233
     558:	74 5f       	subi	r23, 0xF4	; 244
     55a:	6c 65       	ori	r22, 0x5C	; 92
     55c:	61 73       	andi	r22, 0x31	; 49
     55e:	74 38       	cpi	r23, 0x84	; 132
     560:	5f 74       	andi	r21, 0x4F	; 79
     562:	3a 74       	andi	r19, 0x4A	; 74
     564:	28 35       	cpi	r18, 0x58	; 88
     566:	2c 31       	cpi	r18, 0x1C	; 28
     568:	31 29       	or	r19, r1
     56a:	3d 28       	or	r3, r13
     56c:	35 2c       	mov	r3, r5
     56e:	31 29       	or	r19, r1
     570:	00 75       	andi	r16, 0x50	; 80
     572:	69 6e       	ori	r22, 0xE9	; 233
     574:	74 5f       	subi	r23, 0xF4	; 244
     576:	6c 65       	ori	r22, 0x5C	; 92
     578:	61 73       	andi	r22, 0x31	; 49
     57a:	74 38       	cpi	r23, 0x84	; 132
     57c:	5f 74       	andi	r21, 0x4F	; 79
     57e:	3a 74       	andi	r19, 0x4A	; 74
     580:	28 35       	cpi	r18, 0x58	; 88
     582:	2c 31       	cpi	r18, 0x1C	; 28
     584:	32 29       	or	r19, r2
     586:	3d 28       	or	r3, r13
     588:	35 2c       	mov	r3, r5
     58a:	32 29       	or	r19, r2
     58c:	00 69       	ori	r16, 0x90	; 144
     58e:	6e 74       	andi	r22, 0x4E	; 78
     590:	5f 6c       	ori	r21, 0xCF	; 207
     592:	65 61       	ori	r22, 0x15	; 21
     594:	73 74       	andi	r23, 0x43	; 67
     596:	31 36       	cpi	r19, 0x61	; 97
     598:	5f 74       	andi	r21, 0x4F	; 79
     59a:	3a 74       	andi	r19, 0x4A	; 74
     59c:	28 35       	cpi	r18, 0x58	; 88
     59e:	2c 31       	cpi	r18, 0x1C	; 28
     5a0:	33 29       	or	r19, r3
     5a2:	3d 28       	or	r3, r13
     5a4:	35 2c       	mov	r3, r5
     5a6:	33 29       	or	r19, r3
     5a8:	00 75       	andi	r16, 0x50	; 80
     5aa:	69 6e       	ori	r22, 0xE9	; 233
     5ac:	74 5f       	subi	r23, 0xF4	; 244
     5ae:	6c 65       	ori	r22, 0x5C	; 92
     5b0:	61 73       	andi	r22, 0x31	; 49
     5b2:	74 31       	cpi	r23, 0x14	; 20
     5b4:	36 5f       	subi	r19, 0xF6	; 246
     5b6:	74 3a       	cpi	r23, 0xA4	; 164
     5b8:	74 28       	or	r7, r4
     5ba:	35 2c       	mov	r3, r5
     5bc:	31 34       	cpi	r19, 0x41	; 65
     5be:	29 3d       	cpi	r18, 0xD9	; 217
     5c0:	28 35       	cpi	r18, 0x58	; 88
     5c2:	2c 34       	cpi	r18, 0x4C	; 76
     5c4:	29 00       	.word	0x0029	; ????
     5c6:	69 6e       	ori	r22, 0xE9	; 233
     5c8:	74 5f       	subi	r23, 0xF4	; 244
     5ca:	6c 65       	ori	r22, 0x5C	; 92
     5cc:	61 73       	andi	r22, 0x31	; 49
     5ce:	74 33       	cpi	r23, 0x34	; 52
     5d0:	32 5f       	subi	r19, 0xF2	; 242
     5d2:	74 3a       	cpi	r23, 0xA4	; 164
     5d4:	74 28       	or	r7, r4
     5d6:	35 2c       	mov	r3, r5
     5d8:	31 35       	cpi	r19, 0x51	; 81
     5da:	29 3d       	cpi	r18, 0xD9	; 217
     5dc:	28 35       	cpi	r18, 0x58	; 88
     5de:	2c 35       	cpi	r18, 0x5C	; 92
     5e0:	29 00       	.word	0x0029	; ????
     5e2:	75 69       	ori	r23, 0x95	; 149
     5e4:	6e 74       	andi	r22, 0x4E	; 78
     5e6:	5f 6c       	ori	r21, 0xCF	; 207
     5e8:	65 61       	ori	r22, 0x15	; 21
     5ea:	73 74       	andi	r23, 0x43	; 67
     5ec:	33 32       	cpi	r19, 0x23	; 35
     5ee:	5f 74       	andi	r21, 0x4F	; 79
     5f0:	3a 74       	andi	r19, 0x4A	; 74
     5f2:	28 35       	cpi	r18, 0x58	; 88
     5f4:	2c 31       	cpi	r18, 0x1C	; 28
     5f6:	36 29       	or	r19, r6
     5f8:	3d 28       	or	r3, r13
     5fa:	35 2c       	mov	r3, r5
     5fc:	36 29       	or	r19, r6
     5fe:	00 69       	ori	r16, 0x90	; 144
     600:	6e 74       	andi	r22, 0x4E	; 78
     602:	5f 6c       	ori	r21, 0xCF	; 207
     604:	65 61       	ori	r22, 0x15	; 21
     606:	73 74       	andi	r23, 0x43	; 67
     608:	36 34       	cpi	r19, 0x46	; 70
     60a:	5f 74       	andi	r21, 0x4F	; 79
     60c:	3a 74       	andi	r19, 0x4A	; 74
     60e:	28 35       	cpi	r18, 0x58	; 88
     610:	2c 31       	cpi	r18, 0x1C	; 28
     612:	37 29       	or	r19, r7
     614:	3d 28       	or	r3, r13
     616:	35 2c       	mov	r3, r5
     618:	37 29       	or	r19, r7
     61a:	00 75       	andi	r16, 0x50	; 80
     61c:	69 6e       	ori	r22, 0xE9	; 233
     61e:	74 5f       	subi	r23, 0xF4	; 244
     620:	6c 65       	ori	r22, 0x5C	; 92
     622:	61 73       	andi	r22, 0x31	; 49
     624:	74 36       	cpi	r23, 0x64	; 100
     626:	34 5f       	subi	r19, 0xF4	; 244
     628:	74 3a       	cpi	r23, 0xA4	; 164
     62a:	74 28       	or	r7, r4
     62c:	35 2c       	mov	r3, r5
     62e:	31 38       	cpi	r19, 0x81	; 129
     630:	29 3d       	cpi	r18, 0xD9	; 217
     632:	28 35       	cpi	r18, 0x58	; 88
     634:	2c 38       	cpi	r18, 0x8C	; 140
     636:	29 00       	.word	0x0029	; ????
     638:	69 6e       	ori	r22, 0xE9	; 233
     63a:	74 5f       	subi	r23, 0xF4	; 244
     63c:	66 61       	ori	r22, 0x16	; 22
     63e:	73 74       	andi	r23, 0x43	; 67
     640:	38 5f       	subi	r19, 0xF8	; 248
     642:	74 3a       	cpi	r23, 0xA4	; 164
     644:	74 28       	or	r7, r4
     646:	35 2c       	mov	r3, r5
     648:	31 39       	cpi	r19, 0x91	; 145
     64a:	29 3d       	cpi	r18, 0xD9	; 217
     64c:	28 35       	cpi	r18, 0x58	; 88
     64e:	2c 31       	cpi	r18, 0x1C	; 28
     650:	29 00       	.word	0x0029	; ????
     652:	75 69       	ori	r23, 0x95	; 149
     654:	6e 74       	andi	r22, 0x4E	; 78
     656:	5f 66       	ori	r21, 0x6F	; 111
     658:	61 73       	andi	r22, 0x31	; 49
     65a:	74 38       	cpi	r23, 0x84	; 132
     65c:	5f 74       	andi	r21, 0x4F	; 79
     65e:	3a 74       	andi	r19, 0x4A	; 74
     660:	28 35       	cpi	r18, 0x58	; 88
     662:	2c 32       	cpi	r18, 0x2C	; 44
     664:	30 29       	or	r19, r0
     666:	3d 28       	or	r3, r13
     668:	35 2c       	mov	r3, r5
     66a:	32 29       	or	r19, r2
     66c:	00 69       	ori	r16, 0x90	; 144
     66e:	6e 74       	andi	r22, 0x4E	; 78
     670:	5f 66       	ori	r21, 0x6F	; 111
     672:	61 73       	andi	r22, 0x31	; 49
     674:	74 31       	cpi	r23, 0x14	; 20
     676:	36 5f       	subi	r19, 0xF6	; 246
     678:	74 3a       	cpi	r23, 0xA4	; 164
     67a:	74 28       	or	r7, r4
     67c:	35 2c       	mov	r3, r5
     67e:	32 31       	cpi	r19, 0x12	; 18
     680:	29 3d       	cpi	r18, 0xD9	; 217
     682:	28 35       	cpi	r18, 0x58	; 88
     684:	2c 33       	cpi	r18, 0x3C	; 60
     686:	29 00       	.word	0x0029	; ????
     688:	75 69       	ori	r23, 0x95	; 149
     68a:	6e 74       	andi	r22, 0x4E	; 78
     68c:	5f 66       	ori	r21, 0x6F	; 111
     68e:	61 73       	andi	r22, 0x31	; 49
     690:	74 31       	cpi	r23, 0x14	; 20
     692:	36 5f       	subi	r19, 0xF6	; 246
     694:	74 3a       	cpi	r23, 0xA4	; 164
     696:	74 28       	or	r7, r4
     698:	35 2c       	mov	r3, r5
     69a:	32 32       	cpi	r19, 0x22	; 34
     69c:	29 3d       	cpi	r18, 0xD9	; 217
     69e:	28 35       	cpi	r18, 0x58	; 88
     6a0:	2c 34       	cpi	r18, 0x4C	; 76
     6a2:	29 00       	.word	0x0029	; ????
     6a4:	69 6e       	ori	r22, 0xE9	; 233
     6a6:	74 5f       	subi	r23, 0xF4	; 244
     6a8:	66 61       	ori	r22, 0x16	; 22
     6aa:	73 74       	andi	r23, 0x43	; 67
     6ac:	33 32       	cpi	r19, 0x23	; 35
     6ae:	5f 74       	andi	r21, 0x4F	; 79
     6b0:	3a 74       	andi	r19, 0x4A	; 74
     6b2:	28 35       	cpi	r18, 0x58	; 88
     6b4:	2c 32       	cpi	r18, 0x2C	; 44
     6b6:	33 29       	or	r19, r3
     6b8:	3d 28       	or	r3, r13
     6ba:	35 2c       	mov	r3, r5
     6bc:	35 29       	or	r19, r5
     6be:	00 75       	andi	r16, 0x50	; 80
     6c0:	69 6e       	ori	r22, 0xE9	; 233
     6c2:	74 5f       	subi	r23, 0xF4	; 244
     6c4:	66 61       	ori	r22, 0x16	; 22
     6c6:	73 74       	andi	r23, 0x43	; 67
     6c8:	33 32       	cpi	r19, 0x23	; 35
     6ca:	5f 74       	andi	r21, 0x4F	; 79
     6cc:	3a 74       	andi	r19, 0x4A	; 74
     6ce:	28 35       	cpi	r18, 0x58	; 88
     6d0:	2c 32       	cpi	r18, 0x2C	; 44
     6d2:	34 29       	or	r19, r4
     6d4:	3d 28       	or	r3, r13
     6d6:	35 2c       	mov	r3, r5
     6d8:	36 29       	or	r19, r6
     6da:	00 69       	ori	r16, 0x90	; 144
     6dc:	6e 74       	andi	r22, 0x4E	; 78
     6de:	5f 66       	ori	r21, 0x6F	; 111
     6e0:	61 73       	andi	r22, 0x31	; 49
     6e2:	74 36       	cpi	r23, 0x64	; 100
     6e4:	34 5f       	subi	r19, 0xF4	; 244
     6e6:	74 3a       	cpi	r23, 0xA4	; 164
     6e8:	74 28       	or	r7, r4
     6ea:	35 2c       	mov	r3, r5
     6ec:	32 35       	cpi	r19, 0x52	; 82
     6ee:	29 3d       	cpi	r18, 0xD9	; 217
     6f0:	28 35       	cpi	r18, 0x58	; 88
     6f2:	2c 37       	cpi	r18, 0x7C	; 124
     6f4:	29 00       	.word	0x0029	; ????
     6f6:	75 69       	ori	r23, 0x95	; 149
     6f8:	6e 74       	andi	r22, 0x4E	; 78
     6fa:	5f 66       	ori	r21, 0x6F	; 111
     6fc:	61 73       	andi	r22, 0x31	; 49
     6fe:	74 36       	cpi	r23, 0x64	; 100
     700:	34 5f       	subi	r19, 0xF4	; 244
     702:	74 3a       	cpi	r23, 0xA4	; 164
     704:	74 28       	or	r7, r4
     706:	35 2c       	mov	r3, r5
     708:	32 36       	cpi	r19, 0x62	; 98
     70a:	29 3d       	cpi	r18, 0xD9	; 217
     70c:	28 35       	cpi	r18, 0x58	; 88
     70e:	2c 38       	cpi	r18, 0x8C	; 140
     710:	29 00       	.word	0x0029	; ????
     712:	69 6e       	ori	r22, 0xE9	; 233
     714:	74 6d       	ori	r23, 0xD4	; 212
     716:	61 78       	andi	r22, 0x81	; 129
     718:	5f 74       	andi	r21, 0x4F	; 79
     71a:	3a 74       	andi	r19, 0x4A	; 74
     71c:	28 35       	cpi	r18, 0x58	; 88
     71e:	2c 32       	cpi	r18, 0x2C	; 44
     720:	37 29       	or	r19, r7
     722:	3d 28       	or	r3, r13
     724:	35 2c       	mov	r3, r5
     726:	37 29       	or	r19, r7
     728:	00 75       	andi	r16, 0x50	; 80
     72a:	69 6e       	ori	r22, 0xE9	; 233
     72c:	74 6d       	ori	r23, 0xD4	; 212
     72e:	61 78       	andi	r22, 0x81	; 129
     730:	5f 74       	andi	r21, 0x4F	; 79
     732:	3a 74       	andi	r19, 0x4A	; 74
     734:	28 35       	cpi	r18, 0x58	; 88
     736:	2c 32       	cpi	r18, 0x2C	; 44
     738:	38 29       	or	r19, r8
     73a:	3d 28       	or	r3, r13
     73c:	35 2c       	mov	r3, r5
     73e:	38 29       	or	r19, r8
     740:	00 69       	ori	r16, 0x90	; 144
     742:	6e 74       	andi	r22, 0x4E	; 78
     744:	5f 66       	ori	r21, 0x6F	; 111
     746:	61 72       	andi	r22, 0x21	; 33
     748:	70 74       	andi	r23, 0x40	; 64
     74a:	72 5f       	subi	r23, 0xF2	; 242
     74c:	74 3a       	cpi	r23, 0xA4	; 164
     74e:	74 28       	or	r7, r4
     750:	34 2c       	mov	r3, r4
     752:	31 29       	or	r19, r1
     754:	3d 28       	or	r3, r13
     756:	35 2c       	mov	r3, r5
     758:	35 29       	or	r19, r5
     75a:	00 75       	andi	r16, 0x50	; 80
     75c:	69 6e       	ori	r22, 0xE9	; 233
     75e:	74 5f       	subi	r23, 0xF4	; 244
     760:	66 61       	ori	r22, 0x16	; 22
     762:	72 70       	andi	r23, 0x02	; 2
     764:	74 72       	andi	r23, 0x24	; 36
     766:	5f 74       	andi	r21, 0x4F	; 79
     768:	3a 74       	andi	r19, 0x4A	; 74
     76a:	28 34       	cpi	r18, 0x48	; 72
     76c:	2c 32       	cpi	r18, 0x2C	; 44
     76e:	29 3d       	cpi	r18, 0xD9	; 217
     770:	28 35       	cpi	r18, 0x58	; 88
     772:	2c 36       	cpi	r18, 0x6C	; 108
     774:	29 00       	.word	0x0029	; ????
     776:	5f 5f       	subi	r21, 0xFF	; 255
     778:	66 72       	andi	r22, 0x26	; 38
     77a:	65 65       	ori	r22, 0x55	; 85
     77c:	6c 69       	ori	r22, 0x9C	; 156
     77e:	73 74       	andi	r23, 0x43	; 67
     780:	3a 54       	subi	r19, 0x4A	; 74
     782:	28 33       	cpi	r18, 0x38	; 56
     784:	2c 31       	cpi	r18, 0x1C	; 28
     786:	29 3d       	cpi	r18, 0xD9	; 217
     788:	73 34       	cpi	r23, 0x43	; 67
     78a:	73 7a       	andi	r23, 0xA3	; 163
     78c:	3a 28       	or	r3, r10
     78e:	32 2c       	mov	r3, r2
     790:	31 29       	or	r19, r1
     792:	2c 30       	cpi	r18, 0x0C	; 12
     794:	2c 31       	cpi	r18, 0x1C	; 28
     796:	36 3b       	cpi	r19, 0xB6	; 182
     798:	6e 78       	andi	r22, 0x8E	; 142
     79a:	3a 28       	or	r3, r10
     79c:	33 2c       	mov	r3, r3
     79e:	32 29       	or	r19, r2
     7a0:	3d 2a       	or	r3, r29
     7a2:	28 33       	cpi	r18, 0x38	; 56
     7a4:	2c 31       	cpi	r18, 0x1C	; 28
     7a6:	29 2c       	mov	r2, r9
     7a8:	31 36       	cpi	r19, 0x61	; 97
     7aa:	2c 31       	cpi	r18, 0x1C	; 28
     7ac:	36 3b       	cpi	r19, 0xB6	; 182
     7ae:	3b 00       	.word	0x003b	; ????
     7b0:	6d 61       	ori	r22, 0x1D	; 29
     7b2:	6c 6c       	ori	r22, 0xCC	; 204
     7b4:	6f 63       	ori	r22, 0x3F	; 63
     7b6:	3a 46       	sbci	r19, 0x6A	; 106
     7b8:	28 30       	cpi	r18, 0x08	; 8
     7ba:	2c 31       	cpi	r18, 0x1C	; 28
     7bc:	36 29       	or	r19, r6
     7be:	3d 2a       	or	r3, r29
     7c0:	28 30       	cpi	r18, 0x08	; 8
     7c2:	2c 31       	cpi	r18, 0x1C	; 28
     7c4:	35 29       	or	r19, r5
     7c6:	00 6c       	ori	r16, 0xC0	; 192
     7c8:	65 6e       	ori	r22, 0xE5	; 229
     7ca:	3a 50       	subi	r19, 0x0A	; 10
     7cc:	28 32       	cpi	r18, 0x28	; 40
     7ce:	2c 31       	cpi	r18, 0x1C	; 28
     7d0:	29 00       	.word	0x0029	; ????
     7d2:	66 70       	andi	r22, 0x06	; 6
     7d4:	31 3a       	cpi	r19, 0xA1	; 161
     7d6:	72 28       	or	r7, r2
     7d8:	33 2c       	mov	r3, r3
     7da:	32 29       	or	r19, r2
     7dc:	00 66       	ori	r16, 0x60	; 96
     7de:	70 32       	cpi	r23, 0x20	; 32
     7e0:	3a 72       	andi	r19, 0x2A	; 42
     7e2:	28 33       	cpi	r18, 0x38	; 56
     7e4:	2c 32       	cpi	r18, 0x2C	; 44
     7e6:	29 00       	.word	0x0029	; ????
     7e8:	63 70       	andi	r22, 0x03	; 3
     7ea:	3a 72       	andi	r19, 0x2A	; 42
     7ec:	28 30       	cpi	r18, 0x08	; 8
     7ee:	2c 31       	cpi	r18, 0x1C	; 28
     7f0:	37 29       	or	r19, r7
     7f2:	3d 2a       	or	r3, r29
     7f4:	28 30       	cpi	r18, 0x08	; 8
     7f6:	2c 32       	cpi	r18, 0x2C	; 44
     7f8:	29 00       	.word	0x0029	; ????
     7fa:	73 3a       	cpi	r23, 0xA3	; 163
     7fc:	72 28       	or	r7, r2
     7fe:	32 2c       	mov	r3, r2
     800:	31 29       	or	r19, r1
     802:	00 61       	ori	r16, 0x10	; 16
     804:	76 61       	ori	r23, 0x16	; 22
     806:	69 6c       	ori	r22, 0xC9	; 201
     808:	3a 72       	andi	r19, 0x2A	; 42
     80a:	28 32       	cpi	r18, 0x28	; 40
     80c:	2c 31       	cpi	r18, 0x1C	; 28
     80e:	29 00       	.word	0x0029	; ????
     810:	66 72       	andi	r22, 0x26	; 38
     812:	65 65       	ori	r22, 0x55	; 85
     814:	3a 46       	sbci	r19, 0x6A	; 106
     816:	28 30       	cpi	r18, 0x08	; 8
     818:	2c 31       	cpi	r18, 0x1C	; 28
     81a:	35 29       	or	r19, r5
     81c:	00 70       	andi	r16, 0x00	; 0
     81e:	3a 50       	subi	r19, 0x0A	; 10
     820:	28 30       	cpi	r18, 0x08	; 8
     822:	2c 31       	cpi	r18, 0x1C	; 28
     824:	36 29       	or	r19, r6
     826:	00 5f       	subi	r16, 0xF0	; 240
     828:	5f 6d       	ori	r21, 0xDF	; 223
     82a:	61 6c       	ori	r22, 0xC1	; 193
     82c:	6c 6f       	ori	r22, 0xFC	; 252
     82e:	63 5f       	subi	r22, 0xF3	; 243
     830:	6d 61       	ori	r22, 0x1D	; 29
     832:	72 67       	ori	r23, 0x72	; 114
     834:	69 6e       	ori	r22, 0xE9	; 233
     836:	3a 47       	sbci	r19, 0x7A	; 122
     838:	28 32       	cpi	r18, 0x28	; 40
     83a:	2c 31       	cpi	r18, 0x1C	; 28
     83c:	29 00       	.word	0x0029	; ????
     83e:	5f 5f       	subi	r21, 0xFF	; 255
     840:	6d 61       	ori	r22, 0x1D	; 29
     842:	6c 6c       	ori	r22, 0xCC	; 204
     844:	6f 63       	ori	r22, 0x3F	; 63
     846:	5f 68       	ori	r21, 0x8F	; 143
     848:	65 61       	ori	r22, 0x15	; 21
     84a:	70 5f       	subi	r23, 0xF0	; 240
     84c:	73 74       	andi	r23, 0x43	; 67
     84e:	61 72       	andi	r22, 0x21	; 33
     850:	74 3a       	cpi	r23, 0xA4	; 164
     852:	47 28       	or	r4, r7
     854:	30 2c       	mov	r3, r0
     856:	31 37       	cpi	r19, 0x71	; 113
     858:	29 00       	.word	0x0029	; ????
     85a:	5f 5f       	subi	r21, 0xFF	; 255
     85c:	6d 61       	ori	r22, 0x1D	; 29
     85e:	6c 6c       	ori	r22, 0xCC	; 204
     860:	6f 63       	ori	r22, 0x3F	; 63
     862:	5f 68       	ori	r21, 0x8F	; 143
     864:	65 61       	ori	r22, 0x15	; 21
     866:	70 5f       	subi	r23, 0xF0	; 240
     868:	65 6e       	ori	r22, 0xE5	; 229
     86a:	64 3a       	cpi	r22, 0xA4	; 164
     86c:	47 28       	or	r4, r7
     86e:	30 2c       	mov	r3, r0
     870:	31 37       	cpi	r19, 0x71	; 113
     872:	29 00       	.word	0x0029	; ????
     874:	5f 5f       	subi	r21, 0xFF	; 255
     876:	62 72       	andi	r22, 0x22	; 34
     878:	6b 76       	andi	r22, 0x6B	; 107
     87a:	61 6c       	ori	r22, 0xC1	; 193
     87c:	3a 47       	sbci	r19, 0x7A	; 122
     87e:	28 30       	cpi	r18, 0x08	; 8
     880:	2c 31       	cpi	r18, 0x1C	; 28
     882:	37 29       	or	r19, r7
     884:	00 5f       	subi	r16, 0xF0	; 240
     886:	5f 66       	ori	r21, 0x6F	; 111
     888:	6c 70       	andi	r22, 0x0C	; 12
     88a:	3a 47       	sbci	r19, 0x7A	; 122
     88c:	28 33       	cpi	r18, 0x38	; 56
     88e:	2c 32       	cpi	r18, 0x2C	; 44
     890:	29 00       	.word	0x0029	; ????
     892:	2e 2e       	mov	r2, r30
     894:	2f 2e       	mov	r2, r31
     896:	2e 2f       	mov	r18, r30
     898:	2e 2e       	mov	r2, r30
     89a:	2f 6c       	ori	r18, 0xCF	; 207
     89c:	69 62       	ori	r22, 0x29	; 41
     89e:	63 2f       	mov	r22, r19
     8a0:	73 74       	andi	r23, 0x43	; 67
     8a2:	64 6c       	ori	r22, 0xC4	; 196
     8a4:	69 62       	ori	r22, 0x29	; 41
     8a6:	2f 72       	andi	r18, 0x2F	; 47
     8a8:	61 6e       	ori	r22, 0xE1	; 225
     8aa:	64 2e       	mov	r6, r20
     8ac:	63 00       	.word	0x0063	; ????
     8ae:	64 6f       	ori	r22, 0xF4	; 244
     8b0:	5f 72       	andi	r21, 0x2F	; 47
     8b2:	61 6e       	ori	r22, 0xE1	; 225
     8b4:	64 3a       	cpi	r22, 0xA4	; 164
     8b6:	66 28       	or	r6, r6
     8b8:	30 2c       	mov	r3, r0
     8ba:	31 29       	or	r19, r1
     8bc:	00 63       	ori	r16, 0x30	; 48
     8be:	74 78       	andi	r23, 0x84	; 132
     8c0:	3a 50       	subi	r19, 0x0A	; 10
     8c2:	28 30       	cpi	r18, 0x08	; 8
     8c4:	2c 31       	cpi	r18, 0x1C	; 28
     8c6:	36 29       	or	r19, r6
     8c8:	3d 2a       	or	r3, r29
     8ca:	28 30       	cpi	r18, 0x08	; 8
     8cc:	2c 35       	cpi	r18, 0x5C	; 92
     8ce:	29 00       	.word	0x0029	; ????
     8d0:	78 3a       	cpi	r23, 0xA8	; 168
     8d2:	72 28       	or	r7, r2
     8d4:	30 2c       	mov	r3, r0
     8d6:	33 29       	or	r19, r3
     8d8:	00 72       	andi	r16, 0x20	; 32
     8da:	61 6e       	ori	r22, 0xE1	; 225
     8dc:	64 5f       	subi	r22, 0xF4	; 244
     8de:	72 3a       	cpi	r23, 0xA2	; 162
     8e0:	46 28       	or	r4, r6
     8e2:	30 2c       	mov	r3, r0
     8e4:	31 29       	or	r19, r1
     8e6:	00 63       	ori	r16, 0x30	; 48
     8e8:	74 78       	andi	r23, 0x84	; 132
     8ea:	3a 50       	subi	r19, 0x0A	; 10
     8ec:	28 30       	cpi	r18, 0x08	; 8
     8ee:	2c 31       	cpi	r18, 0x1C	; 28
     8f0:	36 29       	or	r19, r6
     8f2:	00 72       	andi	r16, 0x20	; 32
     8f4:	61 6e       	ori	r22, 0xE1	; 225
     8f6:	64 3a       	cpi	r22, 0xA4	; 164
     8f8:	46 28       	or	r4, r6
     8fa:	30 2c       	mov	r3, r0
     8fc:	31 29       	or	r19, r1
     8fe:	00 73       	andi	r16, 0x30	; 48
     900:	72 61       	ori	r23, 0x12	; 18
     902:	6e 64       	ori	r22, 0x4E	; 78
     904:	3a 46       	sbci	r19, 0x6A	; 106
     906:	28 30       	cpi	r18, 0x08	; 8
     908:	2c 31       	cpi	r18, 0x1C	; 28
     90a:	35 29       	or	r19, r5
     90c:	00 73       	andi	r16, 0x30	; 48
     90e:	65 65       	ori	r22, 0x55	; 85
     910:	64 3a       	cpi	r22, 0xA4	; 164
     912:	50 28       	or	r5, r0
     914:	30 2c       	mov	r3, r0
     916:	34 29       	or	r19, r4
     918:	00 6e       	ori	r16, 0xE0	; 224
     91a:	65 78       	andi	r22, 0x85	; 133
     91c:	74 3a       	cpi	r23, 0xA4	; 164
     91e:	53 28       	or	r5, r3
     920:	30 2c       	mov	r3, r0
     922:	35 29       	or	r19, r5
     924:	00 2f       	mov	r16, r16
     926:	74 6d       	ori	r23, 0xD4	; 212
     928:	70 2f       	mov	r23, r16
     92a:	63 63       	ori	r22, 0x33	; 51
     92c:	43 39       	cpi	r20, 0x93	; 147
     92e:	58 58       	subi	r21, 0x88	; 136
     930:	34 73       	andi	r19, 0x34	; 52
     932:	2e 73       	andi	r18, 0x3E	; 62
     934:	00 2e       	mov	r0, r16
     936:	2e 2f       	mov	r18, r30
     938:	2e 2e       	mov	r2, r30
     93a:	2f 2e       	mov	r2, r31
     93c:	2e 2f       	mov	r18, r30
     93e:	6c 69       	ori	r22, 0x9C	; 156
     940:	62 63       	ori	r22, 0x32	; 50
     942:	2f 73       	andi	r18, 0x3F	; 63
     944:	74 64       	ori	r23, 0x44	; 68
     946:	6c 69       	ori	r22, 0x9C	; 156
     948:	62 2f       	mov	r22, r18
     94a:	61 62       	ori	r22, 0x21	; 33
     94c:	6f 72       	andi	r22, 0x2F	; 47
     94e:	74 2e       	mov	r7, r20
     950:	53 00       	.word	0x0053	; ????
     952:	2f 74       	andi	r18, 0x4F	; 79
     954:	6d 70       	andi	r22, 0x0D	; 13
     956:	2f 63       	ori	r18, 0x3F	; 63
     958:	63 33       	cpi	r22, 0x33	; 51
     95a:	46 52       	subi	r20, 0x26	; 38
     95c:	38 73       	andi	r19, 0x38	; 56
     95e:	4b 2e       	mov	r4, r27
     960:	73 00       	.word	0x0073	; ????
     962:	2e 2e       	mov	r2, r30
     964:	2f 2e       	mov	r2, r31
     966:	2e 2f       	mov	r18, r30
     968:	2e 2e       	mov	r2, r30
     96a:	2f 6c       	ori	r18, 0xCF	; 207
     96c:	69 62       	ori	r22, 0x29	; 41
     96e:	63 2f       	mov	r22, r19
     970:	73 74       	andi	r23, 0x43	; 67
     972:	72 69       	ori	r23, 0x92	; 146
     974:	6e 67       	ori	r22, 0x7E	; 126
     976:	2f 6d       	ori	r18, 0xDF	; 223
     978:	65 6d       	ori	r22, 0xD5	; 213
     97a:	63 70       	andi	r22, 0x03	; 3
     97c:	79 2e       	mov	r7, r25
     97e:	53 00       	.word	0x0053	; ????
     980:	2f 74       	andi	r18, 0x4F	; 79
     982:	6d 70       	andi	r22, 0x0D	; 13
     984:	2f 63       	ori	r18, 0x3F	; 63
     986:	63 63       	ori	r22, 0x33	; 51
     988:	7a 75       	andi	r23, 0x5A	; 90
     98a:	38 49       	sbci	r19, 0x98	; 152
     98c:	50 2e       	mov	r5, r16
     98e:	73 00       	.word	0x0073	; ????
     990:	2e 2e       	mov	r2, r30
     992:	2f 2e       	mov	r2, r31
     994:	2e 2f       	mov	r18, r30
     996:	2e 2e       	mov	r2, r30
     998:	2f 6c       	ori	r18, 0xCF	; 207
     99a:	69 62       	ori	r22, 0x29	; 41
     99c:	63 2f       	mov	r22, r19
     99e:	73 74       	andi	r23, 0x43	; 67
     9a0:	72 69       	ori	r23, 0x92	; 146
     9a2:	6e 67       	ori	r22, 0x7E	; 126
     9a4:	2f 73       	andi	r18, 0x3F	; 63
     9a6:	74 72       	andi	r23, 0x24	; 36
     9a8:	63 6d       	ori	r22, 0xD3	; 211
     9aa:	70 2e       	mov	r7, r16
     9ac:	53 00       	.word	0x0053	; ????
     9ae:	2e 2e       	mov	r2, r30
     9b0:	2f 2e       	mov	r2, r31
     9b2:	2e 2f       	mov	r18, r30
     9b4:	2e 2e       	mov	r2, r30
     9b6:	2f 6c       	ori	r18, 0xCF	; 207
     9b8:	69 62       	ori	r22, 0x29	; 41
     9ba:	63 2f       	mov	r22, r19
     9bc:	73 74       	andi	r23, 0x43	; 67
     9be:	64 69       	ori	r22, 0x94	; 148
     9c0:	6f 2f       	mov	r22, r31
     9c2:	73 6e       	ori	r23, 0xE3	; 227
     9c4:	70 72       	andi	r23, 0x20	; 32
     9c6:	69 6e       	ori	r22, 0xE9	; 233
     9c8:	74 66       	ori	r23, 0x64	; 100
     9ca:	2e 63       	ori	r18, 0x3E	; 62
     9cc:	00 2f       	mov	r16, r16
     9ce:	75 73       	andi	r23, 0x35	; 53
     9d0:	72 2f       	mov	r23, r18
     9d2:	6c 69       	ori	r22, 0x9C	; 156
     9d4:	62 2f       	mov	r22, r18
     9d6:	67 63       	ori	r22, 0x37	; 55
     9d8:	63 2f       	mov	r22, r19
     9da:	61 76       	andi	r22, 0x61	; 97
     9dc:	72 2f       	mov	r23, r18
     9de:	34 2e       	mov	r3, r20
     9e0:	33 2e       	mov	r3, r19
     9e2:	35 2f       	mov	r19, r21
     9e4:	69 6e       	ori	r22, 0xE9	; 233
     9e6:	63 6c       	ori	r22, 0xC3	; 195
     9e8:	75 64       	ori	r23, 0x45	; 69
     9ea:	65 2f       	mov	r22, r21
     9ec:	73 74       	andi	r23, 0x43	; 67
     9ee:	64 61       	ori	r22, 0x14	; 20
     9f0:	72 67       	ori	r23, 0x72	; 114
     9f2:	2e 68       	ori	r18, 0x8E	; 142
     9f4:	00 5f       	subi	r16, 0xF0	; 240
     9f6:	5f 67       	ori	r21, 0x7F	; 127
     9f8:	6e 75       	andi	r22, 0x5E	; 94
     9fa:	63 5f       	subi	r22, 0xF3	; 243
     9fc:	76 61       	ori	r23, 0x16	; 22
     9fe:	5f 6c       	ori	r21, 0xCF	; 207
     a00:	69 73       	andi	r22, 0x39	; 57
     a02:	74 3a       	cpi	r23, 0xA4	; 164
     a04:	74 28       	or	r7, r4
     a06:	31 2c       	mov	r3, r1
     a08:	31 29       	or	r19, r1
     a0a:	3d 28       	or	r3, r13
     a0c:	31 2c       	mov	r3, r1
     a0e:	32 29       	or	r19, r2
     a10:	3d 2a       	or	r3, r29
     a12:	28 30       	cpi	r18, 0x08	; 8
     a14:	2c 31       	cpi	r18, 0x1C	; 28
     a16:	35 29       	or	r19, r5
     a18:	00 76       	andi	r16, 0x60	; 96
     a1a:	61 5f       	subi	r22, 0xF1	; 241
     a1c:	6c 69       	ori	r22, 0x9C	; 156
     a1e:	73 74       	andi	r23, 0x43	; 67
     a20:	3a 74       	andi	r19, 0x4A	; 74
     a22:	28 31       	cpi	r18, 0x18	; 24
     a24:	2c 33       	cpi	r18, 0x3C	; 60
     a26:	29 3d       	cpi	r18, 0xD9	; 217
     a28:	28 31       	cpi	r18, 0x18	; 24
     a2a:	2c 31       	cpi	r18, 0x1C	; 28
     a2c:	29 00       	.word	0x0029	; ????
     a2e:	2e 2e       	mov	r2, r30
     a30:	2f 2e       	mov	r2, r31
     a32:	2e 2f       	mov	r18, r30
     a34:	2e 2e       	mov	r2, r30
     a36:	2f 69       	ori	r18, 0x9F	; 159
     a38:	6e 63       	ori	r22, 0x3E	; 62
     a3a:	6c 75       	andi	r22, 0x5C	; 92
     a3c:	64 65       	ori	r22, 0x54	; 84
     a3e:	2f 73       	andi	r18, 0x3F	; 63
     a40:	74 64       	ori	r23, 0x44	; 68
     a42:	69 6f       	ori	r22, 0xF9	; 249
     a44:	2e 68       	ori	r18, 0x8E	; 142
     a46:	00 73       	andi	r16, 0x30	; 48
     a48:	69 7a       	andi	r22, 0xA9	; 169
     a4a:	65 5f       	subi	r22, 0xF5	; 245
     a4c:	74 3a       	cpi	r23, 0xA4	; 164
     a4e:	74 28       	or	r7, r4
     a50:	35 2c       	mov	r3, r5
     a52:	31 29       	or	r19, r1
     a54:	3d 28       	or	r3, r13
     a56:	30 2c       	mov	r3, r0
     a58:	34 29       	or	r19, r4
     a5a:	00 5f       	subi	r16, 0xF0	; 240
     a5c:	5f 66       	ori	r21, 0x6F	; 111
     a5e:	69 6c       	ori	r22, 0xC9	; 201
     a60:	65 3a       	cpi	r22, 0xA5	; 165
     a62:	54 28       	or	r5, r4
     a64:	32 2c       	mov	r3, r2
     a66:	31 29       	or	r19, r1
     a68:	3d 73       	andi	r19, 0x3D	; 61
     a6a:	31 34       	cpi	r19, 0x41	; 65
     a6c:	62 75       	andi	r22, 0x52	; 82
     a6e:	66 3a       	cpi	r22, 0xA6	; 166
     a70:	28 32       	cpi	r18, 0x28	; 40
     a72:	2c 32       	cpi	r18, 0x2C	; 44
     a74:	29 3d       	cpi	r18, 0xD9	; 217
     a76:	2a 28       	or	r2, r10
     a78:	30 2c       	mov	r3, r0
     a7a:	32 29       	or	r19, r2
     a7c:	2c 30       	cpi	r18, 0x0C	; 12
     a7e:	2c 31       	cpi	r18, 0x1C	; 28
     a80:	36 3b       	cpi	r19, 0xB6	; 182
     a82:	75 6e       	ori	r23, 0xE5	; 229
     a84:	67 65       	ori	r22, 0x57	; 87
     a86:	74 3a       	cpi	r23, 0xA4	; 164
     a88:	28 30       	cpi	r18, 0x08	; 8
     a8a:	2c 31       	cpi	r18, 0x1C	; 28
     a8c:	31 29       	or	r19, r1
     a8e:	2c 31       	cpi	r18, 0x1C	; 28
     a90:	36 2c       	mov	r3, r6
     a92:	38 3b       	cpi	r19, 0xB8	; 184
     a94:	66 6c       	ori	r22, 0xC6	; 198
     a96:	61 67       	ori	r22, 0x71	; 113
     a98:	73 3a       	cpi	r23, 0xA3	; 163
     a9a:	28 34       	cpi	r18, 0x48	; 72
     a9c:	2c 32       	cpi	r18, 0x2C	; 44
     a9e:	29 2c       	mov	r2, r9
     aa0:	32 34       	cpi	r19, 0x42	; 66
     aa2:	2c 38       	cpi	r18, 0x8C	; 140
     aa4:	3b 73       	andi	r19, 0x3B	; 59
     aa6:	69 7a       	andi	r22, 0xA9	; 169
     aa8:	65 3a       	cpi	r22, 0xA5	; 165
     aaa:	28 30       	cpi	r18, 0x08	; 8
     aac:	2c 31       	cpi	r18, 0x1C	; 28
     aae:	29 2c       	mov	r2, r9
     ab0:	33 32       	cpi	r19, 0x23	; 35
     ab2:	2c 31       	cpi	r18, 0x1C	; 28
     ab4:	36 3b       	cpi	r19, 0xB6	; 182
     ab6:	6c 65       	ori	r22, 0x5C	; 92
     ab8:	6e 3a       	cpi	r22, 0xAE	; 174
     aba:	28 30       	cpi	r18, 0x08	; 8
     abc:	2c 31       	cpi	r18, 0x1C	; 28
     abe:	29 2c       	mov	r2, r9
     ac0:	34 38       	cpi	r19, 0x84	; 132
     ac2:	2c 31       	cpi	r18, 0x1C	; 28
     ac4:	36 3b       	cpi	r19, 0xB6	; 182
     ac6:	70 75       	andi	r23, 0x50	; 80
     ac8:	74 3a       	cpi	r23, 0xA4	; 164
     aca:	28 32       	cpi	r18, 0x28	; 40
     acc:	2c 33       	cpi	r18, 0x3C	; 60
     ace:	29 3d       	cpi	r18, 0xD9	; 217
     ad0:	2a 28       	or	r2, r10
     ad2:	32 2c       	mov	r3, r2
     ad4:	34 29       	or	r19, r4
     ad6:	3d 66       	ori	r19, 0x6D	; 109
     ad8:	28 30       	cpi	r18, 0x08	; 8
     ada:	2c 31       	cpi	r18, 0x1C	; 28
     adc:	29 2c       	mov	r2, r9
     ade:	36 34       	cpi	r19, 0x46	; 70
     ae0:	2c 31       	cpi	r18, 0x1C	; 28
     ae2:	36 3b       	cpi	r19, 0xB6	; 182
     ae4:	67 65       	ori	r22, 0x57	; 87
     ae6:	74 3a       	cpi	r23, 0xA4	; 164
     ae8:	28 32       	cpi	r18, 0x28	; 40
     aea:	2c 35       	cpi	r18, 0x5C	; 92
     aec:	29 3d       	cpi	r18, 0xD9	; 217
     aee:	2a 28       	or	r2, r10
     af0:	32 2c       	mov	r3, r2
     af2:	36 29       	or	r19, r6
     af4:	3d 66       	ori	r19, 0x6D	; 109
     af6:	28 30       	cpi	r18, 0x08	; 8
     af8:	2c 31       	cpi	r18, 0x1C	; 28
     afa:	29 2c       	mov	r2, r9
     afc:	38 30       	cpi	r19, 0x08	; 8
     afe:	2c 31       	cpi	r18, 0x1C	; 28
     b00:	36 3b       	cpi	r19, 0xB6	; 182
     b02:	75 64       	ori	r23, 0x45	; 69
     b04:	61 74       	andi	r22, 0x41	; 65
     b06:	61 3a       	cpi	r22, 0xA1	; 161
     b08:	28 32       	cpi	r18, 0x28	; 40
     b0a:	2c 37       	cpi	r18, 0x7C	; 124
     b0c:	29 3d       	cpi	r18, 0xD9	; 217
     b0e:	2a 28       	or	r2, r10
     b10:	30 2c       	mov	r3, r0
     b12:	31 35       	cpi	r19, 0x51	; 81
     b14:	29 2c       	mov	r2, r9
     b16:	39 36       	cpi	r19, 0x69	; 105
     b18:	2c 31       	cpi	r18, 0x1C	; 28
     b1a:	36 3b       	cpi	r19, 0xB6	; 182
     b1c:	3b 00       	.word	0x003b	; ????
     b1e:	73 6e       	ori	r23, 0xE3	; 227
     b20:	70 72       	andi	r23, 0x20	; 32
     b22:	69 6e       	ori	r22, 0xE9	; 233
     b24:	74 66       	ori	r23, 0x64	; 100
     b26:	3a 46       	sbci	r19, 0x6A	; 106
     b28:	28 30       	cpi	r18, 0x08	; 8
     b2a:	2c 31       	cpi	r18, 0x1C	; 28
     b2c:	29 00       	.word	0x0029	; ????
     b2e:	73 3a       	cpi	r23, 0xA3	; 163
     b30:	70 28       	or	r7, r0
     b32:	32 2c       	mov	r3, r2
     b34:	32 29       	or	r19, r2
     b36:	00 6e       	ori	r16, 0xE0	; 224
     b38:	3a 70       	andi	r19, 0x0A	; 10
     b3a:	28 35       	cpi	r18, 0x58	; 88
     b3c:	2c 31       	cpi	r18, 0x1C	; 28
     b3e:	29 00       	.word	0x0029	; ????
     b40:	66 6d       	ori	r22, 0xD6	; 214
     b42:	74 3a       	cpi	r23, 0xA4	; 164
     b44:	70 28       	or	r7, r0
     b46:	30 2c       	mov	r3, r0
     b48:	31 36       	cpi	r19, 0x61	; 97
     b4a:	29 3d       	cpi	r18, 0xD9	; 217
     b4c:	2a 28       	or	r2, r10
     b4e:	30 2c       	mov	r3, r0
     b50:	31 37       	cpi	r19, 0x71	; 113
     b52:	29 3d       	cpi	r18, 0xD9	; 217
     b54:	6b 28       	or	r6, r11
     b56:	30 2c       	mov	r3, r0
     b58:	32 29       	or	r19, r2
     b5a:	00 66       	ori	r16, 0x60	; 96
     b5c:	3a 28       	or	r3, r10
     b5e:	32 2c       	mov	r3, r2
     b60:	31 29       	or	r19, r1
     b62:	00 73       	andi	r16, 0x30	; 48
     b64:	3a 72       	andi	r19, 0x2A	; 42
     b66:	28 32       	cpi	r18, 0x28	; 40
     b68:	2c 32       	cpi	r18, 0x2C	; 44
     b6a:	29 00       	.word	0x0029	; ????
     b6c:	6e 3a       	cpi	r22, 0xAE	; 174
     b6e:	72 28       	or	r7, r2
     b70:	35 2c       	mov	r3, r5
     b72:	31 29       	or	r19, r1
     b74:	00 2e       	mov	r0, r16
     b76:	2e 2f       	mov	r18, r30
     b78:	2e 2e       	mov	r2, r30
     b7a:	2f 2e       	mov	r2, r31
     b7c:	2e 2f       	mov	r18, r30
     b7e:	6c 69       	ori	r22, 0x9C	; 156
     b80:	62 63       	ori	r22, 0x32	; 50
     b82:	2f 73       	andi	r18, 0x3F	; 63
     b84:	74 64       	ori	r23, 0x44	; 68
     b86:	69 6f       	ori	r22, 0xF9	; 249
     b88:	2f 73       	andi	r18, 0x3F	; 63
     b8a:	70 72       	andi	r23, 0x20	; 32
     b8c:	69 6e       	ori	r22, 0xE9	; 233
     b8e:	74 66       	ori	r23, 0x64	; 100
     b90:	2e 63       	ori	r18, 0x3E	; 62
     b92:	00 73       	andi	r16, 0x30	; 48
     b94:	70 72       	andi	r23, 0x20	; 32
     b96:	69 6e       	ori	r22, 0xE9	; 233
     b98:	74 66       	ori	r23, 0x64	; 100
     b9a:	3a 46       	sbci	r19, 0x6A	; 106
     b9c:	28 30       	cpi	r18, 0x08	; 8
     b9e:	2c 31       	cpi	r18, 0x1C	; 28
     ba0:	29 00       	.word	0x0029	; ????
     ba2:	2e 2e       	mov	r2, r30
     ba4:	2f 2e       	mov	r2, r31
     ba6:	2e 2f       	mov	r18, r30
     ba8:	2e 2e       	mov	r2, r30
     baa:	2f 6c       	ori	r18, 0xCF	; 207
     bac:	69 62       	ori	r22, 0x29	; 41
     bae:	63 2f       	mov	r22, r19
     bb0:	73 74       	andi	r23, 0x43	; 67
     bb2:	64 69       	ori	r22, 0x94	; 148
     bb4:	6f 2f       	mov	r22, r31
     bb6:	76 73       	andi	r23, 0x36	; 54
     bb8:	6e 70       	andi	r22, 0x0E	; 14
     bba:	72 69       	ori	r23, 0x92	; 146
     bbc:	6e 74       	andi	r22, 0x4E	; 78
     bbe:	66 2e       	mov	r6, r22
     bc0:	63 00       	.word	0x0063	; ????
     bc2:	76 73       	andi	r23, 0x36	; 54
     bc4:	6e 70       	andi	r22, 0x0E	; 14
     bc6:	72 69       	ori	r23, 0x92	; 146
     bc8:	6e 74       	andi	r22, 0x4E	; 78
     bca:	66 3a       	cpi	r22, 0xA6	; 166
     bcc:	46 28       	or	r4, r6
     bce:	30 2c       	mov	r3, r0
     bd0:	31 29       	or	r19, r1
     bd2:	00 73       	andi	r16, 0x30	; 48
     bd4:	3a 50       	subi	r19, 0x0A	; 10
     bd6:	28 32       	cpi	r18, 0x28	; 40
     bd8:	2c 32       	cpi	r18, 0x2C	; 44
     bda:	29 00       	.word	0x0029	; ????
     bdc:	6e 3a       	cpi	r22, 0xAE	; 174
     bde:	50 28       	or	r5, r0
     be0:	35 2c       	mov	r3, r5
     be2:	31 29       	or	r19, r1
     be4:	00 66       	ori	r16, 0x60	; 96
     be6:	6d 74       	andi	r22, 0x4D	; 77
     be8:	3a 50       	subi	r19, 0x0A	; 10
     bea:	28 30       	cpi	r18, 0x08	; 8
     bec:	2c 31       	cpi	r18, 0x1C	; 28
     bee:	36 29       	or	r19, r6
     bf0:	3d 2a       	or	r3, r29
     bf2:	28 30       	cpi	r18, 0x08	; 8
     bf4:	2c 31       	cpi	r18, 0x1C	; 28
     bf6:	37 29       	or	r19, r7
     bf8:	3d 6b       	ori	r19, 0xBD	; 189
     bfa:	28 30       	cpi	r18, 0x08	; 8
     bfc:	2c 32       	cpi	r18, 0x2C	; 44
     bfe:	29 00       	.word	0x0029	; ????
     c00:	61 70       	andi	r22, 0x01	; 1
     c02:	3a 50       	subi	r19, 0x0A	; 10
     c04:	28 31       	cpi	r18, 0x18	; 24
     c06:	2c 33       	cpi	r18, 0x3C	; 60
     c08:	29 00       	.word	0x0029	; ????
     c0a:	2e 2e       	mov	r2, r30
     c0c:	2f 2e       	mov	r2, r31
     c0e:	2e 2f       	mov	r18, r30
     c10:	2e 2e       	mov	r2, r30
     c12:	2f 6c       	ori	r18, 0xCF	; 207
     c14:	69 62       	ori	r22, 0x29	; 41
     c16:	63 2f       	mov	r22, r19
     c18:	73 74       	andi	r23, 0x43	; 67
     c1a:	64 69       	ori	r22, 0x94	; 148
     c1c:	6f 2f       	mov	r22, r31
     c1e:	76 73       	andi	r23, 0x36	; 54
     c20:	70 72       	andi	r23, 0x20	; 32
     c22:	69 6e       	ori	r22, 0xE9	; 233
     c24:	74 66       	ori	r23, 0x64	; 100
     c26:	2e 63       	ori	r18, 0x3E	; 62
     c28:	00 76       	andi	r16, 0x60	; 96
     c2a:	73 70       	andi	r23, 0x03	; 3
     c2c:	72 69       	ori	r23, 0x92	; 146
     c2e:	6e 74       	andi	r22, 0x4E	; 78
     c30:	66 3a       	cpi	r22, 0xA6	; 166
     c32:	46 28       	or	r4, r6
     c34:	30 2c       	mov	r3, r0
     c36:	31 29       	or	r19, r1
     c38:	00 2e       	mov	r0, r16
     c3a:	2e 2f       	mov	r18, r30
     c3c:	2e 2e       	mov	r2, r30
     c3e:	2f 2e       	mov	r2, r31
     c40:	2e 2f       	mov	r18, r30
     c42:	6c 69       	ori	r22, 0x9C	; 156
     c44:	62 63       	ori	r22, 0x32	; 50
     c46:	2f 73       	andi	r18, 0x3F	; 63
     c48:	74 64       	ori	r23, 0x44	; 68
     c4a:	69 6f       	ori	r22, 0xF9	; 249
     c4c:	2f 76       	andi	r18, 0x6F	; 111
     c4e:	66 70       	andi	r22, 0x06	; 6
     c50:	72 69       	ori	r23, 0x92	; 146
     c52:	6e 74       	andi	r22, 0x4E	; 78
     c54:	66 2e       	mov	r6, r22
     c56:	63 00       	.word	0x0063	; ????
     c58:	2e 2e       	mov	r2, r30
     c5a:	2f 2e       	mov	r2, r31
     c5c:	2e 2f       	mov	r18, r30
     c5e:	2e 2e       	mov	r2, r30
     c60:	2f 69       	ori	r18, 0x9F	; 159
     c62:	6e 63       	ori	r22, 0x3E	; 62
     c64:	6c 75       	andi	r22, 0x5C	; 92
     c66:	64 65       	ori	r22, 0x54	; 84
     c68:	2f 61       	ori	r18, 0x1F	; 31
     c6a:	76 72       	andi	r23, 0x26	; 38
     c6c:	2f 70       	andi	r18, 0x0F	; 15
     c6e:	67 6d       	ori	r22, 0xD7	; 215
     c70:	73 70       	andi	r23, 0x03	; 3
     c72:	61 63       	ori	r22, 0x31	; 49
     c74:	65 2e       	mov	r6, r21
     c76:	68 00       	.word	0x0068	; ????
     c78:	70 72       	andi	r23, 0x20	; 32
     c7a:	6f 67       	ori	r22, 0x7F	; 127
     c7c:	5f 76       	andi	r21, 0x6F	; 111
     c7e:	6f 69       	ori	r22, 0x9F	; 159
     c80:	64 3a       	cpi	r22, 0xA4	; 164
     c82:	74 28       	or	r7, r4
     c84:	31 2c       	mov	r3, r1
     c86:	31 29       	or	r19, r1
     c88:	3d 28       	or	r3, r13
     c8a:	31 2c       	mov	r3, r1
     c8c:	32 29       	or	r19, r2
     c8e:	3d 28       	or	r3, r13
     c90:	31 2c       	mov	r3, r1
     c92:	32 29       	or	r19, r2
     c94:	00 70       	andi	r16, 0x00	; 0
     c96:	72 6f       	ori	r23, 0xF2	; 242
     c98:	67 5f       	subi	r22, 0xF7	; 247
     c9a:	63 68       	ori	r22, 0x83	; 131
     c9c:	61 72       	andi	r22, 0x21	; 33
     c9e:	3a 74       	andi	r19, 0x4A	; 74
     ca0:	28 31       	cpi	r18, 0x18	; 24
     ca2:	2c 33       	cpi	r18, 0x3C	; 60
     ca4:	29 3d       	cpi	r18, 0xD9	; 217
     ca6:	28 31       	cpi	r18, 0x18	; 24
     ca8:	2c 34       	cpi	r18, 0x4C	; 76
     caa:	29 3d       	cpi	r18, 0xD9	; 217
     cac:	40 73       	andi	r20, 0x30	; 48
     cae:	38 3b       	cpi	r19, 0xB8	; 184
     cb0:	72 28       	or	r7, r2
     cb2:	31 2c       	mov	r3, r1
     cb4:	34 29       	or	r19, r4
     cb6:	3b 2d       	mov	r19, r11
     cb8:	31 32       	cpi	r19, 0x21	; 33
     cba:	38 3b       	cpi	r19, 0xB8	; 184
     cbc:	31 32       	cpi	r19, 0x21	; 33
     cbe:	37 3b       	cpi	r19, 0xB7	; 183
     cc0:	00 70       	andi	r16, 0x00	; 0
     cc2:	72 6f       	ori	r23, 0xF2	; 242
     cc4:	67 5f       	subi	r22, 0xF7	; 247
     cc6:	75 63       	ori	r23, 0x35	; 53
     cc8:	68 61       	ori	r22, 0x18	; 24
     cca:	72 3a       	cpi	r23, 0xA2	; 162
     ccc:	74 28       	or	r7, r4
     cce:	31 2c       	mov	r3, r1
     cd0:	35 29       	or	r19, r5
     cd2:	3d 28       	or	r3, r13
     cd4:	31 2c       	mov	r3, r1
     cd6:	36 29       	or	r19, r6
     cd8:	3d 40       	sbci	r19, 0x0D	; 13
     cda:	73 38       	cpi	r23, 0x83	; 131
     cdc:	3b 72       	andi	r19, 0x2B	; 43
     cde:	28 31       	cpi	r18, 0x18	; 24
     ce0:	2c 36       	cpi	r18, 0x6C	; 108
     ce2:	29 3b       	cpi	r18, 0xB9	; 185
     ce4:	30 3b       	cpi	r19, 0xB0	; 176
     ce6:	32 35       	cpi	r19, 0x52	; 82
     ce8:	35 3b       	cpi	r19, 0xB5	; 181
     cea:	00 70       	andi	r16, 0x00	; 0
     cec:	72 6f       	ori	r23, 0xF2	; 242
     cee:	67 5f       	subi	r22, 0xF7	; 247
     cf0:	69 6e       	ori	r22, 0xE9	; 233
     cf2:	74 38       	cpi	r23, 0x84	; 132
     cf4:	5f 74       	andi	r21, 0x4F	; 79
     cf6:	3a 74       	andi	r19, 0x4A	; 74
     cf8:	28 31       	cpi	r18, 0x18	; 24
     cfa:	2c 37       	cpi	r18, 0x7C	; 124
     cfc:	29 3d       	cpi	r18, 0xD9	; 217
     cfe:	28 31       	cpi	r18, 0x18	; 24
     d00:	2c 34       	cpi	r18, 0x4C	; 76
     d02:	29 00       	.word	0x0029	; ????
     d04:	70 72       	andi	r23, 0x20	; 32
     d06:	6f 67       	ori	r22, 0x7F	; 127
     d08:	5f 75       	andi	r21, 0x5F	; 95
     d0a:	69 6e       	ori	r22, 0xE9	; 233
     d0c:	74 38       	cpi	r23, 0x84	; 132
     d0e:	5f 74       	andi	r21, 0x4F	; 79
     d10:	3a 74       	andi	r19, 0x4A	; 74
     d12:	28 31       	cpi	r18, 0x18	; 24
     d14:	2c 38       	cpi	r18, 0x8C	; 140
     d16:	29 3d       	cpi	r18, 0xD9	; 217
     d18:	28 31       	cpi	r18, 0x18	; 24
     d1a:	2c 36       	cpi	r18, 0x6C	; 108
     d1c:	29 00       	.word	0x0029	; ????
     d1e:	70 72       	andi	r23, 0x20	; 32
     d20:	6f 67       	ori	r22, 0x7F	; 127
     d22:	5f 69       	ori	r21, 0x9F	; 159
     d24:	6e 74       	andi	r22, 0x4E	; 78
     d26:	31 36       	cpi	r19, 0x61	; 97
     d28:	5f 74       	andi	r21, 0x4F	; 79
     d2a:	3a 74       	andi	r19, 0x4A	; 74
     d2c:	28 31       	cpi	r18, 0x18	; 24
     d2e:	2c 39       	cpi	r18, 0x9C	; 156
     d30:	29 3d       	cpi	r18, 0xD9	; 217
     d32:	28 31       	cpi	r18, 0x18	; 24
     d34:	2c 31       	cpi	r18, 0x1C	; 28
     d36:	30 29       	or	r19, r0
     d38:	3d 28       	or	r3, r13
     d3a:	30 2c       	mov	r3, r0
     d3c:	31 29       	or	r19, r1
     d3e:	00 70       	andi	r16, 0x00	; 0
     d40:	72 6f       	ori	r23, 0xF2	; 242
     d42:	67 5f       	subi	r22, 0xF7	; 247
     d44:	75 69       	ori	r23, 0x95	; 149
     d46:	6e 74       	andi	r22, 0x4E	; 78
     d48:	31 36       	cpi	r19, 0x61	; 97
     d4a:	5f 74       	andi	r21, 0x4F	; 79
     d4c:	3a 74       	andi	r19, 0x4A	; 74
     d4e:	28 31       	cpi	r18, 0x18	; 24
     d50:	2c 31       	cpi	r18, 0x1C	; 28
     d52:	31 29       	or	r19, r1
     d54:	3d 28       	or	r3, r13
     d56:	31 2c       	mov	r3, r1
     d58:	31 32       	cpi	r19, 0x21	; 33
     d5a:	29 3d       	cpi	r18, 0xD9	; 217
     d5c:	28 30       	cpi	r18, 0x08	; 8
     d5e:	2c 34       	cpi	r18, 0x4C	; 76
     d60:	29 00       	.word	0x0029	; ????
     d62:	70 72       	andi	r23, 0x20	; 32
     d64:	6f 67       	ori	r22, 0x7F	; 127
     d66:	5f 69       	ori	r21, 0x9F	; 159
     d68:	6e 74       	andi	r22, 0x4E	; 78
     d6a:	33 32       	cpi	r19, 0x23	; 35
     d6c:	5f 74       	andi	r21, 0x4F	; 79
     d6e:	3a 74       	andi	r19, 0x4A	; 74
     d70:	28 31       	cpi	r18, 0x18	; 24
     d72:	2c 31       	cpi	r18, 0x1C	; 28
     d74:	33 29       	or	r19, r3
     d76:	3d 28       	or	r3, r13
     d78:	31 2c       	mov	r3, r1
     d7a:	31 34       	cpi	r19, 0x41	; 65
     d7c:	29 3d       	cpi	r18, 0xD9	; 217
     d7e:	28 30       	cpi	r18, 0x08	; 8
     d80:	2c 33       	cpi	r18, 0x3C	; 60
     d82:	29 00       	.word	0x0029	; ????
     d84:	70 72       	andi	r23, 0x20	; 32
     d86:	6f 67       	ori	r22, 0x7F	; 127
     d88:	5f 75       	andi	r21, 0x5F	; 95
     d8a:	69 6e       	ori	r22, 0xE9	; 233
     d8c:	74 33       	cpi	r23, 0x34	; 52
     d8e:	32 5f       	subi	r19, 0xF2	; 242
     d90:	74 3a       	cpi	r23, 0xA4	; 164
     d92:	74 28       	or	r7, r4
     d94:	31 2c       	mov	r3, r1
     d96:	31 35       	cpi	r19, 0x51	; 81
     d98:	29 3d       	cpi	r18, 0xD9	; 217
     d9a:	28 31       	cpi	r18, 0x18	; 24
     d9c:	2c 31       	cpi	r18, 0x1C	; 28
     d9e:	36 29       	or	r19, r6
     da0:	3d 28       	or	r3, r13
     da2:	30 2c       	mov	r3, r0
     da4:	35 29       	or	r19, r5
     da6:	00 70       	andi	r16, 0x00	; 0
     da8:	72 6f       	ori	r23, 0xF2	; 242
     daa:	67 5f       	subi	r22, 0xF7	; 247
     dac:	69 6e       	ori	r22, 0xE9	; 233
     dae:	74 36       	cpi	r23, 0x64	; 100
     db0:	34 5f       	subi	r19, 0xF4	; 244
     db2:	74 3a       	cpi	r23, 0xA4	; 164
     db4:	74 28       	or	r7, r4
     db6:	31 2c       	mov	r3, r1
     db8:	31 37       	cpi	r19, 0x71	; 113
     dba:	29 3d       	cpi	r18, 0xD9	; 217
     dbc:	28 31       	cpi	r18, 0x18	; 24
     dbe:	2c 31       	cpi	r18, 0x1C	; 28
     dc0:	38 29       	or	r19, r8
     dc2:	3d 28       	or	r3, r13
     dc4:	30 2c       	mov	r3, r0
     dc6:	36 29       	or	r19, r6
     dc8:	00 70       	andi	r16, 0x00	; 0
     dca:	72 6f       	ori	r23, 0xF2	; 242
     dcc:	67 5f       	subi	r22, 0xF7	; 247
     dce:	75 69       	ori	r23, 0x95	; 149
     dd0:	6e 74       	andi	r22, 0x4E	; 78
     dd2:	36 34       	cpi	r19, 0x46	; 70
     dd4:	5f 74       	andi	r21, 0x4F	; 79
     dd6:	3a 74       	andi	r19, 0x4A	; 74
     dd8:	28 31       	cpi	r18, 0x18	; 24
     dda:	2c 31       	cpi	r18, 0x1C	; 28
     ddc:	39 29       	or	r19, r9
     dde:	3d 28       	or	r3, r13
     de0:	31 2c       	mov	r3, r1
     de2:	32 30       	cpi	r19, 0x02	; 2
     de4:	29 3d       	cpi	r18, 0xD9	; 217
     de6:	28 30       	cpi	r18, 0x08	; 8
     de8:	2c 37       	cpi	r18, 0x7C	; 124
     dea:	29 00       	.word	0x0029	; ????
     dec:	77 63       	ori	r23, 0x37	; 55
     dee:	68 61       	ori	r22, 0x18	; 24
     df0:	72 5f       	subi	r23, 0xF2	; 242
     df2:	74 3a       	cpi	r23, 0xA4	; 164
     df4:	74 28       	or	r7, r4
     df6:	38 2c       	mov	r3, r8
     df8:	31 29       	or	r19, r1
     dfa:	3d 28       	or	r3, r13
     dfc:	30 2c       	mov	r3, r0
     dfe:	31 29       	or	r19, r1
     e00:	00 2e       	mov	r0, r16
     e02:	2e 2f       	mov	r18, r30
     e04:	2e 2e       	mov	r2, r30
     e06:	2f 2e       	mov	r2, r31
     e08:	2e 2f       	mov	r18, r30
     e0a:	6c 69       	ori	r22, 0x9C	; 156
     e0c:	62 63       	ori	r22, 0x32	; 50
     e0e:	2f 73       	andi	r18, 0x3F	; 63
     e10:	74 64       	ori	r23, 0x44	; 68
     e12:	69 6f       	ori	r22, 0xF9	; 249
     e14:	2f 78       	andi	r18, 0x8F	; 143
     e16:	74 6f       	ori	r23, 0xF4	; 244
     e18:	61 5f       	subi	r22, 0xF1	; 241
     e1a:	66 61       	ori	r22, 0x16	; 22
     e1c:	73 74       	andi	r23, 0x43	; 67
     e1e:	2e 68       	ori	r18, 0x8E	; 142
     e20:	00 70       	andi	r16, 0x00	; 0
     e22:	74 72       	andi	r23, 0x24	; 36
     e24:	64 69       	ori	r22, 0x94	; 148
     e26:	66 66       	ori	r22, 0x66	; 102
     e28:	5f 74       	andi	r21, 0x4F	; 79
     e2a:	3a 74       	andi	r19, 0x4A	; 74
     e2c:	28 31       	cpi	r18, 0x18	; 24
     e2e:	30 2c       	mov	r3, r0
     e30:	31 29       	or	r19, r1
     e32:	3d 28       	or	r3, r13
     e34:	30 2c       	mov	r3, r0
     e36:	31 29       	or	r19, r1
     e38:	00 76       	andi	r16, 0x60	; 96
     e3a:	66 70       	andi	r22, 0x06	; 6
     e3c:	72 69       	ori	r23, 0x92	; 146
     e3e:	6e 74       	andi	r22, 0x4E	; 78
     e40:	66 3a       	cpi	r22, 0xA6	; 166
     e42:	46 28       	or	r4, r6
     e44:	30 2c       	mov	r3, r0
     e46:	31 29       	or	r19, r1
     e48:	00 73       	andi	r16, 0x30	; 48
     e4a:	74 72       	andi	r23, 0x24	; 36
     e4c:	65 61       	ori	r22, 0x15	; 21
     e4e:	6d 3a       	cpi	r22, 0xAD	; 173
     e50:	50 28       	or	r5, r0
     e52:	30 2c       	mov	r3, r0
     e54:	31 36       	cpi	r19, 0x61	; 97
     e56:	29 3d       	cpi	r18, 0xD9	; 217
     e58:	2a 28       	or	r2, r10
     e5a:	36 2c       	mov	r3, r6
     e5c:	31 29       	or	r19, r1
     e5e:	00 66       	ori	r16, 0x60	; 96
     e60:	6d 74       	andi	r22, 0x4D	; 77
     e62:	3a 50       	subi	r19, 0x0A	; 10
     e64:	28 30       	cpi	r18, 0x08	; 8
     e66:	2c 31       	cpi	r18, 0x1C	; 28
     e68:	37 29       	or	r19, r7
     e6a:	3d 2a       	or	r3, r29
     e6c:	28 30       	cpi	r18, 0x08	; 8
     e6e:	2c 31       	cpi	r18, 0x1C	; 28
     e70:	38 29       	or	r19, r8
     e72:	3d 6b       	ori	r19, 0xBD	; 189
     e74:	28 30       	cpi	r18, 0x08	; 8
     e76:	2c 32       	cpi	r18, 0x2C	; 44
     e78:	29 00       	.word	0x0029	; ????
     e7a:	61 70       	andi	r22, 0x01	; 1
     e7c:	3a 50       	subi	r19, 0x0A	; 10
     e7e:	28 35       	cpi	r18, 0x58	; 88
     e80:	2c 33       	cpi	r18, 0x3C	; 60
     e82:	29 00       	.word	0x0029	; ????
     e84:	63 3a       	cpi	r22, 0xA3	; 163
     e86:	72 28       	or	r7, r2
     e88:	30 2c       	mov	r3, r0
     e8a:	31 31       	cpi	r19, 0x11	; 17
     e8c:	29 00       	.word	0x0029	; ????
     e8e:	66 6c       	ori	r22, 0xC6	; 198
     e90:	61 67       	ori	r22, 0x71	; 113
     e92:	73 3a       	cpi	r23, 0xA3	; 163
     e94:	72 28       	or	r7, r2
     e96:	30 2c       	mov	r3, r0
     e98:	31 31       	cpi	r19, 0x11	; 17
     e9a:	29 00       	.word	0x0029	; ????
     e9c:	77 69       	ori	r23, 0x97	; 151
     e9e:	64 74       	andi	r22, 0x44	; 68
     ea0:	68 3a       	cpi	r22, 0xA8	; 168
     ea2:	72 28       	or	r7, r2
     ea4:	30 2c       	mov	r3, r0
     ea6:	31 31       	cpi	r19, 0x11	; 17
     ea8:	29 00       	.word	0x0029	; ????
     eaa:	70 72       	andi	r23, 0x20	; 32
     eac:	65 63       	ori	r22, 0x35	; 53
     eae:	3a 72       	andi	r19, 0x2A	; 42
     eb0:	28 30       	cpi	r18, 0x08	; 8
     eb2:	2c 31       	cpi	r18, 0x1C	; 28
     eb4:	31 29       	or	r19, r1
     eb6:	00 62       	ori	r16, 0x20	; 32
     eb8:	75 66       	ori	r23, 0x65	; 101
     eba:	3a 28       	or	r3, r10
     ebc:	30 2c       	mov	r3, r0
     ebe:	31 39       	cpi	r19, 0x91	; 145
     ec0:	29 3d       	cpi	r18, 0xD9	; 217
     ec2:	61 72       	andi	r22, 0x21	; 33
     ec4:	28 30       	cpi	r18, 0x08	; 8
     ec6:	2c 32       	cpi	r18, 0x2C	; 44
     ec8:	30 29       	or	r19, r0
     eca:	3d 72       	andi	r19, 0x2D	; 45
     ecc:	28 30       	cpi	r18, 0x08	; 8
     ece:	2c 32       	cpi	r18, 0x2C	; 44
     ed0:	30 29       	or	r19, r0
     ed2:	3b 30       	cpi	r19, 0x0B	; 11
     ed4:	3b 30       	cpi	r19, 0x0B	; 11
     ed6:	31 37       	cpi	r19, 0x71	; 113
     ed8:	37 37       	cpi	r19, 0x77	; 119
     eda:	37 37       	cpi	r19, 0x77	; 119
     edc:	3b 3b       	cpi	r19, 0xBB	; 187
     ede:	30 3b       	cpi	r19, 0xB0	; 176
     ee0:	31 30       	cpi	r19, 0x01	; 1
     ee2:	3b 28       	or	r3, r11
     ee4:	30 2c       	mov	r3, r0
     ee6:	31 31       	cpi	r19, 0x11	; 17
     ee8:	29 00       	.word	0x0029	; ????
     eea:	70 6e       	ori	r23, 0xE0	; 224
     eec:	74 3a       	cpi	r23, 0xA4	; 164
     eee:	72 28       	or	r7, r2
     ef0:	30 2c       	mov	r3, r0
     ef2:	31 37       	cpi	r19, 0x71	; 113
     ef4:	29 00       	.word	0x0029	; ????
     ef6:	73 69       	ori	r23, 0x93	; 147
     ef8:	7a 65       	ori	r23, 0x5A	; 90
     efa:	3a 72       	andi	r19, 0x2A	; 42
     efc:	28 34       	cpi	r18, 0x48	; 72
     efe:	2c 31       	cpi	r18, 0x1C	; 28
     f00:	29 00       	.word	0x0029	; ????
     f02:	5f 5f       	subi	r21, 0xFF	; 255
     f04:	63 3a       	cpi	r22, 0xA3	; 163
     f06:	72 28       	or	r7, r2
     f08:	30 2c       	mov	r3, r0
     f0a:	31 31       	cpi	r19, 0x11	; 17
     f0c:	29 00       	.word	0x0029	; ????
     f0e:	62 61       	ori	r22, 0x12	; 18
     f10:	73 65       	ori	r23, 0x53	; 83
     f12:	3a 72       	andi	r19, 0x2A	; 42
     f14:	28 30       	cpi	r18, 0x08	; 8
     f16:	2c 31       	cpi	r18, 0x1C	; 28
     f18:	29 00       	.word	0x0029	; ????
     f1a:	6c 65       	ori	r22, 0x5C	; 92
     f1c:	6e 3a       	cpi	r22, 0xAE	; 174
     f1e:	72 28       	or	r7, r2
     f20:	30 2c       	mov	r3, r0
     f22:	31 31       	cpi	r19, 0x11	; 17
     f24:	29 00       	.word	0x0029	; ????
     f26:	7a 3a       	cpi	r23, 0xAA	; 170
     f28:	72 28       	or	r7, r2
     f2a:	30 2c       	mov	r3, r0
     f2c:	31 31       	cpi	r19, 0x11	; 17
     f2e:	29 00       	.word	0x0029	; ????
     f30:	2f 74       	andi	r18, 0x4F	; 79
     f32:	6d 70       	andi	r22, 0x0D	; 13
     f34:	2f 63       	ori	r18, 0x3F	; 63
     f36:	63 4f       	sbci	r22, 0xF3	; 243
     f38:	71 6a       	ori	r23, 0xA1	; 161
     f3a:	31 59       	subi	r19, 0x91	; 145
     f3c:	6c 2e       	mov	r6, r28
     f3e:	73 00       	.word	0x0073	; ????
     f40:	2e 2e       	mov	r2, r30
     f42:	2f 2e       	mov	r2, r31
     f44:	2e 2f       	mov	r18, r30
     f46:	2e 2e       	mov	r2, r30
     f48:	2f 6c       	ori	r18, 0xCF	; 207
     f4a:	69 62       	ori	r22, 0x29	; 41
     f4c:	63 2f       	mov	r22, r19
     f4e:	70 6d       	ori	r23, 0xD0	; 208
     f50:	73 74       	andi	r23, 0x43	; 67
     f52:	72 69       	ori	r23, 0x92	; 146
     f54:	6e 67       	ori	r22, 0x7E	; 126
     f56:	2f 73       	andi	r18, 0x3F	; 63
     f58:	74 72       	andi	r23, 0x24	; 36
     f5a:	6e 6c       	ori	r22, 0xCE	; 206
     f5c:	65 6e       	ori	r22, 0xE5	; 229
     f5e:	5f 50       	subi	r21, 0x0F	; 15
     f60:	2e 53       	subi	r18, 0x3E	; 62
     f62:	00 2f       	mov	r16, r16
     f64:	74 6d       	ori	r23, 0xD4	; 212
     f66:	70 2f       	mov	r23, r16
     f68:	63 63       	ori	r22, 0x33	; 51
     f6a:	52 31       	cpi	r21, 0x12	; 18
     f6c:	7a 59       	subi	r23, 0x9A	; 154
     f6e:	69 38       	cpi	r22, 0x89	; 137
     f70:	2e 73       	andi	r18, 0x3E	; 62
     f72:	00 2e       	mov	r0, r16
     f74:	2e 2f       	mov	r18, r30
     f76:	2e 2e       	mov	r2, r30
     f78:	2f 2e       	mov	r2, r31
     f7a:	2e 2f       	mov	r18, r30
     f7c:	6c 69       	ori	r22, 0x9C	; 156
     f7e:	62 63       	ori	r22, 0x32	; 50
     f80:	2f 73       	andi	r18, 0x3F	; 63
     f82:	74 72       	andi	r23, 0x24	; 36
     f84:	69 6e       	ori	r22, 0xE9	; 233
     f86:	67 2f       	mov	r22, r23
     f88:	73 74       	andi	r23, 0x43	; 67
     f8a:	72 6e       	ori	r23, 0xE2	; 226
     f8c:	6c 65       	ori	r22, 0x5C	; 92
     f8e:	6e 2e       	mov	r6, r30
     f90:	53 00       	.word	0x0053	; ????
     f92:	2e 2e       	mov	r2, r30
     f94:	2f 2e       	mov	r2, r31
     f96:	2e 2f       	mov	r18, r30
     f98:	2e 2e       	mov	r2, r30
     f9a:	2f 6c       	ori	r18, 0xCF	; 207
     f9c:	69 62       	ori	r22, 0x29	; 41
     f9e:	63 2f       	mov	r22, r19
     fa0:	73 74       	andi	r23, 0x43	; 67
     fa2:	64 69       	ori	r22, 0x94	; 148
     fa4:	6f 2f       	mov	r22, r31
     fa6:	66 70       	andi	r22, 0x06	; 6
     fa8:	75 74       	andi	r23, 0x45	; 69
     faa:	63 2e       	mov	r6, r19
     fac:	63 00       	.word	0x0063	; ????
     fae:	66 70       	andi	r22, 0x06	; 6
     fb0:	75 74       	andi	r23, 0x45	; 69
     fb2:	63 3a       	cpi	r22, 0xA3	; 163
     fb4:	46 28       	or	r4, r6
     fb6:	30 2c       	mov	r3, r0
     fb8:	31 29       	or	r19, r1
     fba:	00 63       	ori	r16, 0x30	; 48
     fbc:	3a 50       	subi	r19, 0x0A	; 10
     fbe:	28 30       	cpi	r18, 0x08	; 8
     fc0:	2c 31       	cpi	r18, 0x1C	; 28
     fc2:	29 00       	.word	0x0029	; ????
     fc4:	73 74       	andi	r23, 0x43	; 67
     fc6:	72 65       	ori	r23, 0x52	; 82
     fc8:	61 6d       	ori	r22, 0xD1	; 209
     fca:	3a 50       	subi	r19, 0x0A	; 10
     fcc:	28 30       	cpi	r18, 0x08	; 8
     fce:	2c 31       	cpi	r18, 0x1C	; 28
     fd0:	36 29       	or	r19, r6
     fd2:	3d 2a       	or	r3, r29
     fd4:	28 31       	cpi	r18, 0x18	; 24
     fd6:	2c 31       	cpi	r18, 0x1C	; 28
     fd8:	29 00       	.word	0x0029	; ????
     fda:	2f 74       	andi	r18, 0x4F	; 79
     fdc:	6d 70       	andi	r22, 0x0D	; 13
     fde:	2f 63       	ori	r18, 0x3F	; 63
     fe0:	63 49       	sbci	r22, 0x93	; 147
     fe2:	61 65       	ori	r22, 0x51	; 81
     fe4:	55 4d       	sbci	r21, 0xD5	; 213
     fe6:	57 2e       	mov	r5, r23
     fe8:	73 00       	.word	0x0073	; ????
     fea:	2e 2e       	mov	r2, r30
     fec:	2f 2e       	mov	r2, r31
     fee:	2e 2f       	mov	r18, r30
     ff0:	2e 2e       	mov	r2, r30
     ff2:	2f 6c       	ori	r18, 0xCF	; 207
     ff4:	69 62       	ori	r22, 0x29	; 41
     ff6:	63 2f       	mov	r22, r19
     ff8:	73 74       	andi	r23, 0x43	; 67
     ffa:	64 69       	ori	r22, 0x94	; 148
     ffc:	6f 2f       	mov	r22, r31
     ffe:	75 6c       	ori	r23, 0xC5	; 197
    1000:	74 6f       	ori	r23, 0xF4	; 244
    1002:	61 5f       	subi	r22, 0xF1	; 241
    1004:	69 6e       	ori	r22, 0xE9	; 233
    1006:	76 65       	ori	r23, 0x56	; 86
    1008:	72 74       	andi	r23, 0x42	; 66
    100a:	2e 53       	subi	r18, 0x3E	; 62
    100c:	00 00       	Address 0x000000000000100c is out of bounds.
.word	0xffff	; ????
