
tc.exe:     file format elf32-avr

Sections:
Idx Name          Size      VMA       LMA       File off  Algn
  0 .data         00000120  00800100  00002396  0000242a  2**0
                  CONTENTS, ALLOC, LOAD, DATA
  1 .text         00002396  00000000  00000000  00000094  2**1
                  CONTENTS, ALLOC, LOAD, READONLY, CODE
  2 .bss          00000c6e  00800220  00800220  0000254a  2**0
                  ALLOC
  3 .stab         00002bb0  00000000  00000000  0000254c  2**2
                  CONTENTS, READONLY, DEBUGGING
  4 .stabstr      0000100d  00000000  00000000  000050fc  2**0
                  CONTENTS, READONLY, DEBUGGING

Disassembly of section .text:

00000000 <__vectors>:
       0:	0c 94 46 00 	jmp	0x8c	; 0x8c <__ctors_end>
       4:	0c 94 65 00 	jmp	0xca	; 0xca <__bad_interrupt>
       8:	0c 94 65 00 	jmp	0xca	; 0xca <__bad_interrupt>
       c:	0c 94 65 00 	jmp	0xca	; 0xca <__bad_interrupt>
      10:	0c 94 65 00 	jmp	0xca	; 0xca <__bad_interrupt>
      14:	0c 94 65 00 	jmp	0xca	; 0xca <__bad_interrupt>
      18:	0c 94 65 00 	jmp	0xca	; 0xca <__bad_interrupt>
      1c:	0c 94 65 00 	jmp	0xca	; 0xca <__bad_interrupt>
      20:	0c 94 65 00 	jmp	0xca	; 0xca <__bad_interrupt>
      24:	0c 94 65 00 	jmp	0xca	; 0xca <__bad_interrupt>
      28:	0c 94 65 00 	jmp	0xca	; 0xca <__bad_interrupt>
      2c:	0c 94 65 00 	jmp	0xca	; 0xca <__bad_interrupt>
      30:	0c 94 65 00 	jmp	0xca	; 0xca <__bad_interrupt>
      34:	0c 94 65 00 	jmp	0xca	; 0xca <__bad_interrupt>
      38:	0c 94 65 00 	jmp	0xca	; 0xca <__bad_interrupt>
      3c:	0c 94 65 00 	jmp	0xca	; 0xca <__bad_interrupt>
      40:	0c 94 65 00 	jmp	0xca	; 0xca <__bad_interrupt>
      44:	0c 94 65 00 	jmp	0xca	; 0xca <__bad_interrupt>
      48:	0c 94 65 00 	jmp	0xca	; 0xca <__bad_interrupt>
      4c:	0c 94 65 00 	jmp	0xca	; 0xca <__bad_interrupt>
      50:	0c 94 65 00 	jmp	0xca	; 0xca <__bad_interrupt>
      54:	0c 94 65 00 	jmp	0xca	; 0xca <__bad_interrupt>
      58:	0c 94 65 00 	jmp	0xca	; 0xca <__bad_interrupt>
      5c:	0c 94 65 00 	jmp	0xca	; 0xca <__bad_interrupt>
      60:	0c 94 65 00 	jmp	0xca	; 0xca <__bad_interrupt>
      64:	0c 94 65 00 	jmp	0xca	; 0xca <__bad_interrupt>
      68:	0c 94 65 00 	jmp	0xca	; 0xca <__bad_interrupt>
      6c:	0c 94 65 00 	jmp	0xca	; 0xca <__bad_interrupt>
      70:	0c 94 65 00 	jmp	0xca	; 0xca <__bad_interrupt>
      74:	0c 94 65 00 	jmp	0xca	; 0xca <__bad_interrupt>
      78:	0c 94 65 00 	jmp	0xca	; 0xca <__bad_interrupt>
      7c:	0c 94 65 00 	jmp	0xca	; 0xca <__bad_interrupt>
      80:	0c 94 65 00 	jmp	0xca	; 0xca <__bad_interrupt>
      84:	0c 94 65 00 	jmp	0xca	; 0xca <__bad_interrupt>
      88:	0c 94 65 00 	jmp	0xca	; 0xca <__bad_interrupt>

0000008c <__ctors_end>:
      8c:	11 24       	eor	r1, r1
      8e:	1f be       	out	0x3f, r1	; 63
      90:	cf ef       	ldi	r28, 0xFF	; 255
      92:	d0 e1       	ldi	r29, 0x10	; 16
      94:	de bf       	out	0x3e, r29	; 62
      96:	cd bf       	out	0x3d, r28	; 61

00000098 <__do_copy_data>:
      98:	12 e0       	ldi	r17, 0x02	; 2
      9a:	a0 e0       	ldi	r26, 0x00	; 0
      9c:	b1 e0       	ldi	r27, 0x01	; 1
      9e:	e6 e9       	ldi	r30, 0x96	; 150
      a0:	f3 e2       	ldi	r31, 0x23	; 35
      a2:	00 e0       	ldi	r16, 0x00	; 0
      a4:	0b bf       	out	0x3b, r16	; 59
      a6:	02 c0       	rjmp	.+4      	; 0xac <__do_copy_data+0x14>
      a8:	07 90       	elpm	r0, Z+
      aa:	0d 92       	st	X+, r0
      ac:	a0 32       	cpi	r26, 0x20	; 32
      ae:	b1 07       	cpc	r27, r17
      b0:	d9 f7       	brne	.-10     	; 0xa8 <__do_copy_data+0x10>

000000b2 <__do_clear_bss>:
      b2:	1e e0       	ldi	r17, 0x0E	; 14
      b4:	a0 e2       	ldi	r26, 0x20	; 32
      b6:	b2 e0       	ldi	r27, 0x02	; 2
      b8:	01 c0       	rjmp	.+2      	; 0xbc <.do_clear_bss_start>

000000ba <.do_clear_bss_loop>:
      ba:	1d 92       	st	X+, r1

000000bc <.do_clear_bss_start>:
      bc:	ae 38       	cpi	r26, 0x8E	; 142
      be:	b1 07       	cpc	r27, r17
      c0:	e1 f7       	brne	.-8      	; 0xba <.do_clear_bss_loop>
      c2:	0e 94 43 02 	call	0x486	; 0x486 <main>
      c6:	0c 94 c9 11 	jmp	0x2392	; 0x2392 <_exit>

000000ca <__bad_interrupt>:
      ca:	0c 94 00 00 	jmp	0	; 0x0 <__vectors>

000000ce <log_to>:
      ce:	ef 92       	push	r14
      d0:	ff 92       	push	r15
      d2:	0f 93       	push	r16
      d4:	1f 93       	push	r17
      d6:	cf 93       	push	r28
      d8:	df 93       	push	r29
      da:	7c 01       	movw	r14, r24
      dc:	8b 01       	movw	r16, r22
      de:	ea 01       	movw	r28, r20
      e0:	c7 01       	movw	r24, r14
      e2:	b8 01       	movw	r22, r16
      e4:	ae 01       	movw	r20, r28
      e6:	0e 94 62 02 	call	0x4c4	; 0x4c4 <tc_flash_write>
      ea:	89 2b       	or	r24, r25
      ec:	c9 f7       	brne	.-14     	; 0xe0 <log_to+0x12>
      ee:	df 91       	pop	r29
      f0:	cf 91       	pop	r28
      f2:	1f 91       	pop	r17
      f4:	0f 91       	pop	r16
      f6:	ff 90       	pop	r15
      f8:	ef 90       	pop	r14
      fa:	08 95       	ret

000000fc <aggregate_from>:
      fc:	8f 92       	push	r8
      fe:	9f 92       	push	r9
     100:	af 92       	push	r10
     102:	bf 92       	push	r11
     104:	cf 92       	push	r12
     106:	df 92       	push	r13
     108:	ef 92       	push	r14
     10a:	ff 92       	push	r15
     10c:	0f 93       	push	r16
     10e:	1f 93       	push	r17
     110:	df 93       	push	r29
     112:	cf 93       	push	r28
     114:	cd b7       	in	r28, 0x3d	; 61
     116:	de b7       	in	r29, 0x3e	; 62
     118:	c6 50       	subi	r28, 0x06	; 6
     11a:	d4 40       	sbci	r29, 0x04	; 4
     11c:	0f b6       	in	r0, 0x3f	; 63
     11e:	f8 94       	cli
     120:	de bf       	out	0x3e, r29	; 62
     122:	0f be       	out	0x3f, r0	; 63
     124:	cd bf       	out	0x3d, r28	; 61
     126:	8c 01       	movw	r16, r24
     128:	5b 01       	movw	r10, r22
     12a:	6a 01       	movw	r12, r20
     12c:	37 e0       	ldi	r19, 0x07	; 7
     12e:	83 2e       	mov	r8, r19
     130:	91 2c       	mov	r9, r1
     132:	8c 0e       	add	r8, r28
     134:	9d 1e       	adc	r9, r29
     136:	b4 01       	movw	r22, r8
     138:	40 e0       	ldi	r20, 0x00	; 0
     13a:	54 e0       	ldi	r21, 0x04	; 4
     13c:	9e 01       	movw	r18, r28
     13e:	2f 5f       	subi	r18, 0xFF	; 255
     140:	3f 4f       	sbci	r19, 0xFF	; 255
     142:	0e 94 5f 02 	call	0x4be	; 0x4be <tc_flash_read>
     146:	89 2b       	or	r24, r25
     148:	09 f0       	breq	.+2      	; 0x14c <aggregate_from+0x50>
     14a:	6d c0       	rjmp	.+218    	; 0x226 <aggregate_from+0x12a>
     14c:	29 81       	ldd	r18, Y+1	; 0x01
     14e:	3a 81       	ldd	r19, Y+2	; 0x02
     150:	c9 01       	movw	r24, r18
     152:	83 70       	andi	r24, 0x03	; 3
     154:	90 70       	andi	r25, 0x00	; 0
     156:	89 2b       	or	r24, r25
     158:	09 f0       	breq	.+2      	; 0x15c <aggregate_from+0x60>
     15a:	65 c0       	rjmp	.+202    	; 0x226 <aggregate_from+0x12a>
     15c:	20 50       	subi	r18, 0x00	; 0
     15e:	34 40       	sbci	r19, 0x04	; 4
     160:	08 f0       	brcs	.+2      	; 0x164 <aggregate_from+0x68>
     162:	61 c0       	rjmp	.+194    	; 0x226 <aggregate_from+0x12a>
     164:	c8 01       	movw	r24, r16
     166:	60 e0       	ldi	r22, 0x00	; 0
     168:	70 e0       	ldi	r23, 0x00	; 0
     16a:	0e 94 87 02 	call	0x50e	; 0x50e <os_flash_seek>
     16e:	89 2b       	or	r24, r25
     170:	09 f0       	breq	.+2      	; 0x174 <aggregate_from+0x78>
     172:	59 c0       	rjmp	.+178    	; 0x226 <aggregate_from+0x12a>
     174:	89 81       	ldd	r24, Y+1	; 0x01
     176:	9a 81       	ldd	r25, Y+2	; 0x02
     178:	96 95       	lsr	r25
     17a:	87 95       	ror	r24
     17c:	96 95       	lsr	r25
     17e:	87 95       	ror	r24
     180:	00 97       	sbiw	r24, 0x00	; 0
     182:	e9 f1       	breq	.+122    	; 0x1fe <aggregate_from+0x102>
     184:	60 e0       	ldi	r22, 0x00	; 0
     186:	70 e0       	ldi	r23, 0x00	; 0
     188:	e0 e0       	ldi	r30, 0x00	; 0
     18a:	f0 e0       	ldi	r31, 0x00	; 0
     18c:	8e 01       	movw	r16, r28
     18e:	0d 5f       	subi	r16, 0xFD	; 253
     190:	1f 4f       	sbci	r17, 0xFF	; 255
     192:	7c 01       	movw	r14, r24
     194:	ee 0f       	add	r30, r30
     196:	ff 1f       	adc	r31, r31
     198:	ee 0f       	add	r30, r30
     19a:	ff 1f       	adc	r31, r31
     19c:	e8 0d       	add	r30, r8
     19e:	f9 1d       	adc	r31, r9
     1a0:	20 81       	ld	r18, Z
     1a2:	31 81       	ldd	r19, Z+1	; 0x01
     1a4:	42 81       	ldd	r20, Z+2	; 0x02
     1a6:	53 81       	ldd	r21, Z+3	; 0x03
     1a8:	f8 01       	movw	r30, r16
     1aa:	20 83       	st	Z, r18
     1ac:	31 83       	std	Z+1, r19	; 0x01
     1ae:	42 83       	std	Z+2, r20	; 0x02
     1b0:	53 83       	std	Z+3, r21	; 0x03
     1b2:	c9 01       	movw	r24, r18
     1b4:	da 01       	movw	r26, r20
     1b6:	9c 01       	movw	r18, r24
     1b8:	ad 01       	movw	r20, r26
     1ba:	f5 01       	movw	r30, r10
     1bc:	80 81       	ld	r24, Z
     1be:	91 81       	ldd	r25, Z+1	; 0x01
     1c0:	a2 81       	ldd	r26, Z+2	; 0x02
     1c2:	b3 81       	ldd	r27, Z+3	; 0x03
     1c4:	28 17       	cp	r18, r24
     1c6:	39 07       	cpc	r19, r25
     1c8:	4a 07       	cpc	r20, r26
     1ca:	5b 07       	cpc	r21, r27
     1cc:	24 f4       	brge	.+8      	; 0x1d6 <aggregate_from+0xda>
     1ce:	20 83       	st	Z, r18
     1d0:	31 83       	std	Z+1, r19	; 0x01
     1d2:	42 83       	std	Z+2, r20	; 0x02
     1d4:	53 83       	std	Z+3, r21	; 0x03
     1d6:	f6 01       	movw	r30, r12
     1d8:	80 81       	ld	r24, Z
     1da:	91 81       	ldd	r25, Z+1	; 0x01
     1dc:	a2 81       	ldd	r26, Z+2	; 0x02
     1de:	b3 81       	ldd	r27, Z+3	; 0x03
     1e0:	82 17       	cp	r24, r18
     1e2:	93 07       	cpc	r25, r19
     1e4:	a4 07       	cpc	r26, r20
     1e6:	b5 07       	cpc	r27, r21
     1e8:	24 f4       	brge	.+8      	; 0x1f2 <aggregate_from+0xf6>
     1ea:	20 83       	st	Z, r18
     1ec:	31 83       	std	Z+1, r19	; 0x01
     1ee:	42 83       	std	Z+2, r20	; 0x02
     1f0:	53 83       	std	Z+3, r21	; 0x03
     1f2:	6f 5f       	subi	r22, 0xFF	; 255
     1f4:	7f 4f       	sbci	r23, 0xFF	; 255
     1f6:	fb 01       	movw	r30, r22
     1f8:	6e 15       	cp	r22, r14
     1fa:	7f 05       	cpc	r23, r15
     1fc:	58 f2       	brcs	.-106    	; 0x194 <aggregate_from+0x98>
     1fe:	ca 5f       	subi	r28, 0xFA	; 250
     200:	db 4f       	sbci	r29, 0xFB	; 251
     202:	0f b6       	in	r0, 0x3f	; 63
     204:	f8 94       	cli
     206:	de bf       	out	0x3e, r29	; 62
     208:	0f be       	out	0x3f, r0	; 63
     20a:	cd bf       	out	0x3d, r28	; 61
     20c:	cf 91       	pop	r28
     20e:	df 91       	pop	r29
     210:	1f 91       	pop	r17
     212:	0f 91       	pop	r16
     214:	ff 90       	pop	r15
     216:	ef 90       	pop	r14
     218:	df 90       	pop	r13
     21a:	cf 90       	pop	r12
     21c:	bf 90       	pop	r11
     21e:	af 90       	pop	r10
     220:	9f 90       	pop	r9
     222:	8f 90       	pop	r8
     224:	08 95       	ret
     226:	0e 94 e1 0d 	call	0x1bc2	; 0x1bc2 <abort>

0000022a <send_run>:
     22a:	2f 92       	push	r2
     22c:	3f 92       	push	r3
     22e:	4f 92       	push	r4
     230:	5f 92       	push	r5
     232:	6f 92       	push	r6
     234:	7f 92       	push	r7
     236:	8f 92       	push	r8
     238:	9f 92       	push	r9
     23a:	af 92       	push	r10
     23c:	bf 92       	push	r11
     23e:	cf 92       	push	r12
     240:	df 92       	push	r13
     242:	ef 92       	push	r14
     244:	ff 92       	push	r15
     246:	0f 93       	push	r16
     248:	1f 93       	push	r17
     24a:	df 93       	push	r29
     24c:	cf 93       	push	r28
     24e:	cd b7       	in	r28, 0x3d	; 61
     250:	de b7       	in	r29, 0x3e	; 62
     252:	6c 97       	sbiw	r28, 0x1c	; 28
     254:	0f b6       	in	r0, 0x3f	; 63
     256:	f8 94       	cli
     258:	de bf       	out	0x3e, r29	; 62
     25a:	0f be       	out	0x3f, r0	; 63
     25c:	cd bf       	out	0x3d, r28	; 61
     25e:	7c 01       	movw	r14, r24
     260:	cb 01       	movw	r24, r22
     262:	8a 01       	movw	r16, r20
     264:	69 01       	movw	r12, r18
     266:	61 e0       	ldi	r22, 0x01	; 1
     268:	70 e0       	ldi	r23, 0x00	; 0
     26a:	0e 94 10 06 	call	0xc20	; 0xc20 <os_flash_open>
     26e:	9c 8f       	std	Y+28, r25	; 0x1c
     270:	8b 8f       	std	Y+27, r24	; 0x1b
     272:	c8 01       	movw	r24, r16
     274:	61 e0       	ldi	r22, 0x01	; 1
     276:	70 e0       	ldi	r23, 0x00	; 0
     278:	0e 94 10 06 	call	0xc20	; 0xc20 <os_flash_open>
     27c:	9a 8f       	std	Y+26, r25	; 0x1a
     27e:	89 8f       	std	Y+25, r24	; 0x19
     280:	c7 01       	movw	r24, r14
     282:	0e 94 79 02 	call	0x4f2	; 0x4f2 <os_connect>
     286:	5c 01       	movw	r10, r24
     288:	0e 94 63 06 	call	0xcc6	; 0xcc6 <os_now>
     28c:	7b 01       	movw	r14, r22
     28e:	8c 01       	movw	r16, r24
     290:	36 01       	movw	r6, r12
     292:	88 24       	eor	r8, r8
     294:	99 24       	eor	r9, r9
     296:	41 e1       	ldi	r20, 0x11	; 17
     298:	c4 2e       	mov	r12, r20
     29a:	d1 2c       	mov	r13, r1
     29c:	cc 0e       	add	r12, r28
     29e:	dd 1e       	adc	r13, r29
     2a0:	22 24       	eor	r2, r2
     2a2:	2a 94       	dec	r2
     2a4:	32 2c       	mov	r3, r2
     2a6:	21 01       	movw	r4, r2
     2a8:	e6 0c       	add	r14, r6
     2aa:	f7 1c       	adc	r15, r7
     2ac:	08 1d       	adc	r16, r8
     2ae:	19 1d       	adc	r17, r9
     2b0:	c8 01       	movw	r24, r16
     2b2:	b7 01       	movw	r22, r14
     2b4:	0e 94 56 02 	call	0x4ac	; 0x4ac <tc_sleep>
     2b8:	8f ef       	ldi	r24, 0xFF	; 255
     2ba:	9f ef       	ldi	r25, 0xFF	; 255
     2bc:	af ef       	ldi	r26, 0xFF	; 255
     2be:	bf e7       	ldi	r27, 0x7F	; 127
     2c0:	89 83       	std	Y+1, r24	; 0x01
     2c2:	9a 83       	std	Y+2, r25	; 0x02
     2c4:	ab 83       	std	Y+3, r26	; 0x03
     2c6:	bc 83       	std	Y+4, r27	; 0x04
     2c8:	2d 82       	std	Y+5, r2	; 0x05
     2ca:	3e 82       	std	Y+6, r3	; 0x06
     2cc:	4f 82       	std	Y+7, r4	; 0x07
     2ce:	58 86       	std	Y+8, r5	; 0x08
     2d0:	8b 8d       	ldd	r24, Y+27	; 0x1b
     2d2:	9c 8d       	ldd	r25, Y+28	; 0x1c
     2d4:	be 01       	movw	r22, r28
     2d6:	6f 5f       	subi	r22, 0xFF	; 255
     2d8:	7f 4f       	sbci	r23, 0xFF	; 255
     2da:	ae 01       	movw	r20, r28
     2dc:	4b 5f       	subi	r20, 0xFB	; 251
     2de:	5f 4f       	sbci	r21, 0xFF	; 255
     2e0:	0e 94 7e 00 	call	0xfc	; 0xfc <aggregate_from>
     2e4:	89 8d       	ldd	r24, Y+25	; 0x19
     2e6:	9a 8d       	ldd	r25, Y+26	; 0x1a
     2e8:	be 01       	movw	r22, r28
     2ea:	6f 5f       	subi	r22, 0xFF	; 255
     2ec:	7f 4f       	sbci	r23, 0xFF	; 255
     2ee:	ae 01       	movw	r20, r28
     2f0:	4b 5f       	subi	r20, 0xFB	; 251
     2f2:	5f 4f       	sbci	r21, 0xFF	; 255
     2f4:	0e 94 7e 00 	call	0xfc	; 0xfc <aggregate_from>
     2f8:	2d 81       	ldd	r18, Y+5	; 0x05
     2fa:	3e 81       	ldd	r19, Y+6	; 0x06
     2fc:	4f 81       	ldd	r20, Y+7	; 0x07
     2fe:	58 85       	ldd	r21, Y+8	; 0x08
     300:	89 81       	ldd	r24, Y+1	; 0x01
     302:	9a 81       	ldd	r25, Y+2	; 0x02
     304:	ab 81       	ldd	r26, Y+3	; 0x03
     306:	bc 81       	ldd	r27, Y+4	; 0x04
     308:	89 87       	std	Y+9, r24	; 0x09
     30a:	9a 87       	std	Y+10, r25	; 0x0a
     30c:	ab 87       	std	Y+11, r26	; 0x0b
     30e:	bc 87       	std	Y+12, r27	; 0x0c
     310:	2d 87       	std	Y+13, r18	; 0x0d
     312:	3e 87       	std	Y+14, r19	; 0x0e
     314:	4f 87       	std	Y+15, r20	; 0x0f
     316:	58 8b       	std	Y+16, r21	; 0x10
     318:	f6 01       	movw	r30, r12
     31a:	80 83       	st	Z, r24
     31c:	91 83       	std	Z+1, r25	; 0x01
     31e:	a2 83       	std	Z+2, r26	; 0x02
     320:	b3 83       	std	Z+3, r27	; 0x03
     322:	2d 8b       	std	Y+21, r18	; 0x15
     324:	3e 8b       	std	Y+22, r19	; 0x16
     326:	4f 8b       	std	Y+23, r20	; 0x17
     328:	58 8f       	std	Y+24, r21	; 0x18
     32a:	c5 01       	movw	r24, r10
     32c:	b6 01       	movw	r22, r12
     32e:	48 e0       	ldi	r20, 0x08	; 8
     330:	50 e0       	ldi	r21, 0x00	; 0
     332:	0e 94 5c 02 	call	0x4b8	; 0x4b8 <tc_send>
     336:	89 2b       	or	r24, r25
     338:	c1 f7       	brne	.-16     	; 0x32a <send_run+0x100>
     33a:	b6 cf       	rjmp	.-148    	; 0x2a8 <send_run+0x7e>

0000033c <task_send>:
     33c:	80 e0       	ldi	r24, 0x00	; 0
     33e:	91 e0       	ldi	r25, 0x01	; 1
     340:	67 e0       	ldi	r22, 0x07	; 7
     342:	71 e0       	ldi	r23, 0x01	; 1
     344:	43 e1       	ldi	r20, 0x13	; 19
     346:	51 e0       	ldi	r21, 0x01	; 1
     348:	24 e6       	ldi	r18, 0x64	; 100
     34a:	30 e0       	ldi	r19, 0x00	; 0
     34c:	0e 94 15 01 	call	0x22a	; 0x22a <send_run>
     350:	0e 94 e1 0d 	call	0x1bc2	; 0x1bc2 <abort>

00000354 <receive_run>:
     354:	8f 92       	push	r8
     356:	9f 92       	push	r9
     358:	af 92       	push	r10
     35a:	bf 92       	push	r11
     35c:	cf 92       	push	r12
     35e:	df 92       	push	r13
     360:	ef 92       	push	r14
     362:	ff 92       	push	r15
     364:	0f 93       	push	r16
     366:	1f 93       	push	r17
     368:	df 93       	push	r29
     36a:	cf 93       	push	r28
     36c:	cd b7       	in	r28, 0x3d	; 61
     36e:	de b7       	in	r29, 0x3e	; 62
     370:	2c 97       	sbiw	r28, 0x0c	; 12
     372:	0f b6       	in	r0, 0x3f	; 63
     374:	f8 94       	cli
     376:	de bf       	out	0x3e, r29	; 62
     378:	0f be       	out	0x3f, r0	; 63
     37a:	cd bf       	out	0x3d, r28	; 61
     37c:	8b 01       	movw	r16, r22
     37e:	0e 94 6b 02 	call	0x4d6	; 0x4d6 <os_listen>
     382:	5c 01       	movw	r10, r24
     384:	c8 01       	movw	r24, r16
     386:	62 e0       	ldi	r22, 0x02	; 2
     388:	70 e0       	ldi	r23, 0x00	; 0
     38a:	0e 94 10 06 	call	0xc20	; 0xc20 <os_flash_open>
     38e:	6c 01       	movw	r12, r24
     390:	53 e0       	ldi	r21, 0x03	; 3
     392:	e5 2e       	mov	r14, r21
     394:	f1 2c       	mov	r15, r1
     396:	ec 0e       	add	r14, r28
     398:	fd 1e       	adc	r15, r29
     39a:	4e 01       	movw	r8, r28
     39c:	08 94       	sec
     39e:	81 1c       	adc	r8, r1
     3a0:	91 1c       	adc	r9, r1
     3a2:	c5 01       	movw	r24, r10
     3a4:	b7 01       	movw	r22, r14
     3a6:	4a e0       	ldi	r20, 0x0A	; 10
     3a8:	50 e0       	ldi	r21, 0x00	; 0
     3aa:	94 01       	movw	r18, r8
     3ac:	0e 94 59 02 	call	0x4b2	; 0x4b2 <tc_receive>
     3b0:	89 2b       	or	r24, r25
     3b2:	b9 f7       	brne	.-18     	; 0x3a2 <receive_run+0x4e>
     3b4:	09 81       	ldd	r16, Y+1	; 0x01
     3b6:	1a 81       	ldd	r17, Y+2	; 0x02
     3b8:	0c 7f       	andi	r16, 0xFC	; 252
     3ba:	1a 83       	std	Y+2, r17	; 0x02
     3bc:	09 83       	std	Y+1, r16	; 0x01
     3be:	c6 01       	movw	r24, r12
     3c0:	b7 01       	movw	r22, r14
     3c2:	a8 01       	movw	r20, r16
     3c4:	0e 94 62 02 	call	0x4c4	; 0x4c4 <tc_flash_write>
     3c8:	89 2b       	or	r24, r25
     3ca:	c9 f7       	brne	.-14     	; 0x3be <receive_run+0x6a>
     3cc:	ea cf       	rjmp	.-44     	; 0x3a2 <receive_run+0x4e>

000003ce <task_receive>:
     3ce:	8e e1       	ldi	r24, 0x1E	; 30
     3d0:	91 e0       	ldi	r25, 0x01	; 1
     3d2:	67 e0       	ldi	r22, 0x07	; 7
     3d4:	71 e0       	ldi	r23, 0x01	; 1
     3d6:	0e 94 aa 01 	call	0x354	; 0x354 <receive_run>
     3da:	0e 94 e1 0d 	call	0x1bc2	; 0x1bc2 <abort>

000003de <collect_run>:
     3de:	2f 92       	push	r2
     3e0:	3f 92       	push	r3
     3e2:	4f 92       	push	r4
     3e4:	5f 92       	push	r5
     3e6:	6f 92       	push	r6
     3e8:	7f 92       	push	r7
     3ea:	8f 92       	push	r8
     3ec:	9f 92       	push	r9
     3ee:	af 92       	push	r10
     3f0:	bf 92       	push	r11
     3f2:	cf 92       	push	r12
     3f4:	df 92       	push	r13
     3f6:	ef 92       	push	r14
     3f8:	ff 92       	push	r15
     3fa:	0f 93       	push	r16
     3fc:	1f 93       	push	r17
     3fe:	df 93       	push	r29
     400:	cf 93       	push	r28
     402:	00 d0       	rcall	.+0      	; 0x404 <collect_run+0x26>
     404:	00 d0       	rcall	.+0      	; 0x406 <collect_run+0x28>
     406:	cd b7       	in	r28, 0x3d	; 61
     408:	de b7       	in	r29, 0x3e	; 62
     40a:	8b 01       	movw	r16, r22
     40c:	7a 01       	movw	r14, r20
     40e:	0e 94 8a 02 	call	0x514	; 0x514 <os_sensor_open>
     412:	3c 01       	movw	r6, r24
     414:	c8 01       	movw	r24, r16
     416:	62 e0       	ldi	r22, 0x02	; 2
     418:	70 e0       	ldi	r23, 0x00	; 0
     41a:	0e 94 10 06 	call	0xc20	; 0xc20 <os_flash_open>
     41e:	4c 01       	movw	r8, r24
     420:	0e 94 63 06 	call	0xcc6	; 0xcc6 <os_now>
     424:	5b 01       	movw	r10, r22
     426:	6c 01       	movw	r12, r24
     428:	17 01       	movw	r2, r14
     42a:	44 24       	eor	r4, r4
     42c:	55 24       	eor	r5, r5
     42e:	8e 01       	movw	r16, r28
     430:	0f 5f       	subi	r16, 0xFF	; 255
     432:	1f 4f       	sbci	r17, 0xFF	; 255
     434:	a2 0c       	add	r10, r2
     436:	b3 1c       	adc	r11, r3
     438:	c4 1c       	adc	r12, r4
     43a:	d5 1c       	adc	r13, r5
     43c:	c6 01       	movw	r24, r12
     43e:	b5 01       	movw	r22, r10
     440:	0e 94 56 02 	call	0x4ac	; 0x4ac <tc_sleep>
     444:	c3 01       	movw	r24, r6
     446:	b8 01       	movw	r22, r16
     448:	0e 94 65 02 	call	0x4ca	; 0x4ca <tc_sensor_read>
     44c:	89 2b       	or	r24, r25
     44e:	d1 f7       	brne	.-12     	; 0x444 <collect_run+0x66>
     450:	c4 01       	movw	r24, r8
     452:	b8 01       	movw	r22, r16
     454:	44 e0       	ldi	r20, 0x04	; 4
     456:	50 e0       	ldi	r21, 0x00	; 0
     458:	0e 94 62 02 	call	0x4c4	; 0x4c4 <tc_flash_write>
     45c:	89 2b       	or	r24, r25
     45e:	51 f3       	breq	.-44     	; 0x434 <collect_run+0x56>
     460:	c4 01       	movw	r24, r8
     462:	b8 01       	movw	r22, r16
     464:	44 e0       	ldi	r20, 0x04	; 4
     466:	50 e0       	ldi	r21, 0x00	; 0
     468:	0e 94 62 02 	call	0x4c4	; 0x4c4 <tc_flash_write>
     46c:	89 2b       	or	r24, r25
     46e:	81 f7       	brne	.-32     	; 0x450 <collect_run+0x72>
     470:	e1 cf       	rjmp	.-62     	; 0x434 <collect_run+0x56>

00000472 <task_collect>:
     472:	84 e2       	ldi	r24, 0x24	; 36
     474:	91 e0       	ldi	r25, 0x01	; 1
     476:	63 e1       	ldi	r22, 0x13	; 19
     478:	71 e0       	ldi	r23, 0x01	; 1
     47a:	42 e3       	ldi	r20, 0x32	; 50
     47c:	50 e0       	ldi	r21, 0x00	; 0
     47e:	0e 94 ef 01 	call	0x3de	; 0x3de <collect_run>
     482:	0e 94 e1 0d 	call	0x1bc2	; 0x1bc2 <abort>

00000486 <main>:
     486:	0e 94 68 02 	call	0x4d0	; 0x4d0 <tc_init>
     48a:	89 e3       	ldi	r24, 0x39	; 57
     48c:	92 e0       	ldi	r25, 0x02	; 2
     48e:	0e 94 6a 02 	call	0x4d4	; 0x4d4 <tc_run_thread>
     492:	87 ee       	ldi	r24, 0xE7	; 231
     494:	91 e0       	ldi	r25, 0x01	; 1
     496:	0e 94 6a 02 	call	0x4d4	; 0x4d4 <tc_run_thread>
     49a:	8e e9       	ldi	r24, 0x9E	; 158
     49c:	91 e0       	ldi	r25, 0x01	; 1
     49e:	0e 94 6a 02 	call	0x4d4	; 0x4d4 <tc_run_thread>
     4a2:	0e 94 69 02 	call	0x4d2	; 0x4d2 <tc_run>
     4a6:	80 e0       	ldi	r24, 0x00	; 0
     4a8:	90 e0       	ldi	r25, 0x00	; 0
     4aa:	08 95       	ret

000004ac <tc_sleep>:
     4ac:	81 e0       	ldi	r24, 0x01	; 1
     4ae:	90 e0       	ldi	r25, 0x00	; 0
     4b0:	08 95       	ret

000004b2 <tc_receive>:
     4b2:	81 e0       	ldi	r24, 0x01	; 1
     4b4:	90 e0       	ldi	r25, 0x00	; 0
     4b6:	08 95       	ret

000004b8 <tc_send>:
     4b8:	81 e0       	ldi	r24, 0x01	; 1
     4ba:	90 e0       	ldi	r25, 0x00	; 0
     4bc:	08 95       	ret

000004be <tc_flash_read>:
     4be:	81 e0       	ldi	r24, 0x01	; 1
     4c0:	90 e0       	ldi	r25, 0x00	; 0
     4c2:	08 95       	ret

000004c4 <tc_flash_write>:
     4c4:	81 e0       	ldi	r24, 0x01	; 1
     4c6:	90 e0       	ldi	r25, 0x00	; 0
     4c8:	08 95       	ret

000004ca <tc_sensor_read>:
     4ca:	81 e0       	ldi	r24, 0x01	; 1
     4cc:	90 e0       	ldi	r25, 0x00	; 0
     4ce:	08 95       	ret

000004d0 <tc_init>:
     4d0:	08 95       	ret

000004d2 <tc_run>:
     4d2:	08 95       	ret

000004d4 <tc_run_thread>:
     4d4:	08 95       	ret

000004d6 <os_listen>:
     4d6:	20 91 22 06 	lds	r18, 0x0622
     4da:	30 91 23 06 	lds	r19, 0x0623
     4de:	2f 5f       	subi	r18, 0xFF	; 255
     4e0:	3f 4f       	sbci	r19, 0xFF	; 255
     4e2:	30 93 23 06 	sts	0x0623, r19
     4e6:	20 93 22 06 	sts	0x0622, r18
     4ea:	21 50       	subi	r18, 0x01	; 1
     4ec:	30 40       	sbci	r19, 0x00	; 0
     4ee:	c9 01       	movw	r24, r18
     4f0:	08 95       	ret

000004f2 <os_connect>:
     4f2:	20 91 22 06 	lds	r18, 0x0622
     4f6:	30 91 23 06 	lds	r19, 0x0623
     4fa:	2f 5f       	subi	r18, 0xFF	; 255
     4fc:	3f 4f       	sbci	r19, 0xFF	; 255
     4fe:	30 93 23 06 	sts	0x0623, r19
     502:	20 93 22 06 	sts	0x0622, r18
     506:	21 50       	subi	r18, 0x01	; 1
     508:	30 40       	sbci	r19, 0x00	; 0
     50a:	c9 01       	movw	r24, r18
     50c:	08 95       	ret

0000050e <os_flash_seek>:
     50e:	80 e0       	ldi	r24, 0x00	; 0
     510:	90 e0       	ldi	r25, 0x00	; 0
     512:	08 95       	ret

00000514 <os_sensor_open>:
     514:	20 91 22 06 	lds	r18, 0x0622
     518:	30 91 23 06 	lds	r19, 0x0623
     51c:	2f 5f       	subi	r18, 0xFF	; 255
     51e:	3f 4f       	sbci	r19, 0xFF	; 255
     520:	30 93 23 06 	sts	0x0623, r19
     524:	20 93 22 06 	sts	0x0622, r18
     528:	21 50       	subi	r18, 0x01	; 1
     52a:	30 40       	sbci	r19, 0x00	; 0
     52c:	c9 01       	movw	r24, r18
     52e:	08 95       	ret

00000530 <os_sensor_read>:
     530:	af 92       	push	r10
     532:	bf 92       	push	r11
     534:	cf 92       	push	r12
     536:	df 92       	push	r13
     538:	ef 92       	push	r14
     53a:	ff 92       	push	r15
     53c:	0f 93       	push	r16
     53e:	1f 93       	push	r17
     540:	cf 93       	push	r28
     542:	df 93       	push	r29
     544:	7c 01       	movw	r14, r24
     546:	6b 01       	movw	r12, r22
     548:	5a 01       	movw	r10, r20
     54a:	8c e0       	ldi	r24, 0x0C	; 12
     54c:	90 e0       	ldi	r25, 0x00	; 0
     54e:	0e 94 71 0c 	call	0x18e2	; 0x18e2 <malloc>
     552:	8c 01       	movw	r16, r24
     554:	dc 01       	movw	r26, r24
     556:	13 96       	adiw	r26, 0x03	; 3
     558:	fc 92       	st	X, r15
     55a:	ee 92       	st	-X, r14
     55c:	12 97       	sbiw	r26, 0x02	; 2
     55e:	15 96       	adiw	r26, 0x05	; 5
     560:	dc 92       	st	X, r13
     562:	ce 92       	st	-X, r12
     564:	14 97       	sbiw	r26, 0x04	; 4
     566:	0e 94 b2 0b 	call	0x1764	; 0x1764 <random_error>
     56a:	e8 01       	movw	r28, r16
     56c:	9f 83       	std	Y+7, r25	; 0x07
     56e:	8e 83       	std	Y+6, r24	; 0x06
     570:	84 e6       	ldi	r24, 0x64	; 100
     572:	90 e0       	ldi	r25, 0x00	; 0
     574:	0e 94 84 0b 	call	0x1708	; 0x1708 <random_integer>
     578:	aa 27       	eor	r26, r26
     57a:	97 fd       	sbrc	r25, 7
     57c:	a0 95       	com	r26
     57e:	ba 2f       	mov	r27, r26
     580:	f8 01       	movw	r30, r16
     582:	80 87       	std	Z+8, r24	; 0x08
     584:	91 87       	std	Z+9, r25	; 0x09
     586:	a2 87       	std	Z+10, r26	; 0x0a
     588:	b3 87       	std	Z+11, r27	; 0x0b
     58a:	81 e0       	ldi	r24, 0x01	; 1
     58c:	90 e0       	ldi	r25, 0x00	; 0
     58e:	63 e0       	ldi	r22, 0x03	; 3
     590:	70 e0       	ldi	r23, 0x00	; 0
     592:	0e 94 0d 0c 	call	0x181a	; 0x181a <random_integer_range>
     596:	6c 01       	movw	r12, r24
     598:	8d b7       	in	r24, 0x3d	; 61
     59a:	9e b7       	in	r25, 0x3e	; 62
     59c:	0a 97       	sbiw	r24, 0x0a	; 10
     59e:	0f b6       	in	r0, 0x3f	; 63
     5a0:	f8 94       	cli
     5a2:	9e bf       	out	0x3e, r25	; 62
     5a4:	0f be       	out	0x3f, r0	; 63
     5a6:	8d bf       	out	0x3d, r24	; 61
     5a8:	ed b7       	in	r30, 0x3d	; 61
     5aa:	fe b7       	in	r31, 0x3e	; 62
     5ac:	31 96       	adiw	r30, 0x01	; 1
     5ae:	8b e2       	ldi	r24, 0x2B	; 43
     5b0:	91 e0       	ldi	r25, 0x01	; 1
     5b2:	ad b7       	in	r26, 0x3d	; 61
     5b4:	be b7       	in	r27, 0x3e	; 62
     5b6:	12 96       	adiw	r26, 0x02	; 2
     5b8:	9c 93       	st	X, r25
     5ba:	8e 93       	st	-X, r24
     5bc:	11 97       	sbiw	r26, 0x01	; 1
     5be:	87 e3       	ldi	r24, 0x37	; 55
     5c0:	91 e0       	ldi	r25, 0x01	; 1
     5c2:	93 83       	std	Z+3, r25	; 0x03
     5c4:	82 83       	std	Z+2, r24	; 0x02
     5c6:	b5 82       	std	Z+5, r11	; 0x05
     5c8:	a4 82       	std	Z+4, r10	; 0x04
     5ca:	88 85       	ldd	r24, Y+8	; 0x08
     5cc:	99 85       	ldd	r25, Y+9	; 0x09
     5ce:	aa 85       	ldd	r26, Y+10	; 0x0a
     5d0:	bb 85       	ldd	r27, Y+11	; 0x0b
     5d2:	86 83       	std	Z+6, r24	; 0x06
     5d4:	97 83       	std	Z+7, r25	; 0x07
     5d6:	a0 87       	std	Z+8, r26	; 0x08
     5d8:	b1 87       	std	Z+9, r27	; 0x09
     5da:	0e 94 a8 07 	call	0xf50	; 0xf50 <logger_syscall>
     5de:	99 83       	std	Y+1, r25	; 0x01
     5e0:	88 83       	st	Y, r24
     5e2:	ed b7       	in	r30, 0x3d	; 61
     5e4:	fe b7       	in	r31, 0x3e	; 62
     5e6:	3a 96       	adiw	r30, 0x0a	; 10
     5e8:	0f b6       	in	r0, 0x3f	; 63
     5ea:	f8 94       	cli
     5ec:	fe bf       	out	0x3e, r31	; 62
     5ee:	0f be       	out	0x3f, r0	; 63
     5f0:	ed bf       	out	0x3d, r30	; 61
     5f2:	ee 24       	eor	r14, r14
     5f4:	d7 fc       	sbrc	r13, 7
     5f6:	e0 94       	com	r14
     5f8:	fe 2c       	mov	r15, r14
     5fa:	c7 01       	movw	r24, r14
     5fc:	b6 01       	movw	r22, r12
     5fe:	4a e6       	ldi	r20, 0x6A	; 106
     600:	53 e0       	ldi	r21, 0x03	; 3
     602:	98 01       	movw	r18, r16
     604:	0e 94 15 0b 	call	0x162a	; 0x162a <dispatcher_enqueue>
     608:	df 91       	pop	r29
     60a:	cf 91       	pop	r28
     60c:	1f 91       	pop	r17
     60e:	0f 91       	pop	r16
     610:	ff 90       	pop	r15
     612:	ef 90       	pop	r14
     614:	df 90       	pop	r13
     616:	cf 90       	pop	r12
     618:	bf 90       	pop	r11
     61a:	af 90       	pop	r10
     61c:	08 95       	ret

0000061e <os_sleep>:
     61e:	8f 92       	push	r8
     620:	9f 92       	push	r9
     622:	af 92       	push	r10
     624:	bf 92       	push	r11
     626:	cf 92       	push	r12
     628:	df 92       	push	r13
     62a:	ef 92       	push	r14
     62c:	ff 92       	push	r15
     62e:	0f 93       	push	r16
     630:	1f 93       	push	r17
     632:	5c 01       	movw	r10, r24
     634:	4b 01       	movw	r8, r22
     636:	69 01       	movw	r12, r18
     638:	7a 01       	movw	r14, r20
     63a:	88 e0       	ldi	r24, 0x08	; 8
     63c:	90 e0       	ldi	r25, 0x00	; 0
     63e:	0e 94 71 0c 	call	0x18e2	; 0x18e2 <malloc>
     642:	8c 01       	movw	r16, r24
     644:	dc 01       	movw	r26, r24
     646:	13 96       	adiw	r26, 0x03	; 3
     648:	bc 92       	st	X, r11
     64a:	ae 92       	st	-X, r10
     64c:	12 97       	sbiw	r26, 0x02	; 2
     64e:	15 96       	adiw	r26, 0x05	; 5
     650:	9c 92       	st	X, r9
     652:	8e 92       	st	-X, r8
     654:	14 97       	sbiw	r26, 0x04	; 4
     656:	0e 94 b2 0b 	call	0x1764	; 0x1764 <random_error>
     65a:	f8 01       	movw	r30, r16
     65c:	97 83       	std	Z+7, r25	; 0x07
     65e:	86 83       	std	Z+6, r24	; 0x06
     660:	8d b7       	in	r24, 0x3d	; 61
     662:	9e b7       	in	r25, 0x3e	; 62
     664:	08 97       	sbiw	r24, 0x08	; 8
     666:	0f b6       	in	r0, 0x3f	; 63
     668:	f8 94       	cli
     66a:	9e bf       	out	0x3e, r25	; 62
     66c:	0f be       	out	0x3f, r0	; 63
     66e:	8d bf       	out	0x3d, r24	; 61
     670:	ed b7       	in	r30, 0x3d	; 61
     672:	fe b7       	in	r31, 0x3e	; 62
     674:	31 96       	adiw	r30, 0x01	; 1
     676:	8e e3       	ldi	r24, 0x3E	; 62
     678:	91 e0       	ldi	r25, 0x01	; 1
     67a:	ad b7       	in	r26, 0x3d	; 61
     67c:	be b7       	in	r27, 0x3e	; 62
     67e:	12 96       	adiw	r26, 0x02	; 2
     680:	9c 93       	st	X, r25
     682:	8e 93       	st	-X, r24
     684:	11 97       	sbiw	r26, 0x01	; 1
     686:	84 e4       	ldi	r24, 0x44	; 68
     688:	91 e0       	ldi	r25, 0x01	; 1
     68a:	93 83       	std	Z+3, r25	; 0x03
     68c:	82 83       	std	Z+2, r24	; 0x02
     68e:	c4 82       	std	Z+4, r12	; 0x04
     690:	d5 82       	std	Z+5, r13	; 0x05
     692:	e6 82       	std	Z+6, r14	; 0x06
     694:	f7 82       	std	Z+7, r15	; 0x07
     696:	0e 94 a8 07 	call	0xf50	; 0xf50 <logger_syscall>
     69a:	f8 01       	movw	r30, r16
     69c:	91 83       	std	Z+1, r25	; 0x01
     69e:	80 83       	st	Z, r24
     6a0:	8d b7       	in	r24, 0x3d	; 61
     6a2:	9e b7       	in	r25, 0x3e	; 62
     6a4:	08 96       	adiw	r24, 0x08	; 8
     6a6:	0f b6       	in	r0, 0x3f	; 63
     6a8:	f8 94       	cli
     6aa:	9e bf       	out	0x3e, r25	; 62
     6ac:	0f be       	out	0x3f, r0	; 63
     6ae:	8d bf       	out	0x3d, r24	; 61
     6b0:	c7 01       	movw	r24, r14
     6b2:	b6 01       	movw	r22, r12
     6b4:	48 e8       	ldi	r20, 0x88	; 136
     6b6:	53 e0       	ldi	r21, 0x03	; 3
     6b8:	98 01       	movw	r18, r16
     6ba:	0e 94 15 0b 	call	0x162a	; 0x162a <dispatcher_enqueue>
     6be:	1f 91       	pop	r17
     6c0:	0f 91       	pop	r16
     6c2:	ff 90       	pop	r15
     6c4:	ef 90       	pop	r14
     6c6:	df 90       	pop	r13
     6c8:	cf 90       	pop	r12
     6ca:	bf 90       	pop	r11
     6cc:	af 90       	pop	r10
     6ce:	9f 90       	pop	r9
     6d0:	8f 90       	pop	r8
     6d2:	08 95       	ret

000006d4 <cb_sensor_read>:
     6d4:	0f 93       	push	r16
     6d6:	1f 93       	push	r17
     6d8:	8c 01       	movw	r16, r24
     6da:	dc 01       	movw	r26, r24
     6dc:	8d 91       	ld	r24, X+
     6de:	9c 91       	ld	r25, X
     6e0:	0e 94 1d 07 	call	0xe3a	; 0xe3a <logger_syscall_return>
     6e4:	f8 01       	movw	r30, r16
     6e6:	66 81       	ldd	r22, Z+6	; 0x06
     6e8:	77 81       	ldd	r23, Z+7	; 0x07
     6ea:	20 85       	ldd	r18, Z+8	; 0x08
     6ec:	31 85       	ldd	r19, Z+9	; 0x09
     6ee:	42 85       	ldd	r20, Z+10	; 0x0a
     6f0:	53 85       	ldd	r21, Z+11	; 0x0b
     6f2:	02 80       	ldd	r0, Z+2	; 0x02
     6f4:	f3 81       	ldd	r31, Z+3	; 0x03
     6f6:	e0 2d       	mov	r30, r0
     6f8:	d8 01       	movw	r26, r16
     6fa:	14 96       	adiw	r26, 0x04	; 4
     6fc:	8d 91       	ld	r24, X+
     6fe:	9c 91       	ld	r25, X
     700:	15 97       	sbiw	r26, 0x05	; 5
     702:	09 95       	icall
     704:	c8 01       	movw	r24, r16
     706:	0e 94 1e 0d 	call	0x1a3c	; 0x1a3c <free>
     70a:	1f 91       	pop	r17
     70c:	0f 91       	pop	r16
     70e:	08 95       	ret

00000710 <cb_default>:
     710:	0f 93       	push	r16
     712:	1f 93       	push	r17
     714:	8c 01       	movw	r16, r24
     716:	dc 01       	movw	r26, r24
     718:	8d 91       	ld	r24, X+
     71a:	9c 91       	ld	r25, X
     71c:	0e 94 1d 07 	call	0xe3a	; 0xe3a <logger_syscall_return>
     720:	f8 01       	movw	r30, r16
     722:	66 81       	ldd	r22, Z+6	; 0x06
     724:	77 81       	ldd	r23, Z+7	; 0x07
     726:	02 80       	ldd	r0, Z+2	; 0x02
     728:	f3 81       	ldd	r31, Z+3	; 0x03
     72a:	e0 2d       	mov	r30, r0
     72c:	d8 01       	movw	r26, r16
     72e:	14 96       	adiw	r26, 0x04	; 4
     730:	8d 91       	ld	r24, X+
     732:	9c 91       	ld	r25, X
     734:	15 97       	sbiw	r26, 0x05	; 5
     736:	09 95       	icall
     738:	c8 01       	movw	r24, r16
     73a:	0e 94 1e 0d 	call	0x1a3c	; 0x1a3c <free>
     73e:	1f 91       	pop	r17
     740:	0f 91       	pop	r16
     742:	08 95       	ret

00000744 <cb_receive>:
     744:	0f 93       	push	r16
     746:	1f 93       	push	r17
     748:	8c 01       	movw	r16, r24
     74a:	dc 01       	movw	r26, r24
     74c:	8d 91       	ld	r24, X+
     74e:	9c 91       	ld	r25, X
     750:	0e 94 1d 07 	call	0xe3a	; 0xe3a <logger_syscall_return>
     754:	f8 01       	movw	r30, r16
     756:	66 81       	ldd	r22, Z+6	; 0x06
     758:	77 81       	ldd	r23, Z+7	; 0x07
     75a:	40 85       	ldd	r20, Z+8	; 0x08
     75c:	51 85       	ldd	r21, Z+9	; 0x09
     75e:	02 80       	ldd	r0, Z+2	; 0x02
     760:	f3 81       	ldd	r31, Z+3	; 0x03
     762:	e0 2d       	mov	r30, r0
     764:	d8 01       	movw	r26, r16
     766:	14 96       	adiw	r26, 0x04	; 4
     768:	8d 91       	ld	r24, X+
     76a:	9c 91       	ld	r25, X
     76c:	15 97       	sbiw	r26, 0x05	; 5
     76e:	09 95       	icall
     770:	c8 01       	movw	r24, r16
     772:	0e 94 1e 0d 	call	0x1a3c	; 0x1a3c <free>
     776:	1f 91       	pop	r17
     778:	0f 91       	pop	r16
     77a:	08 95       	ret

0000077c <os_flash_write>:
     77c:	4f 92       	push	r4
     77e:	5f 92       	push	r5
     780:	6f 92       	push	r6
     782:	7f 92       	push	r7
     784:	8f 92       	push	r8
     786:	9f 92       	push	r9
     788:	af 92       	push	r10
     78a:	bf 92       	push	r11
     78c:	cf 92       	push	r12
     78e:	df 92       	push	r13
     790:	ef 92       	push	r14
     792:	ff 92       	push	r15
     794:	0f 93       	push	r16
     796:	1f 93       	push	r17
     798:	cf 93       	push	r28
     79a:	df 93       	push	r29
     79c:	4c 01       	movw	r8, r24
     79e:	3b 01       	movw	r6, r22
     7a0:	5a 01       	movw	r10, r20
     7a2:	52 2e       	mov	r5, r18
     7a4:	43 2e       	mov	r4, r19
     7a6:	68 01       	movw	r12, r16
     7a8:	80 91 28 0e 	lds	r24, 0x0E28
     7ac:	90 91 29 0e 	lds	r25, 0x0E29
     7b0:	48 17       	cp	r20, r24
     7b2:	59 07       	cpc	r21, r25
     7b4:	0c f0       	brlt	.+2      	; 0x7b8 <os_flash_write+0x3c>
     7b6:	86 c0       	rjmp	.+268    	; 0x8c4 <os_flash_write+0x148>
     7b8:	82 e0       	ldi	r24, 0x02	; 2
     7ba:	94 e0       	ldi	r25, 0x04	; 4
     7bc:	48 9f       	mul	r20, r24
     7be:	70 01       	movw	r14, r0
     7c0:	49 9f       	mul	r20, r25
     7c2:	f0 0c       	add	r15, r0
     7c4:	58 9f       	mul	r21, r24
     7c6:	f0 0c       	add	r15, r0
     7c8:	11 24       	eor	r1, r1
     7ca:	87 01       	movw	r16, r14
     7cc:	0c 5d       	subi	r16, 0xDC	; 220
     7ce:	15 4f       	sbci	r17, 0xF5	; 245
     7d0:	d8 01       	movw	r26, r16
     7d2:	8d 91       	ld	r24, X+
     7d4:	9c 91       	ld	r25, X
     7d6:	8c 0d       	add	r24, r12
     7d8:	9d 1d       	adc	r25, r13
     7da:	80 50       	subi	r24, 0x00	; 0
     7dc:	94 40       	sbci	r25, 0x04	; 4
     7de:	08 f0       	brcs	.+2      	; 0x7e2 <os_flash_write+0x66>
     7e0:	71 c0       	rjmp	.+226    	; 0x8c4 <os_flash_write+0x148>
     7e2:	88 e0       	ldi	r24, 0x08	; 8
     7e4:	90 e0       	ldi	r25, 0x00	; 0
     7e6:	0e 94 71 0c 	call	0x18e2	; 0x18e2 <malloc>
     7ea:	ec 01       	movw	r28, r24
     7ec:	9b 82       	std	Y+3, r9	; 0x03
     7ee:	8a 82       	std	Y+2, r8	; 0x02
     7f0:	7d 82       	std	Y+5, r7	; 0x05
     7f2:	6c 82       	std	Y+4, r6	; 0x04
     7f4:	0e 94 b2 0b 	call	0x1764	; 0x1764 <random_error>
     7f8:	9f 83       	std	Y+7, r25	; 0x07
     7fa:	8e 83       	std	Y+6, r24	; 0x06
     7fc:	89 2b       	or	r24, r25
     7fe:	a9 f4       	brne	.+42     	; 0x82a <os_flash_write+0xae>
     800:	f8 01       	movw	r30, r16
     802:	20 81       	ld	r18, Z
     804:	31 81       	ldd	r19, Z+1	; 0x01
     806:	2e 0d       	add	r18, r14
     808:	3f 1d       	adc	r19, r15
     80a:	2c 5d       	subi	r18, 0xDC	; 220
     80c:	39 4f       	sbci	r19, 0xF9	; 249
     80e:	c9 01       	movw	r24, r18
     810:	65 2d       	mov	r22, r5
     812:	74 2d       	mov	r23, r4
     814:	a6 01       	movw	r20, r12
     816:	0e 94 e6 0d 	call	0x1bcc	; 0x1bcc <memcpy>
     81a:	d8 01       	movw	r26, r16
     81c:	8d 91       	ld	r24, X+
     81e:	9c 91       	ld	r25, X
     820:	11 97       	sbiw	r26, 0x01	; 1
     822:	8c 0d       	add	r24, r12
     824:	9d 1d       	adc	r25, r13
     826:	8d 93       	st	X+, r24
     828:	9c 93       	st	X, r25
     82a:	81 e0       	ldi	r24, 0x01	; 1
     82c:	90 e0       	ldi	r25, 0x00	; 0
     82e:	67 e0       	ldi	r22, 0x07	; 7
     830:	70 e0       	ldi	r23, 0x00	; 0
     832:	0e 94 0d 0c 	call	0x181a	; 0x181a <random_integer_range>
     836:	7c 01       	movw	r14, r24
     838:	85 2d       	mov	r24, r5
     83a:	94 2d       	mov	r25, r4
     83c:	b6 01       	movw	r22, r12
     83e:	0e 94 80 06 	call	0xd00	; 0xd00 <array>
     842:	ed b7       	in	r30, 0x3d	; 61
     844:	fe b7       	in	r31, 0x3e	; 62
     846:	38 97       	sbiw	r30, 0x08	; 8
     848:	0f b6       	in	r0, 0x3f	; 63
     84a:	f8 94       	cli
     84c:	fe bf       	out	0x3e, r31	; 62
     84e:	0f be       	out	0x3f, r0	; 63
     850:	ed bf       	out	0x3d, r30	; 61
     852:	31 96       	adiw	r30, 0x01	; 1
     854:	27 e4       	ldi	r18, 0x47	; 71
     856:	31 e0       	ldi	r19, 0x01	; 1
     858:	ad b7       	in	r26, 0x3d	; 61
     85a:	be b7       	in	r27, 0x3e	; 62
     85c:	12 96       	adiw	r26, 0x02	; 2
     85e:	3c 93       	st	X, r19
     860:	2e 93       	st	-X, r18
     862:	11 97       	sbiw	r26, 0x01	; 1
     864:	23 e5       	ldi	r18, 0x53	; 83
     866:	31 e0       	ldi	r19, 0x01	; 1
     868:	33 83       	std	Z+3, r19	; 0x03
     86a:	22 83       	std	Z+2, r18	; 0x02
     86c:	b5 82       	std	Z+5, r11	; 0x05
     86e:	a4 82       	std	Z+4, r10	; 0x04
     870:	97 83       	std	Z+7, r25	; 0x07
     872:	86 83       	std	Z+6, r24	; 0x06
     874:	0e 94 a8 07 	call	0xf50	; 0xf50 <logger_syscall>
     878:	99 83       	std	Y+1, r25	; 0x01
     87a:	88 83       	st	Y, r24
     87c:	ed b7       	in	r30, 0x3d	; 61
     87e:	fe b7       	in	r31, 0x3e	; 62
     880:	38 96       	adiw	r30, 0x08	; 8
     882:	0f b6       	in	r0, 0x3f	; 63
     884:	f8 94       	cli
     886:	fe bf       	out	0x3e, r31	; 62
     888:	0f be       	out	0x3f, r0	; 63
     88a:	ed bf       	out	0x3d, r30	; 61
     88c:	00 27       	eor	r16, r16
     88e:	f7 fc       	sbrc	r15, 7
     890:	00 95       	com	r16
     892:	10 2f       	mov	r17, r16
     894:	c8 01       	movw	r24, r16
     896:	b7 01       	movw	r22, r14
     898:	48 e8       	ldi	r20, 0x88	; 136
     89a:	53 e0       	ldi	r21, 0x03	; 3
     89c:	9e 01       	movw	r18, r28
     89e:	0e 94 15 0b 	call	0x162a	; 0x162a <dispatcher_enqueue>
     8a2:	df 91       	pop	r29
     8a4:	cf 91       	pop	r28
     8a6:	1f 91       	pop	r17
     8a8:	0f 91       	pop	r16
     8aa:	ff 90       	pop	r15
     8ac:	ef 90       	pop	r14
     8ae:	df 90       	pop	r13
     8b0:	cf 90       	pop	r12
     8b2:	bf 90       	pop	r11
     8b4:	af 90       	pop	r10
     8b6:	9f 90       	pop	r9
     8b8:	8f 90       	pop	r8
     8ba:	7f 90       	pop	r7
     8bc:	6f 90       	pop	r6
     8be:	5f 90       	pop	r5
     8c0:	4f 90       	pop	r4
     8c2:	08 95       	ret
     8c4:	0e 94 e1 0d 	call	0x1bc2	; 0x1bc2 <abort>

000008c8 <os_flash_read>:
     8c8:	4f 92       	push	r4
     8ca:	5f 92       	push	r5
     8cc:	6f 92       	push	r6
     8ce:	7f 92       	push	r7
     8d0:	8f 92       	push	r8
     8d2:	9f 92       	push	r9
     8d4:	af 92       	push	r10
     8d6:	bf 92       	push	r11
     8d8:	cf 92       	push	r12
     8da:	df 92       	push	r13
     8dc:	ef 92       	push	r14
     8de:	ff 92       	push	r15
     8e0:	0f 93       	push	r16
     8e2:	1f 93       	push	r17
     8e4:	cf 93       	push	r28
     8e6:	df 93       	push	r29
     8e8:	6c 01       	movw	r12, r24
     8ea:	4b 01       	movw	r8, r22
     8ec:	5a 01       	movw	r10, r20
     8ee:	52 2e       	mov	r5, r18
     8f0:	43 2e       	mov	r4, r19
     8f2:	38 01       	movw	r6, r16
     8f4:	80 91 28 0e 	lds	r24, 0x0E28
     8f8:	90 91 29 0e 	lds	r25, 0x0E29
     8fc:	48 17       	cp	r20, r24
     8fe:	59 07       	cpc	r21, r25
     900:	0c f0       	brlt	.+2      	; 0x904 <os_flash_read+0x3c>
     902:	90 c0       	rjmp	.+288    	; 0xa24 <os_flash_read+0x15c>
     904:	82 e0       	ldi	r24, 0x02	; 2
     906:	94 e0       	ldi	r25, 0x04	; 4
     908:	48 9f       	mul	r20, r24
     90a:	e0 01       	movw	r28, r0
     90c:	49 9f       	mul	r20, r25
     90e:	d0 0d       	add	r29, r0
     910:	58 9f       	mul	r21, r24
     912:	d0 0d       	add	r29, r0
     914:	11 24       	eor	r1, r1
     916:	cc 5d       	subi	r28, 0xDC	; 220
     918:	d9 4f       	sbci	r29, 0xF9	; 249
     91a:	e1 2c       	mov	r14, r1
     91c:	84 e0       	ldi	r24, 0x04	; 4
     91e:	f8 2e       	mov	r15, r24
     920:	ec 0e       	add	r14, r28
     922:	fd 1e       	adc	r15, r29
     924:	d7 01       	movw	r26, r14
     926:	8d 91       	ld	r24, X+
     928:	9c 91       	ld	r25, X
     92a:	08 17       	cp	r16, r24
     92c:	19 07       	cpc	r17, r25
     92e:	08 f4       	brcc	.+2      	; 0x932 <os_flash_read+0x6a>
     930:	79 c0       	rjmp	.+242    	; 0xa24 <os_flash_read+0x15c>
     932:	8a e0       	ldi	r24, 0x0A	; 10
     934:	90 e0       	ldi	r25, 0x00	; 0
     936:	0e 94 71 0c 	call	0x18e2	; 0x18e2 <malloc>
     93a:	8c 01       	movw	r16, r24
     93c:	fc 01       	movw	r30, r24
     93e:	d3 82       	std	Z+3, r13	; 0x03
     940:	c2 82       	std	Z+2, r12	; 0x02
     942:	95 82       	std	Z+5, r9	; 0x05
     944:	84 82       	std	Z+4, r8	; 0x04
     946:	17 82       	std	Z+7, r1	; 0x07
     948:	16 82       	std	Z+6, r1	; 0x06
     94a:	d7 01       	movw	r26, r14
     94c:	4d 91       	ld	r20, X+
     94e:	5c 91       	ld	r21, X
     950:	85 2d       	mov	r24, r5
     952:	94 2d       	mov	r25, r4
     954:	be 01       	movw	r22, r28
     956:	0e 94 e6 0d 	call	0x1bcc	; 0x1bcc <memcpy>
     95a:	f7 01       	movw	r30, r14
     95c:	80 81       	ld	r24, Z
     95e:	91 81       	ldd	r25, Z+1	; 0x01
     960:	d8 01       	movw	r26, r16
     962:	19 96       	adiw	r26, 0x09	; 9
     964:	9c 93       	st	X, r25
     966:	8e 93       	st	-X, r24
     968:	18 97       	sbiw	r26, 0x08	; 8
     96a:	11 82       	std	Z+1, r1	; 0x01
     96c:	10 82       	st	Z, r1
     96e:	81 e0       	ldi	r24, 0x01	; 1
     970:	90 e0       	ldi	r25, 0x00	; 0
     972:	6a e0       	ldi	r22, 0x0A	; 10
     974:	70 e0       	ldi	r23, 0x00	; 0
     976:	0e 94 0d 0c 	call	0x181a	; 0x181a <random_integer_range>
     97a:	6c 01       	movw	r12, r24
     97c:	f8 01       	movw	r30, r16
     97e:	60 85       	ldd	r22, Z+8	; 0x08
     980:	71 85       	ldd	r23, Z+9	; 0x09
     982:	85 2d       	mov	r24, r5
     984:	94 2d       	mov	r25, r4
     986:	0e 94 80 06 	call	0xd00	; 0xd00 <array>
     98a:	2d b7       	in	r18, 0x3d	; 61
     98c:	3e b7       	in	r19, 0x3e	; 62
     98e:	2c 50       	subi	r18, 0x0C	; 12
     990:	30 40       	sbci	r19, 0x00	; 0
     992:	0f b6       	in	r0, 0x3f	; 63
     994:	f8 94       	cli
     996:	3e bf       	out	0x3e, r19	; 62
     998:	0f be       	out	0x3f, r0	; 63
     99a:	2d bf       	out	0x3d, r18	; 61
     99c:	ed b7       	in	r30, 0x3d	; 61
     99e:	fe b7       	in	r31, 0x3e	; 62
     9a0:	31 96       	adiw	r30, 0x01	; 1
     9a2:	2a e5       	ldi	r18, 0x5A	; 90
     9a4:	31 e0       	ldi	r19, 0x01	; 1
     9a6:	ad b7       	in	r26, 0x3d	; 61
     9a8:	be b7       	in	r27, 0x3e	; 62
     9aa:	12 96       	adiw	r26, 0x02	; 2
     9ac:	3c 93       	st	X, r19
     9ae:	2e 93       	st	-X, r18
     9b0:	11 97       	sbiw	r26, 0x01	; 1
     9b2:	25 e6       	ldi	r18, 0x65	; 101
     9b4:	31 e0       	ldi	r19, 0x01	; 1
     9b6:	33 83       	std	Z+3, r19	; 0x03
     9b8:	22 83       	std	Z+2, r18	; 0x02
     9ba:	b5 82       	std	Z+5, r11	; 0x05
     9bc:	a4 82       	std	Z+4, r10	; 0x04
     9be:	93 01       	movw	r18, r6
     9c0:	40 e0       	ldi	r20, 0x00	; 0
     9c2:	50 e0       	ldi	r21, 0x00	; 0
     9c4:	26 83       	std	Z+6, r18	; 0x06
     9c6:	37 83       	std	Z+7, r19	; 0x07
     9c8:	40 87       	std	Z+8, r20	; 0x08
     9ca:	51 87       	std	Z+9, r21	; 0x09
     9cc:	93 87       	std	Z+11, r25	; 0x0b
     9ce:	82 87       	std	Z+10, r24	; 0x0a
     9d0:	0e 94 a8 07 	call	0xf50	; 0xf50 <logger_syscall>
     9d4:	f8 01       	movw	r30, r16
     9d6:	91 83       	std	Z+1, r25	; 0x01
     9d8:	80 83       	st	Z, r24
     9da:	2d b7       	in	r18, 0x3d	; 61
     9dc:	3e b7       	in	r19, 0x3e	; 62
     9de:	24 5f       	subi	r18, 0xF4	; 244
     9e0:	3f 4f       	sbci	r19, 0xFF	; 255
     9e2:	0f b6       	in	r0, 0x3f	; 63
     9e4:	f8 94       	cli
     9e6:	3e bf       	out	0x3e, r19	; 62
     9e8:	0f be       	out	0x3f, r0	; 63
     9ea:	2d bf       	out	0x3d, r18	; 61
     9ec:	ee 24       	eor	r14, r14
     9ee:	d7 fc       	sbrc	r13, 7
     9f0:	e0 94       	com	r14
     9f2:	fe 2c       	mov	r15, r14
     9f4:	c7 01       	movw	r24, r14
     9f6:	b6 01       	movw	r22, r12
     9f8:	42 ea       	ldi	r20, 0xA2	; 162
     9fa:	53 e0       	ldi	r21, 0x03	; 3
     9fc:	98 01       	movw	r18, r16
     9fe:	0e 94 15 0b 	call	0x162a	; 0x162a <dispatcher_enqueue>
     a02:	df 91       	pop	r29
     a04:	cf 91       	pop	r28
     a06:	1f 91       	pop	r17
     a08:	0f 91       	pop	r16
     a0a:	ff 90       	pop	r15
     a0c:	ef 90       	pop	r14
     a0e:	df 90       	pop	r13
     a10:	cf 90       	pop	r12
     a12:	bf 90       	pop	r11
     a14:	af 90       	pop	r10
     a16:	9f 90       	pop	r9
     a18:	8f 90       	pop	r8
     a1a:	7f 90       	pop	r7
     a1c:	6f 90       	pop	r6
     a1e:	5f 90       	pop	r5
     a20:	4f 90       	pop	r4
     a22:	08 95       	ret
     a24:	0e 94 e1 0d 	call	0x1bc2	; 0x1bc2 <abort>

00000a28 <os_send>:
     a28:	6f 92       	push	r6
     a2a:	7f 92       	push	r7
     a2c:	8f 92       	push	r8
     a2e:	9f 92       	push	r9
     a30:	af 92       	push	r10
     a32:	bf 92       	push	r11
     a34:	cf 92       	push	r12
     a36:	df 92       	push	r13
     a38:	ef 92       	push	r14
     a3a:	ff 92       	push	r15
     a3c:	0f 93       	push	r16
     a3e:	1f 93       	push	r17
     a40:	6c 01       	movw	r12, r24
     a42:	5b 01       	movw	r10, r22
     a44:	3a 01       	movw	r6, r20
     a46:	49 01       	movw	r8, r18
     a48:	88 e0       	ldi	r24, 0x08	; 8
     a4a:	90 e0       	ldi	r25, 0x00	; 0
     a4c:	0e 94 71 0c 	call	0x18e2	; 0x18e2 <malloc>
     a50:	7c 01       	movw	r14, r24
     a52:	dc 01       	movw	r26, r24
     a54:	13 96       	adiw	r26, 0x03	; 3
     a56:	dc 92       	st	X, r13
     a58:	ce 92       	st	-X, r12
     a5a:	12 97       	sbiw	r26, 0x02	; 2
     a5c:	15 96       	adiw	r26, 0x05	; 5
     a5e:	bc 92       	st	X, r11
     a60:	ae 92       	st	-X, r10
     a62:	14 97       	sbiw	r26, 0x04	; 4
     a64:	0e 94 b2 0b 	call	0x1764	; 0x1764 <random_error>
     a68:	f7 01       	movw	r30, r14
     a6a:	97 83       	std	Z+7, r25	; 0x07
     a6c:	86 83       	std	Z+6, r24	; 0x06
     a6e:	81 e0       	ldi	r24, 0x01	; 1
     a70:	90 e0       	ldi	r25, 0x00	; 0
     a72:	65 e0       	ldi	r22, 0x05	; 5
     a74:	70 e0       	ldi	r23, 0x00	; 0
     a76:	0e 94 0d 0c 	call	0x181a	; 0x181a <random_integer_range>
     a7a:	5c 01       	movw	r10, r24
     a7c:	c4 01       	movw	r24, r8
     a7e:	b8 01       	movw	r22, r16
     a80:	0e 94 80 06 	call	0xd00	; 0xd00 <array>
     a84:	2d b7       	in	r18, 0x3d	; 61
     a86:	3e b7       	in	r19, 0x3e	; 62
     a88:	28 50       	subi	r18, 0x08	; 8
     a8a:	30 40       	sbci	r19, 0x00	; 0
     a8c:	0f b6       	in	r0, 0x3f	; 63
     a8e:	f8 94       	cli
     a90:	3e bf       	out	0x3e, r19	; 62
     a92:	0f be       	out	0x3f, r0	; 63
     a94:	2d bf       	out	0x3d, r18	; 61
     a96:	ed b7       	in	r30, 0x3d	; 61
     a98:	fe b7       	in	r31, 0x3e	; 62
     a9a:	31 96       	adiw	r30, 0x01	; 1
     a9c:	21 e7       	ldi	r18, 0x71	; 113
     a9e:	31 e0       	ldi	r19, 0x01	; 1
     aa0:	ad b7       	in	r26, 0x3d	; 61
     aa2:	be b7       	in	r27, 0x3e	; 62
     aa4:	12 96       	adiw	r26, 0x02	; 2
     aa6:	3c 93       	st	X, r19
     aa8:	2e 93       	st	-X, r18
     aaa:	11 97       	sbiw	r26, 0x01	; 1
     aac:	23 e5       	ldi	r18, 0x53	; 83
     aae:	31 e0       	ldi	r19, 0x01	; 1
     ab0:	33 83       	std	Z+3, r19	; 0x03
     ab2:	22 83       	std	Z+2, r18	; 0x02
     ab4:	75 82       	std	Z+5, r7	; 0x05
     ab6:	64 82       	std	Z+4, r6	; 0x04
     ab8:	97 83       	std	Z+7, r25	; 0x07
     aba:	86 83       	std	Z+6, r24	; 0x06
     abc:	0e 94 a8 07 	call	0xf50	; 0xf50 <logger_syscall>
     ac0:	f7 01       	movw	r30, r14
     ac2:	91 83       	std	Z+1, r25	; 0x01
     ac4:	80 83       	st	Z, r24
     ac6:	2d b7       	in	r18, 0x3d	; 61
     ac8:	3e b7       	in	r19, 0x3e	; 62
     aca:	28 5f       	subi	r18, 0xF8	; 248
     acc:	3f 4f       	sbci	r19, 0xFF	; 255
     ace:	0f b6       	in	r0, 0x3f	; 63
     ad0:	f8 94       	cli
     ad2:	3e bf       	out	0x3e, r19	; 62
     ad4:	0f be       	out	0x3f, r0	; 63
     ad6:	2d bf       	out	0x3d, r18	; 61
     ad8:	cc 24       	eor	r12, r12
     ada:	b7 fc       	sbrc	r11, 7
     adc:	c0 94       	com	r12
     ade:	dc 2c       	mov	r13, r12
     ae0:	c6 01       	movw	r24, r12
     ae2:	b5 01       	movw	r22, r10
     ae4:	48 e8       	ldi	r20, 0x88	; 136
     ae6:	53 e0       	ldi	r21, 0x03	; 3
     ae8:	97 01       	movw	r18, r14
     aea:	0e 94 15 0b 	call	0x162a	; 0x162a <dispatcher_enqueue>
     aee:	1f 91       	pop	r17
     af0:	0f 91       	pop	r16
     af2:	ff 90       	pop	r15
     af4:	ef 90       	pop	r14
     af6:	df 90       	pop	r13
     af8:	cf 90       	pop	r12
     afa:	bf 90       	pop	r11
     afc:	af 90       	pop	r10
     afe:	9f 90       	pop	r9
     b00:	8f 90       	pop	r8
     b02:	7f 90       	pop	r7
     b04:	6f 90       	pop	r6
     b06:	08 95       	ret

00000b08 <os_receive>:
     b08:	4f 92       	push	r4
     b0a:	5f 92       	push	r5
     b0c:	6f 92       	push	r6
     b0e:	7f 92       	push	r7
     b10:	8f 92       	push	r8
     b12:	9f 92       	push	r9
     b14:	af 92       	push	r10
     b16:	bf 92       	push	r11
     b18:	cf 92       	push	r12
     b1a:	df 92       	push	r13
     b1c:	ef 92       	push	r14
     b1e:	ff 92       	push	r15
     b20:	0f 93       	push	r16
     b22:	1f 93       	push	r17
     b24:	7c 01       	movw	r14, r24
     b26:	6b 01       	movw	r12, r22
     b28:	2a 01       	movw	r4, r20
     b2a:	39 01       	movw	r6, r18
     b2c:	48 01       	movw	r8, r16
     b2e:	8a e0       	ldi	r24, 0x0A	; 10
     b30:	90 e0       	ldi	r25, 0x00	; 0
     b32:	0e 94 71 0c 	call	0x18e2	; 0x18e2 <malloc>
     b36:	8c 01       	movw	r16, r24
     b38:	dc 01       	movw	r26, r24
     b3a:	13 96       	adiw	r26, 0x03	; 3
     b3c:	fc 92       	st	X, r15
     b3e:	ee 92       	st	-X, r14
     b40:	12 97       	sbiw	r26, 0x02	; 2
     b42:	15 96       	adiw	r26, 0x05	; 5
     b44:	dc 92       	st	X, r13
     b46:	ce 92       	st	-X, r12
     b48:	14 97       	sbiw	r26, 0x04	; 4
     b4a:	0e 94 b2 0b 	call	0x1764	; 0x1764 <random_error>
     b4e:	f8 01       	movw	r30, r16
     b50:	97 83       	std	Z+7, r25	; 0x07
     b52:	86 83       	std	Z+6, r24	; 0x06
     b54:	81 e0       	ldi	r24, 0x01	; 1
     b56:	90 e0       	ldi	r25, 0x00	; 0
     b58:	b4 01       	movw	r22, r8
     b5a:	0e 94 0d 0c 	call	0x181a	; 0x181a <random_integer_range>
     b5e:	bc 01       	movw	r22, r24
     b60:	d8 01       	movw	r26, r16
     b62:	18 96       	adiw	r26, 0x08	; 8
     b64:	8c 93       	st	X, r24
     b66:	18 97       	sbiw	r26, 0x08	; 8
     b68:	19 96       	adiw	r26, 0x09	; 9
     b6a:	7c 93       	st	X, r23
     b6c:	c3 01       	movw	r24, r6
     b6e:	0e 94 de 0b 	call	0x17bc	; 0x17bc <random_string>
     b72:	8a e0       	ldi	r24, 0x0A	; 10
     b74:	90 e0       	ldi	r25, 0x00	; 0
     b76:	68 ee       	ldi	r22, 0xE8	; 232
     b78:	73 e0       	ldi	r23, 0x03	; 3
     b7a:	0e 94 0d 0c 	call	0x181a	; 0x181a <random_integer_range>
     b7e:	6c 01       	movw	r12, r24
     b80:	f8 01       	movw	r30, r16
     b82:	60 85       	ldd	r22, Z+8	; 0x08
     b84:	71 85       	ldd	r23, Z+9	; 0x09
     b86:	c3 01       	movw	r24, r6
     b88:	0e 94 80 06 	call	0xd00	; 0xd00 <array>
     b8c:	2d b7       	in	r18, 0x3d	; 61
     b8e:	3e b7       	in	r19, 0x3e	; 62
     b90:	2c 50       	subi	r18, 0x0C	; 12
     b92:	30 40       	sbci	r19, 0x00	; 0
     b94:	0f b6       	in	r0, 0x3f	; 63
     b96:	f8 94       	cli
     b98:	3e bf       	out	0x3e, r19	; 62
     b9a:	0f be       	out	0x3f, r0	; 63
     b9c:	2d bf       	out	0x3d, r18	; 61
     b9e:	ed b7       	in	r30, 0x3d	; 61
     ba0:	fe b7       	in	r31, 0x3e	; 62
     ba2:	31 96       	adiw	r30, 0x01	; 1
     ba4:	26 e7       	ldi	r18, 0x76	; 118
     ba6:	31 e0       	ldi	r19, 0x01	; 1
     ba8:	ad b7       	in	r26, 0x3d	; 61
     baa:	be b7       	in	r27, 0x3e	; 62
     bac:	12 96       	adiw	r26, 0x02	; 2
     bae:	3c 93       	st	X, r19
     bb0:	2e 93       	st	-X, r18
     bb2:	11 97       	sbiw	r26, 0x01	; 1
     bb4:	25 e6       	ldi	r18, 0x65	; 101
     bb6:	31 e0       	ldi	r19, 0x01	; 1
     bb8:	33 83       	std	Z+3, r19	; 0x03
     bba:	22 83       	std	Z+2, r18	; 0x02
     bbc:	55 82       	std	Z+5, r5	; 0x05
     bbe:	44 82       	std	Z+4, r4	; 0x04
     bc0:	aa 24       	eor	r10, r10
     bc2:	bb 24       	eor	r11, r11
     bc4:	86 82       	std	Z+6, r8	; 0x06
     bc6:	97 82       	std	Z+7, r9	; 0x07
     bc8:	a0 86       	std	Z+8, r10	; 0x08
     bca:	b1 86       	std	Z+9, r11	; 0x09
     bcc:	93 87       	std	Z+11, r25	; 0x0b
     bce:	82 87       	std	Z+10, r24	; 0x0a
     bd0:	0e 94 a8 07 	call	0xf50	; 0xf50 <logger_syscall>
     bd4:	f8 01       	movw	r30, r16
     bd6:	91 83       	std	Z+1, r25	; 0x01
     bd8:	80 83       	st	Z, r24
     bda:	2d b7       	in	r18, 0x3d	; 61
     bdc:	3e b7       	in	r19, 0x3e	; 62
     bde:	24 5f       	subi	r18, 0xF4	; 244
     be0:	3f 4f       	sbci	r19, 0xFF	; 255
     be2:	0f b6       	in	r0, 0x3f	; 63
     be4:	f8 94       	cli
     be6:	3e bf       	out	0x3e, r19	; 62
     be8:	0f be       	out	0x3f, r0	; 63
     bea:	2d bf       	out	0x3d, r18	; 61
     bec:	ee 24       	eor	r14, r14
     bee:	d7 fc       	sbrc	r13, 7
     bf0:	e0 94       	com	r14
     bf2:	fe 2c       	mov	r15, r14
     bf4:	c7 01       	movw	r24, r14
     bf6:	b6 01       	movw	r22, r12
     bf8:	42 ea       	ldi	r20, 0xA2	; 162
     bfa:	53 e0       	ldi	r21, 0x03	; 3
     bfc:	98 01       	movw	r18, r16
     bfe:	0e 94 15 0b 	call	0x162a	; 0x162a <dispatcher_enqueue>
     c02:	1f 91       	pop	r17
     c04:	0f 91       	pop	r16
     c06:	ff 90       	pop	r15
     c08:	ef 90       	pop	r14
     c0a:	df 90       	pop	r13
     c0c:	cf 90       	pop	r12
     c0e:	bf 90       	pop	r11
     c10:	af 90       	pop	r10
     c12:	9f 90       	pop	r9
     c14:	8f 90       	pop	r8
     c16:	7f 90       	pop	r7
     c18:	6f 90       	pop	r6
     c1a:	5f 90       	pop	r5
     c1c:	4f 90       	pop	r4
     c1e:	08 95       	ret

00000c20 <os_flash_open>:
     c20:	cf 92       	push	r12
     c22:	df 92       	push	r13
     c24:	ef 92       	push	r14
     c26:	ff 92       	push	r15
     c28:	0f 93       	push	r16
     c2a:	1f 93       	push	r17
     c2c:	cf 93       	push	r28
     c2e:	df 93       	push	r29
     c30:	6c 01       	movw	r12, r24
     c32:	e0 90 28 0e 	lds	r14, 0x0E28
     c36:	f0 90 29 0e 	lds	r15, 0x0E29
     c3a:	1e 14       	cp	r1, r14
     c3c:	1f 04       	cpc	r1, r15
     c3e:	ac f4       	brge	.+42     	; 0xc6a <os_flash_open+0x4a>
     c40:	0a e2       	ldi	r16, 0x2A	; 42
     c42:	1e e0       	ldi	r17, 0x0E	; 14
     c44:	c0 e0       	ldi	r28, 0x00	; 0
     c46:	d0 e0       	ldi	r29, 0x00	; 0
     c48:	06 c0       	rjmp	.+12     	; 0xc56 <os_flash_open+0x36>
     c4a:	21 96       	adiw	r28, 0x01	; 1
     c4c:	0e 5f       	subi	r16, 0xFE	; 254
     c4e:	1f 4f       	sbci	r17, 0xFF	; 255
     c50:	ce 15       	cp	r28, r14
     c52:	df 05       	cpc	r29, r15
     c54:	54 f4       	brge	.+20     	; 0xc6a <os_flash_open+0x4a>
     c56:	f8 01       	movw	r30, r16
     c58:	60 81       	ld	r22, Z
     c5a:	71 81       	ldd	r23, Z+1	; 0x01
     c5c:	c6 01       	movw	r24, r12
     c5e:	0e 94 ef 0d 	call	0x1bde	; 0x1bde <strcmp>
     c62:	00 97       	sbiw	r24, 0x00	; 0
     c64:	91 f7       	brne	.-28     	; 0xc4a <os_flash_open+0x2a>
     c66:	7e 01       	movw	r14, r28
     c68:	22 c0       	rjmp	.+68     	; 0xcae <os_flash_open+0x8e>
     c6a:	f2 e0       	ldi	r31, 0x02	; 2
     c6c:	ef 16       	cp	r14, r31
     c6e:	f1 04       	cpc	r15, r1
     c70:	44 f5       	brge	.+80     	; 0xcc2 <os_flash_open+0xa2>
     c72:	f7 01       	movw	r30, r14
     c74:	ee 0f       	add	r30, r30
     c76:	ff 1f       	adc	r31, r31
     c78:	e6 5d       	subi	r30, 0xD6	; 214
     c7a:	f1 4f       	sbci	r31, 0xF1	; 241
     c7c:	d1 82       	std	Z+1, r13	; 0x01
     c7e:	c0 82       	st	Z, r12
     c80:	82 e0       	ldi	r24, 0x02	; 2
     c82:	94 e0       	ldi	r25, 0x04	; 4
     c84:	e8 9e       	mul	r14, r24
     c86:	f0 01       	movw	r30, r0
     c88:	e9 9e       	mul	r14, r25
     c8a:	f0 0d       	add	r31, r0
     c8c:	f8 9e       	mul	r15, r24
     c8e:	f0 0d       	add	r31, r0
     c90:	11 24       	eor	r1, r1
     c92:	ec 5d       	subi	r30, 0xDC	; 220
     c94:	f5 4f       	sbci	r31, 0xF5	; 245
     c96:	11 82       	std	Z+1, r1	; 0x01
     c98:	10 82       	st	Z, r1
     c9a:	08 94       	sec
     c9c:	e1 1c       	adc	r14, r1
     c9e:	f1 1c       	adc	r15, r1
     ca0:	f0 92 29 0e 	sts	0x0E29, r15
     ca4:	e0 92 28 0e 	sts	0x0E28, r14
     ca8:	08 94       	sec
     caa:	e1 08       	sbc	r14, r1
     cac:	f1 08       	sbc	r15, r1
     cae:	c7 01       	movw	r24, r14
     cb0:	df 91       	pop	r29
     cb2:	cf 91       	pop	r28
     cb4:	1f 91       	pop	r17
     cb6:	0f 91       	pop	r16
     cb8:	ff 90       	pop	r15
     cba:	ef 90       	pop	r14
     cbc:	df 90       	pop	r13
     cbe:	cf 90       	pop	r12
     cc0:	08 95       	ret
     cc2:	0e 94 e1 0d 	call	0x1bc2	; 0x1bc2 <abort>

00000cc6 <os_now>:
     cc6:	0e 94 05 0a 	call	0x140a	; 0x140a <dispatcher_now>
     cca:	08 95       	ret

00000ccc <os_run>:
     ccc:	0e 94 0e 0a 	call	0x141c	; 0x141c <dispatcher_run>
     cd0:	08 95       	ret

00000cd2 <os_init>:
     cd2:	10 92 23 06 	sts	0x0623, r1
     cd6:	10 92 22 06 	sts	0x0622, r1
     cda:	10 92 29 0e 	sts	0x0E29, r1
     cde:	10 92 28 0e 	sts	0x0E28, r1
     ce2:	10 92 2b 0e 	sts	0x0E2B, r1
     ce6:	10 92 2a 0e 	sts	0x0E2A, r1
     cea:	10 92 2d 0e 	sts	0x0E2D, r1
     cee:	10 92 2c 0e 	sts	0x0E2C, r1
     cf2:	0e 94 cf 09 	call	0x139e	; 0x139e <logger_init>
     cf6:	0e 94 69 0b 	call	0x16d2	; 0x16d2 <dispatcher_init>
     cfa:	0e 94 23 0c 	call	0x1846	; 0x1846 <random_init>
     cfe:	08 95       	ret

00000d00 <array>:
     d00:	6f 92       	push	r6
     d02:	7f 92       	push	r7
     d04:	8f 92       	push	r8
     d06:	9f 92       	push	r9
     d08:	af 92       	push	r10
     d0a:	bf 92       	push	r11
     d0c:	cf 92       	push	r12
     d0e:	df 92       	push	r13
     d10:	ef 92       	push	r14
     d12:	ff 92       	push	r15
     d14:	0f 93       	push	r16
     d16:	1f 93       	push	r17
     d18:	cf 93       	push	r28
     d1a:	df 93       	push	r29
     d1c:	3c 01       	movw	r6, r24
     d1e:	6b 01       	movw	r12, r22
     d20:	8d b7       	in	r24, 0x3d	; 61
     d22:	9e b7       	in	r25, 0x3e	; 62
     d24:	0a 97       	sbiw	r24, 0x0a	; 10
     d26:	0f b6       	in	r0, 0x3f	; 63
     d28:	f8 94       	cli
     d2a:	9e bf       	out	0x3e, r25	; 62
     d2c:	0f be       	out	0x3f, r0	; 63
     d2e:	8d bf       	out	0x3d, r24	; 61
     d30:	ed b7       	in	r30, 0x3d	; 61
     d32:	fe b7       	in	r31, 0x3e	; 62
     d34:	31 96       	adiw	r30, 0x01	; 1
     d36:	80 e2       	ldi	r24, 0x20	; 32
     d38:	92 e0       	ldi	r25, 0x02	; 2
     d3a:	ad b7       	in	r26, 0x3d	; 61
     d3c:	be b7       	in	r27, 0x3e	; 62
     d3e:	12 96       	adiw	r26, 0x02	; 2
     d40:	9c 93       	st	X, r25
     d42:	8e 93       	st	-X, r24
     d44:	11 97       	sbiw	r26, 0x01	; 1
     d46:	80 e0       	ldi	r24, 0x00	; 0
     d48:	94 e0       	ldi	r25, 0x04	; 4
     d4a:	93 83       	std	Z+3, r25	; 0x03
     d4c:	82 83       	std	Z+2, r24	; 0x02
     d4e:	8e e7       	ldi	r24, 0x7E	; 126
     d50:	91 e0       	ldi	r25, 0x01	; 1
     d52:	95 83       	std	Z+5, r25	; 0x05
     d54:	84 83       	std	Z+4, r24	; 0x04
     d56:	cb 01       	movw	r24, r22
     d58:	a0 e0       	ldi	r26, 0x00	; 0
     d5a:	b0 e0       	ldi	r27, 0x00	; 0
     d5c:	86 83       	std	Z+6, r24	; 0x06
     d5e:	97 83       	std	Z+7, r25	; 0x07
     d60:	a0 87       	std	Z+8, r26	; 0x08
     d62:	b1 87       	std	Z+9, r27	; 0x09
     d64:	0e 94 f8 0d 	call	0x1bf0	; 0x1bf0 <snprintf>
     d68:	7c 01       	movw	r14, r24
     d6a:	ed b7       	in	r30, 0x3d	; 61
     d6c:	fe b7       	in	r31, 0x3e	; 62
     d6e:	3a 96       	adiw	r30, 0x0a	; 10
     d70:	0f b6       	in	r0, 0x3f	; 63
     d72:	f8 94       	cli
     d74:	fe bf       	out	0x3e, r31	; 62
     d76:	0f be       	out	0x3f, r0	; 63
     d78:	ed bf       	out	0x3d, r30	; 61
     d7a:	f4 e0       	ldi	r31, 0x04	; 4
     d7c:	80 30       	cpi	r24, 0x00	; 0
     d7e:	9f 07       	cpc	r25, r31
     d80:	08 f0       	brcs	.+2      	; 0xd84 <array+0x84>
     d82:	59 c0       	rjmp	.+178    	; 0xe36 <array+0x136>
     d84:	c1 14       	cp	r12, r1
     d86:	d1 04       	cpc	r13, r1
     d88:	09 f4       	brne	.+2      	; 0xd8c <array+0x8c>
     d8a:	44 c0       	rjmp	.+136    	; 0xe14 <array+0x114>
     d8c:	c0 e0       	ldi	r28, 0x00	; 0
     d8e:	d0 e0       	ldi	r29, 0x00	; 0
     d90:	97 e8       	ldi	r25, 0x87	; 135
     d92:	89 2e       	mov	r8, r25
     d94:	91 e0       	ldi	r25, 0x01	; 1
     d96:	99 2e       	mov	r9, r25
     d98:	a1 2c       	mov	r10, r1
     d9a:	84 e0       	ldi	r24, 0x04	; 4
     d9c:	b8 2e       	mov	r11, r24
     d9e:	02 c0       	rjmp	.+4      	; 0xda4 <array+0xa4>
     da0:	e2 0e       	add	r14, r18
     da2:	f3 1e       	adc	r15, r19
     da4:	85 01       	movw	r16, r10
     da6:	0e 19       	sub	r16, r14
     da8:	1f 09       	sbc	r17, r15
     daa:	8d b7       	in	r24, 0x3d	; 61
     dac:	9e b7       	in	r25, 0x3e	; 62
     dae:	08 97       	sbiw	r24, 0x08	; 8
     db0:	0f b6       	in	r0, 0x3f	; 63
     db2:	f8 94       	cli
     db4:	9e bf       	out	0x3e, r25	; 62
     db6:	0f be       	out	0x3f, r0	; 63
     db8:	8d bf       	out	0x3d, r24	; 61
     dba:	ad b7       	in	r26, 0x3d	; 61
     dbc:	be b7       	in	r27, 0x3e	; 62
     dbe:	11 96       	adiw	r26, 0x01	; 1
     dc0:	c7 01       	movw	r24, r14
     dc2:	80 5e       	subi	r24, 0xE0	; 224
     dc4:	9d 4f       	sbci	r25, 0xFD	; 253
     dc6:	ed b7       	in	r30, 0x3d	; 61
     dc8:	fe b7       	in	r31, 0x3e	; 62
     dca:	92 83       	std	Z+2, r25	; 0x02
     dcc:	81 83       	std	Z+1, r24	; 0x01
     dce:	13 96       	adiw	r26, 0x03	; 3
     dd0:	1c 93       	st	X, r17
     dd2:	0e 93       	st	-X, r16
     dd4:	12 97       	sbiw	r26, 0x02	; 2
     dd6:	15 96       	adiw	r26, 0x05	; 5
     dd8:	9c 92       	st	X, r9
     dda:	8e 92       	st	-X, r8
     ddc:	14 97       	sbiw	r26, 0x04	; 4
     dde:	f3 01       	movw	r30, r6
     de0:	ec 0f       	add	r30, r28
     de2:	fd 1f       	adc	r31, r29
     de4:	80 81       	ld	r24, Z
     de6:	16 96       	adiw	r26, 0x06	; 6
     de8:	8c 93       	st	X, r24
     dea:	16 97       	sbiw	r26, 0x06	; 6
     dec:	17 96       	adiw	r26, 0x07	; 7
     dee:	1c 92       	st	X, r1
     df0:	0e 94 f8 0d 	call	0x1bf0	; 0x1bf0 <snprintf>
     df4:	9c 01       	movw	r18, r24
     df6:	8d b7       	in	r24, 0x3d	; 61
     df8:	9e b7       	in	r25, 0x3e	; 62
     dfa:	08 96       	adiw	r24, 0x08	; 8
     dfc:	0f b6       	in	r0, 0x3f	; 63
     dfe:	f8 94       	cli
     e00:	9e bf       	out	0x3e, r25	; 62
     e02:	0f be       	out	0x3f, r0	; 63
     e04:	8d bf       	out	0x3d, r24	; 61
     e06:	20 17       	cp	r18, r16
     e08:	31 07       	cpc	r19, r17
     e0a:	a8 f4       	brcc	.+42     	; 0xe36 <array+0x136>
     e0c:	21 96       	adiw	r28, 0x01	; 1
     e0e:	cc 15       	cp	r28, r12
     e10:	dd 05       	cpc	r29, r13
     e12:	30 f2       	brcs	.-116    	; 0xda0 <array+0xa0>
     e14:	80 e2       	ldi	r24, 0x20	; 32
     e16:	92 e0       	ldi	r25, 0x02	; 2
     e18:	df 91       	pop	r29
     e1a:	cf 91       	pop	r28
     e1c:	1f 91       	pop	r17
     e1e:	0f 91       	pop	r16
     e20:	ff 90       	pop	r15
     e22:	ef 90       	pop	r14
     e24:	df 90       	pop	r13
     e26:	cf 90       	pop	r12
     e28:	bf 90       	pop	r11
     e2a:	af 90       	pop	r10
     e2c:	9f 90       	pop	r9
     e2e:	8f 90       	pop	r8
     e30:	7f 90       	pop	r7
     e32:	6f 90       	pop	r6
     e34:	08 95       	ret
     e36:	0e 94 e1 0d 	call	0x1bc2	; 0x1bc2 <abort>

00000e3a <logger_syscall_return>:
     e3a:	6f 92       	push	r6
     e3c:	7f 92       	push	r7
     e3e:	8f 92       	push	r8
     e40:	9f 92       	push	r9
     e42:	af 92       	push	r10
     e44:	bf 92       	push	r11
     e46:	cf 92       	push	r12
     e48:	df 92       	push	r13
     e4a:	ef 92       	push	r14
     e4c:	ff 92       	push	r15
     e4e:	0f 93       	push	r16
     e50:	1f 93       	push	r17
     e52:	df 93       	push	r29
     e54:	cf 93       	push	r28
     e56:	cd b7       	in	r28, 0x3d	; 61
     e58:	de b7       	in	r29, 0x3e	; 62
     e5a:	4c 01       	movw	r8, r24
     e5c:	6d b6       	in	r6, 0x3d	; 61
     e5e:	7e b6       	in	r7, 0x3e	; 62
     e60:	0e 94 05 0a 	call	0x140a	; 0x140a <dispatcher_now>
     e64:	6b 01       	movw	r12, r22
     e66:	7c 01       	movw	r14, r24
     e68:	2d b7       	in	r18, 0x3d	; 61
     e6a:	3e b7       	in	r19, 0x3e	; 62
     e6c:	2c 50       	subi	r18, 0x0C	; 12
     e6e:	30 40       	sbci	r19, 0x00	; 0
     e70:	0f b6       	in	r0, 0x3f	; 63
     e72:	f8 94       	cli
     e74:	3e bf       	out	0x3e, r19	; 62
     e76:	0f be       	out	0x3f, r0	; 63
     e78:	2d bf       	out	0x3d, r18	; 61
     e7a:	ed b7       	in	r30, 0x3d	; 61
     e7c:	fe b7       	in	r31, 0x3e	; 62
     e7e:	31 96       	adiw	r30, 0x01	; 1
     e80:	ad b7       	in	r26, 0x3d	; 61
     e82:	be b7       	in	r27, 0x3e	; 62
     e84:	12 96       	adiw	r26, 0x02	; 2
     e86:	1c 92       	st	X, r1
     e88:	1e 92       	st	-X, r1
     e8a:	11 97       	sbiw	r26, 0x01	; 1
     e8c:	13 82       	std	Z+3, r1	; 0x03
     e8e:	12 82       	std	Z+2, r1	; 0x02
     e90:	2a e8       	ldi	r18, 0x8A	; 138
     e92:	a2 2e       	mov	r10, r18
     e94:	21 e0       	ldi	r18, 0x01	; 1
     e96:	b2 2e       	mov	r11, r18
     e98:	b5 82       	std	Z+5, r11	; 0x05
     e9a:	a4 82       	std	Z+4, r10	; 0x04
     e9c:	66 83       	std	Z+6, r22	; 0x06
     e9e:	77 83       	std	Z+7, r23	; 0x07
     ea0:	80 87       	std	Z+8, r24	; 0x08
     ea2:	91 87       	std	Z+9, r25	; 0x09
     ea4:	93 86       	std	Z+11, r9	; 0x0b
     ea6:	82 86       	std	Z+10, r8	; 0x0a
     ea8:	0e 94 f8 0d 	call	0x1bf0	; 0x1bf0 <snprintf>
     eac:	01 96       	adiw	r24, 0x01	; 1
     eae:	2d b7       	in	r18, 0x3d	; 61
     eb0:	3e b7       	in	r19, 0x3e	; 62
     eb2:	24 5f       	subi	r18, 0xF4	; 244
     eb4:	3f 4f       	sbci	r19, 0xFF	; 255
     eb6:	0f b6       	in	r0, 0x3f	; 63
     eb8:	f8 94       	cli
     eba:	3e bf       	out	0x3e, r19	; 62
     ebc:	0f be       	out	0x3f, r0	; 63
     ebe:	2d bf       	out	0x3d, r18	; 61
     ec0:	ad b7       	in	r26, 0x3d	; 61
     ec2:	be b7       	in	r27, 0x3e	; 62
     ec4:	a8 1b       	sub	r26, r24
     ec6:	b9 0b       	sbc	r27, r25
     ec8:	0f b6       	in	r0, 0x3f	; 63
     eca:	f8 94       	cli
     ecc:	be bf       	out	0x3e, r27	; 62
     ece:	0f be       	out	0x3f, r0	; 63
     ed0:	ad bf       	out	0x3d, r26	; 61
     ed2:	0d b7       	in	r16, 0x3d	; 61
     ed4:	1e b7       	in	r17, 0x3e	; 62
     ed6:	0f 5f       	subi	r16, 0xFF	; 255
     ed8:	1f 4f       	sbci	r17, 0xFF	; 255
     eda:	2d b7       	in	r18, 0x3d	; 61
     edc:	3e b7       	in	r19, 0x3e	; 62
     ede:	2a 50       	subi	r18, 0x0A	; 10
     ee0:	30 40       	sbci	r19, 0x00	; 0
     ee2:	0f b6       	in	r0, 0x3f	; 63
     ee4:	f8 94       	cli
     ee6:	3e bf       	out	0x3e, r19	; 62
     ee8:	0f be       	out	0x3f, r0	; 63
     eea:	2d bf       	out	0x3d, r18	; 61
     eec:	ed b7       	in	r30, 0x3d	; 61
     eee:	fe b7       	in	r31, 0x3e	; 62
     ef0:	31 96       	adiw	r30, 0x01	; 1
     ef2:	ad b7       	in	r26, 0x3d	; 61
     ef4:	be b7       	in	r27, 0x3e	; 62
     ef6:	11 96       	adiw	r26, 0x01	; 1
     ef8:	0c 93       	st	X, r16
     efa:	11 83       	std	Z+1, r17	; 0x01
     efc:	b3 82       	std	Z+3, r11	; 0x03
     efe:	a2 82       	std	Z+2, r10	; 0x02
     f00:	c4 82       	std	Z+4, r12	; 0x04
     f02:	d5 82       	std	Z+5, r13	; 0x05
     f04:	e6 82       	std	Z+6, r14	; 0x06
     f06:	f7 82       	std	Z+7, r15	; 0x07
     f08:	91 86       	std	Z+9, r9	; 0x09
     f0a:	80 86       	std	Z+8, r8	; 0x08
     f0c:	0e 94 36 0e 	call	0x1c6c	; 0x1c6c <sprintf>
     f10:	2d b7       	in	r18, 0x3d	; 61
     f12:	3e b7       	in	r19, 0x3e	; 62
     f14:	26 5f       	subi	r18, 0xF6	; 246
     f16:	3f 4f       	sbci	r19, 0xFF	; 255
     f18:	0f b6       	in	r0, 0x3f	; 63
     f1a:	f8 94       	cli
     f1c:	3e bf       	out	0x3e, r19	; 62
     f1e:	0f be       	out	0x3f, r0	; 63
     f20:	2d bf       	out	0x3d, r18	; 61
     f22:	c8 01       	movw	r24, r16
     f24:	0e 94 d5 09 	call	0x13aa	; 0x13aa <logger_platform_trace>
     f28:	0f b6       	in	r0, 0x3f	; 63
     f2a:	f8 94       	cli
     f2c:	7e be       	out	0x3e, r7	; 62
     f2e:	0f be       	out	0x3f, r0	; 63
     f30:	6d be       	out	0x3d, r6	; 61
     f32:	cf 91       	pop	r28
     f34:	df 91       	pop	r29
     f36:	1f 91       	pop	r17
     f38:	0f 91       	pop	r16
     f3a:	ff 90       	pop	r15
     f3c:	ef 90       	pop	r14
     f3e:	df 90       	pop	r13
     f40:	cf 90       	pop	r12
     f42:	bf 90       	pop	r11
     f44:	af 90       	pop	r10
     f46:	9f 90       	pop	r9
     f48:	8f 90       	pop	r8
     f4a:	7f 90       	pop	r7
     f4c:	6f 90       	pop	r6
     f4e:	08 95       	ret

00000f50 <logger_syscall>:
     f50:	4f 92       	push	r4
     f52:	5f 92       	push	r5
     f54:	6f 92       	push	r6
     f56:	7f 92       	push	r7
     f58:	8f 92       	push	r8
     f5a:	9f 92       	push	r9
     f5c:	af 92       	push	r10
     f5e:	bf 92       	push	r11
     f60:	cf 92       	push	r12
     f62:	df 92       	push	r13
     f64:	ef 92       	push	r14
     f66:	ff 92       	push	r15
     f68:	0f 93       	push	r16
     f6a:	1f 93       	push	r17
     f6c:	df 93       	push	r29
     f6e:	cf 93       	push	r28
     f70:	cd b7       	in	r28, 0x3d	; 61
     f72:	de b7       	in	r29, 0x3e	; 62
     f74:	6b 88       	ldd	r6, Y+19	; 0x13
     f76:	7c 88       	ldd	r7, Y+20	; 0x14
     f78:	cd 88       	ldd	r12, Y+21	; 0x15
     f7a:	de 88       	ldd	r13, Y+22	; 0x16
     f7c:	4d b6       	in	r4, 0x3d	; 61
     f7e:	5e b6       	in	r5, 0x3e	; 62
     f80:	8e 01       	movw	r16, r28
     f82:	09 5e       	subi	r16, 0xE9	; 233
     f84:	1f 4f       	sbci	r17, 0xFF	; 255
     f86:	0e 94 05 0a 	call	0x140a	; 0x140a <dispatcher_now>
     f8a:	4b 01       	movw	r8, r22
     f8c:	5c 01       	movw	r10, r24
     f8e:	80 e0       	ldi	r24, 0x00	; 0
     f90:	90 e0       	ldi	r25, 0x00	; 0
     f92:	60 e0       	ldi	r22, 0x00	; 0
     f94:	70 e0       	ldi	r23, 0x00	; 0
     f96:	a6 01       	movw	r20, r12
     f98:	98 01       	movw	r18, r16
     f9a:	0e 94 67 0e 	call	0x1cce	; 0x1cce <vsnprintf>
     f9e:	01 96       	adiw	r24, 0x01	; 1
     fa0:	2d b7       	in	r18, 0x3d	; 61
     fa2:	3e b7       	in	r19, 0x3e	; 62
     fa4:	28 1b       	sub	r18, r24
     fa6:	39 0b       	sbc	r19, r25
     fa8:	0f b6       	in	r0, 0x3f	; 63
     faa:	f8 94       	cli
     fac:	3e bf       	out	0x3e, r19	; 62
     fae:	0f be       	out	0x3f, r0	; 63
     fb0:	2d bf       	out	0x3d, r18	; 61
     fb2:	ed b6       	in	r14, 0x3d	; 61
     fb4:	fe b6       	in	r15, 0x3e	; 62
     fb6:	08 94       	sec
     fb8:	e1 1c       	adc	r14, r1
     fba:	f1 1c       	adc	r15, r1
     fbc:	c7 01       	movw	r24, r14
     fbe:	b6 01       	movw	r22, r12
     fc0:	a8 01       	movw	r20, r16
     fc2:	0e 94 9e 0e 	call	0x1d3c	; 0x1d3c <vsprintf>
     fc6:	8d b7       	in	r24, 0x3d	; 61
     fc8:	9e b7       	in	r25, 0x3e	; 62
     fca:	40 97       	sbiw	r24, 0x10	; 16
     fcc:	0f b6       	in	r0, 0x3f	; 63
     fce:	f8 94       	cli
     fd0:	9e bf       	out	0x3e, r25	; 62
     fd2:	0f be       	out	0x3f, r0	; 63
     fd4:	8d bf       	out	0x3d, r24	; 61
     fd6:	ed b7       	in	r30, 0x3d	; 61
     fd8:	fe b7       	in	r31, 0x3e	; 62
     fda:	31 96       	adiw	r30, 0x01	; 1
     fdc:	ad b7       	in	r26, 0x3d	; 61
     fde:	be b7       	in	r27, 0x3e	; 62
     fe0:	12 96       	adiw	r26, 0x02	; 2
     fe2:	1c 92       	st	X, r1
     fe4:	1e 92       	st	-X, r1
     fe6:	11 97       	sbiw	r26, 0x01	; 1
     fe8:	13 82       	std	Z+3, r1	; 0x03
     fea:	12 82       	std	Z+2, r1	; 0x02
     fec:	36 e9       	ldi	r19, 0x96	; 150
     fee:	c3 2e       	mov	r12, r19
     ff0:	31 e0       	ldi	r19, 0x01	; 1
     ff2:	d3 2e       	mov	r13, r19
     ff4:	d5 82       	std	Z+5, r13	; 0x05
     ff6:	c4 82       	std	Z+4, r12	; 0x04
     ff8:	86 82       	std	Z+6, r8	; 0x06
     ffa:	97 82       	std	Z+7, r9	; 0x07
     ffc:	a0 86       	std	Z+8, r10	; 0x08
     ffe:	b1 86       	std	Z+9, r11	; 0x09
    1000:	80 91 20 06 	lds	r24, 0x0620
    1004:	90 91 21 06 	lds	r25, 0x0621
    1008:	93 87       	std	Z+11, r25	; 0x0b
    100a:	82 87       	std	Z+10, r24	; 0x0a
    100c:	75 86       	std	Z+13, r7	; 0x0d
    100e:	64 86       	std	Z+12, r6	; 0x0c
    1010:	e6 86       	std	Z+14, r14	; 0x0e
    1012:	f7 86       	std	Z+15, r15	; 0x0f
    1014:	0e 94 f8 0d 	call	0x1bf0	; 0x1bf0 <snprintf>
    1018:	01 96       	adiw	r24, 0x01	; 1
    101a:	2d b7       	in	r18, 0x3d	; 61
    101c:	3e b7       	in	r19, 0x3e	; 62
    101e:	20 5f       	subi	r18, 0xF0	; 240
    1020:	3f 4f       	sbci	r19, 0xFF	; 255
    1022:	0f b6       	in	r0, 0x3f	; 63
    1024:	f8 94       	cli
    1026:	3e bf       	out	0x3e, r19	; 62
    1028:	0f be       	out	0x3f, r0	; 63
    102a:	2d bf       	out	0x3d, r18	; 61
    102c:	ad b7       	in	r26, 0x3d	; 61
    102e:	be b7       	in	r27, 0x3e	; 62
    1030:	a8 1b       	sub	r26, r24
    1032:	b9 0b       	sbc	r27, r25
    1034:	0f b6       	in	r0, 0x3f	; 63
    1036:	f8 94       	cli
    1038:	be bf       	out	0x3e, r27	; 62
    103a:	0f be       	out	0x3f, r0	; 63
    103c:	ad bf       	out	0x3d, r26	; 61
    103e:	0d b7       	in	r16, 0x3d	; 61
    1040:	1e b7       	in	r17, 0x3e	; 62
    1042:	0f 5f       	subi	r16, 0xFF	; 255
    1044:	1f 4f       	sbci	r17, 0xFF	; 255
    1046:	2d b7       	in	r18, 0x3d	; 61
    1048:	3e b7       	in	r19, 0x3e	; 62
    104a:	2e 50       	subi	r18, 0x0E	; 14
    104c:	30 40       	sbci	r19, 0x00	; 0
    104e:	0f b6       	in	r0, 0x3f	; 63
    1050:	f8 94       	cli
    1052:	3e bf       	out	0x3e, r19	; 62
    1054:	0f be       	out	0x3f, r0	; 63
    1056:	2d bf       	out	0x3d, r18	; 61
    1058:	ed b7       	in	r30, 0x3d	; 61
    105a:	fe b7       	in	r31, 0x3e	; 62
    105c:	31 96       	adiw	r30, 0x01	; 1
    105e:	ad b7       	in	r26, 0x3d	; 61
    1060:	be b7       	in	r27, 0x3e	; 62
    1062:	11 96       	adiw	r26, 0x01	; 1
    1064:	0c 93       	st	X, r16
    1066:	11 83       	std	Z+1, r17	; 0x01
    1068:	d3 82       	std	Z+3, r13	; 0x03
    106a:	c2 82       	std	Z+2, r12	; 0x02
    106c:	84 82       	std	Z+4, r8	; 0x04
    106e:	95 82       	std	Z+5, r9	; 0x05
    1070:	a6 82       	std	Z+6, r10	; 0x06
    1072:	b7 82       	std	Z+7, r11	; 0x07
    1074:	80 91 20 06 	lds	r24, 0x0620
    1078:	90 91 21 06 	lds	r25, 0x0621
    107c:	91 87       	std	Z+9, r25	; 0x09
    107e:	80 87       	std	Z+8, r24	; 0x08
    1080:	73 86       	std	Z+11, r7	; 0x0b
    1082:	62 86       	std	Z+10, r6	; 0x0a
    1084:	e4 86       	std	Z+12, r14	; 0x0c
    1086:	f5 86       	std	Z+13, r15	; 0x0d
    1088:	0e 94 36 0e 	call	0x1c6c	; 0x1c6c <sprintf>
    108c:	2d b7       	in	r18, 0x3d	; 61
    108e:	3e b7       	in	r19, 0x3e	; 62
    1090:	22 5f       	subi	r18, 0xF2	; 242
    1092:	3f 4f       	sbci	r19, 0xFF	; 255
    1094:	0f b6       	in	r0, 0x3f	; 63
    1096:	f8 94       	cli
    1098:	3e bf       	out	0x3e, r19	; 62
    109a:	0f be       	out	0x3f, r0	; 63
    109c:	2d bf       	out	0x3d, r18	; 61
    109e:	c8 01       	movw	r24, r16
    10a0:	0e 94 d5 09 	call	0x13aa	; 0x13aa <logger_platform_trace>
    10a4:	20 91 20 06 	lds	r18, 0x0620
    10a8:	30 91 21 06 	lds	r19, 0x0621
    10ac:	2f 5f       	subi	r18, 0xFF	; 255
    10ae:	3f 4f       	sbci	r19, 0xFF	; 255
    10b0:	30 93 21 06 	sts	0x0621, r19
    10b4:	20 93 20 06 	sts	0x0620, r18
    10b8:	21 50       	subi	r18, 0x01	; 1
    10ba:	30 40       	sbci	r19, 0x00	; 0
    10bc:	c9 01       	movw	r24, r18
    10be:	0f b6       	in	r0, 0x3f	; 63
    10c0:	f8 94       	cli
    10c2:	5e be       	out	0x3e, r5	; 62
    10c4:	0f be       	out	0x3f, r0	; 63
    10c6:	4d be       	out	0x3d, r4	; 61
    10c8:	cf 91       	pop	r28
    10ca:	df 91       	pop	r29
    10cc:	1f 91       	pop	r17
    10ce:	0f 91       	pop	r16
    10d0:	ff 90       	pop	r15
    10d2:	ef 90       	pop	r14
    10d4:	df 90       	pop	r13
    10d6:	cf 90       	pop	r12
    10d8:	bf 90       	pop	r11
    10da:	af 90       	pop	r10
    10dc:	9f 90       	pop	r9
    10de:	8f 90       	pop	r8
    10e0:	7f 90       	pop	r7
    10e2:	6f 90       	pop	r6
    10e4:	5f 90       	pop	r5
    10e6:	4f 90       	pop	r4
    10e8:	08 95       	ret

000010ea <logger_log>:
    10ea:	6f 92       	push	r6
    10ec:	7f 92       	push	r7
    10ee:	8f 92       	push	r8
    10f0:	9f 92       	push	r9
    10f2:	af 92       	push	r10
    10f4:	bf 92       	push	r11
    10f6:	cf 92       	push	r12
    10f8:	df 92       	push	r13
    10fa:	ef 92       	push	r14
    10fc:	ff 92       	push	r15
    10fe:	0f 93       	push	r16
    1100:	1f 93       	push	r17
    1102:	df 93       	push	r29
    1104:	cf 93       	push	r28
    1106:	cd b7       	in	r28, 0x3d	; 61
    1108:	de b7       	in	r29, 0x3e	; 62
    110a:	a9 88       	ldd	r10, Y+17	; 0x11
    110c:	ba 88       	ldd	r11, Y+18	; 0x12
    110e:	eb 88       	ldd	r14, Y+19	; 0x13
    1110:	fc 88       	ldd	r15, Y+20	; 0x14
    1112:	8d b6       	in	r8, 0x3d	; 61
    1114:	9e b6       	in	r9, 0x3e	; 62
    1116:	8e 01       	movw	r16, r28
    1118:	0b 5e       	subi	r16, 0xEB	; 235
    111a:	1f 4f       	sbci	r17, 0xFF	; 255
    111c:	80 e0       	ldi	r24, 0x00	; 0
    111e:	90 e0       	ldi	r25, 0x00	; 0
    1120:	60 e0       	ldi	r22, 0x00	; 0
    1122:	70 e0       	ldi	r23, 0x00	; 0
    1124:	a7 01       	movw	r20, r14
    1126:	98 01       	movw	r18, r16
    1128:	0e 94 67 0e 	call	0x1cce	; 0x1cce <vsnprintf>
    112c:	01 96       	adiw	r24, 0x01	; 1
    112e:	2d b7       	in	r18, 0x3d	; 61
    1130:	3e b7       	in	r19, 0x3e	; 62
    1132:	28 1b       	sub	r18, r24
    1134:	39 0b       	sbc	r19, r25
    1136:	0f b6       	in	r0, 0x3f	; 63
    1138:	f8 94       	cli
    113a:	3e bf       	out	0x3e, r19	; 62
    113c:	0f be       	out	0x3f, r0	; 63
    113e:	2d bf       	out	0x3d, r18	; 61
    1140:	cd b6       	in	r12, 0x3d	; 61
    1142:	de b6       	in	r13, 0x3e	; 62
    1144:	08 94       	sec
    1146:	c1 1c       	adc	r12, r1
    1148:	d1 1c       	adc	r13, r1
    114a:	7c 2c       	mov	r7, r12
    114c:	6d 2c       	mov	r6, r13
    114e:	c6 01       	movw	r24, r12
    1150:	b7 01       	movw	r22, r14
    1152:	a8 01       	movw	r20, r16
    1154:	0e 94 9e 0e 	call	0x1d3c	; 0x1d3c <vsprintf>
    1158:	31 e0       	ldi	r19, 0x01	; 1
    115a:	a3 16       	cp	r10, r19
    115c:	b1 04       	cpc	r11, r1
    115e:	09 f4       	brne	.+2      	; 0x1162 <__stack+0x63>
    1160:	bd c0       	rjmp	.+378    	; 0x12dc <__stack+0x1dd>
    1162:	81 e0       	ldi	r24, 0x01	; 1
    1164:	a8 16       	cp	r10, r24
    1166:	b1 04       	cpc	r11, r1
    1168:	08 f0       	brcs	.+2      	; 0x116c <__stack+0x6d>
    116a:	70 c0       	rjmp	.+224    	; 0x124c <__stack+0x14d>
    116c:	2d b7       	in	r18, 0x3d	; 61
    116e:	3e b7       	in	r19, 0x3e	; 62
    1170:	2a 50       	subi	r18, 0x0A	; 10
    1172:	30 40       	sbci	r19, 0x00	; 0
    1174:	0f b6       	in	r0, 0x3f	; 63
    1176:	f8 94       	cli
    1178:	3e bf       	out	0x3e, r19	; 62
    117a:	0f be       	out	0x3f, r0	; 63
    117c:	2d bf       	out	0x3d, r18	; 61
    117e:	ed b7       	in	r30, 0x3d	; 61
    1180:	fe b7       	in	r31, 0x3e	; 62
    1182:	31 96       	adiw	r30, 0x01	; 1
    1184:	ad b7       	in	r26, 0x3d	; 61
    1186:	be b7       	in	r27, 0x3e	; 62
    1188:	12 96       	adiw	r26, 0x02	; 2
    118a:	1c 92       	st	X, r1
    118c:	1e 92       	st	-X, r1
    118e:	11 97       	sbiw	r26, 0x01	; 1
    1190:	13 82       	std	Z+3, r1	; 0x03
    1192:	12 82       	std	Z+2, r1	; 0x02
    1194:	5a ea       	ldi	r21, 0xAA	; 170
    1196:	e5 2e       	mov	r14, r21
    1198:	51 e0       	ldi	r21, 0x01	; 1
    119a:	f5 2e       	mov	r15, r21
    119c:	f5 82       	std	Z+5, r15	; 0x05
    119e:	e4 82       	std	Z+4, r14	; 0x04
    11a0:	0e eb       	ldi	r16, 0xBE	; 190
    11a2:	11 e0       	ldi	r17, 0x01	; 1
    11a4:	17 83       	std	Z+7, r17	; 0x07
    11a6:	06 83       	std	Z+6, r16	; 0x06
    11a8:	c0 86       	std	Z+8, r12	; 0x08
    11aa:	d1 86       	std	Z+9, r13	; 0x09
    11ac:	0e 94 f8 0d 	call	0x1bf0	; 0x1bf0 <snprintf>
    11b0:	01 96       	adiw	r24, 0x01	; 1
    11b2:	2d b7       	in	r18, 0x3d	; 61
    11b4:	3e b7       	in	r19, 0x3e	; 62
    11b6:	26 5f       	subi	r18, 0xF6	; 246
    11b8:	3f 4f       	sbci	r19, 0xFF	; 255
    11ba:	0f b6       	in	r0, 0x3f	; 63
    11bc:	f8 94       	cli
    11be:	3e bf       	out	0x3e, r19	; 62
    11c0:	0f be       	out	0x3f, r0	; 63
    11c2:	2d bf       	out	0x3d, r18	; 61
    11c4:	ad b7       	in	r26, 0x3d	; 61
    11c6:	be b7       	in	r27, 0x3e	; 62
    11c8:	a8 1b       	sub	r26, r24
    11ca:	b9 0b       	sbc	r27, r25
    11cc:	0f b6       	in	r0, 0x3f	; 63
    11ce:	f8 94       	cli
    11d0:	be bf       	out	0x3e, r27	; 62
    11d2:	0f be       	out	0x3f, r0	; 63
    11d4:	ad bf       	out	0x3d, r26	; 61
    11d6:	8d b7       	in	r24, 0x3d	; 61
    11d8:	9e b7       	in	r25, 0x3e	; 62
    11da:	01 96       	adiw	r24, 0x01	; 1
    11dc:	6c 01       	movw	r12, r24
    11de:	c8 01       	movw	r24, r16
    11e0:	ad b7       	in	r26, 0x3d	; 61
    11e2:	be b7       	in	r27, 0x3e	; 62
    11e4:	18 97       	sbiw	r26, 0x08	; 8
    11e6:	0f b6       	in	r0, 0x3f	; 63
    11e8:	f8 94       	cli
    11ea:	be bf       	out	0x3e, r27	; 62
    11ec:	0f be       	out	0x3f, r0	; 63
    11ee:	ad bf       	out	0x3d, r26	; 61
    11f0:	ed b7       	in	r30, 0x3d	; 61
    11f2:	fe b7       	in	r31, 0x3e	; 62
    11f4:	31 96       	adiw	r30, 0x01	; 1
    11f6:	11 96       	adiw	r26, 0x01	; 1
    11f8:	cc 92       	st	X, r12
    11fa:	d1 82       	std	Z+1, r13	; 0x01
    11fc:	f3 82       	std	Z+3, r15	; 0x03
    11fe:	e2 82       	std	Z+2, r14	; 0x02
    1200:	95 83       	std	Z+5, r25	; 0x05
    1202:	84 83       	std	Z+4, r24	; 0x04
    1204:	76 82       	std	Z+6, r7	; 0x06
    1206:	67 82       	std	Z+7, r6	; 0x07
    1208:	0e 94 36 0e 	call	0x1c6c	; 0x1c6c <sprintf>
    120c:	2d b7       	in	r18, 0x3d	; 61
    120e:	3e b7       	in	r19, 0x3e	; 62
    1210:	28 5f       	subi	r18, 0xF8	; 248
    1212:	3f 4f       	sbci	r19, 0xFF	; 255
    1214:	0f b6       	in	r0, 0x3f	; 63
    1216:	f8 94       	cli
    1218:	3e bf       	out	0x3e, r19	; 62
    121a:	0f be       	out	0x3f, r0	; 63
    121c:	2d bf       	out	0x3d, r18	; 61
    121e:	c6 01       	movw	r24, r12
    1220:	0e 94 d6 09 	call	0x13ac	; 0x13ac <logger_platform_out>
    1224:	0f b6       	in	r0, 0x3f	; 63
    1226:	f8 94       	cli
    1228:	9e be       	out	0x3e, r9	; 62
    122a:	0f be       	out	0x3f, r0	; 63
    122c:	8d be       	out	0x3d, r8	; 61
    122e:	cf 91       	pop	r28
    1230:	df 91       	pop	r29
    1232:	1f 91       	pop	r17
    1234:	0f 91       	pop	r16
    1236:	ff 90       	pop	r15
    1238:	ef 90       	pop	r14
    123a:	df 90       	pop	r13
    123c:	cf 90       	pop	r12
    123e:	bf 90       	pop	r11
    1240:	af 90       	pop	r10
    1242:	9f 90       	pop	r9
    1244:	8f 90       	pop	r8
    1246:	7f 90       	pop	r7
    1248:	6f 90       	pop	r6
    124a:	08 95       	ret
    124c:	92 e0       	ldi	r25, 0x02	; 2
    124e:	a9 16       	cp	r10, r25
    1250:	b1 04       	cpc	r11, r1
    1252:	09 f4       	brne	.+2      	; 0x1256 <__stack+0x157>
    1254:	60 c0       	rjmp	.+192    	; 0x1316 <__stack+0x217>
    1256:	ad b7       	in	r26, 0x3d	; 61
    1258:	be b7       	in	r27, 0x3e	; 62
    125a:	1a 97       	sbiw	r26, 0x0a	; 10
    125c:	0f b6       	in	r0, 0x3f	; 63
    125e:	f8 94       	cli
    1260:	be bf       	out	0x3e, r27	; 62
    1262:	0f be       	out	0x3f, r0	; 63
    1264:	ad bf       	out	0x3d, r26	; 61
    1266:	ed b7       	in	r30, 0x3d	; 61
    1268:	fe b7       	in	r31, 0x3e	; 62
    126a:	31 96       	adiw	r30, 0x01	; 1
    126c:	12 96       	adiw	r26, 0x02	; 2
    126e:	1c 92       	st	X, r1
    1270:	1e 92       	st	-X, r1
    1272:	11 97       	sbiw	r26, 0x01	; 1
    1274:	13 82       	std	Z+3, r1	; 0x03
    1276:	12 82       	std	Z+2, r1	; 0x02
    1278:	7a ea       	ldi	r23, 0xAA	; 170
    127a:	e7 2e       	mov	r14, r23
    127c:	71 e0       	ldi	r23, 0x01	; 1
    127e:	f7 2e       	mov	r15, r23
    1280:	f5 82       	std	Z+5, r15	; 0x05
    1282:	e4 82       	std	Z+4, r14	; 0x04
    1284:	02 eb       	ldi	r16, 0xB2	; 178
    1286:	11 e0       	ldi	r17, 0x01	; 1
    1288:	17 83       	std	Z+7, r17	; 0x07
    128a:	06 83       	std	Z+6, r16	; 0x06
    128c:	c0 86       	std	Z+8, r12	; 0x08
    128e:	d1 86       	std	Z+9, r13	; 0x09
    1290:	0e 94 f8 0d 	call	0x1bf0	; 0x1bf0 <snprintf>
    1294:	01 96       	adiw	r24, 0x01	; 1
    1296:	2d b7       	in	r18, 0x3d	; 61
    1298:	3e b7       	in	r19, 0x3e	; 62
    129a:	26 5f       	subi	r18, 0xF6	; 246
    129c:	3f 4f       	sbci	r19, 0xFF	; 255
    129e:	0f b6       	in	r0, 0x3f	; 63
    12a0:	f8 94       	cli
    12a2:	3e bf       	out	0x3e, r19	; 62
    12a4:	0f be       	out	0x3f, r0	; 63
    12a6:	2d bf       	out	0x3d, r18	; 61
    12a8:	ad b7       	in	r26, 0x3d	; 61
    12aa:	be b7       	in	r27, 0x3e	; 62
    12ac:	a8 1b       	sub	r26, r24
    12ae:	b9 0b       	sbc	r27, r25
    12b0:	0f b6       	in	r0, 0x3f	; 63
    12b2:	f8 94       	cli
    12b4:	be bf       	out	0x3e, r27	; 62
    12b6:	0f be       	out	0x3f, r0	; 63
    12b8:	ad bf       	out	0x3d, r26	; 61
    12ba:	8d b7       	in	r24, 0x3d	; 61
    12bc:	9e b7       	in	r25, 0x3e	; 62
    12be:	01 96       	adiw	r24, 0x01	; 1
    12c0:	6c 01       	movw	r12, r24
    12c2:	b1 e0       	ldi	r27, 0x01	; 1
    12c4:	ab 16       	cp	r10, r27
    12c6:	b1 04       	cpc	r11, r1
    12c8:	09 f4       	brne	.+2      	; 0x12cc <__stack+0x1cd>
    12ca:	66 c0       	rjmp	.+204    	; 0x1398 <__stack+0x299>
    12cc:	21 e0       	ldi	r18, 0x01	; 1
    12ce:	a2 16       	cp	r10, r18
    12d0:	b1 04       	cpc	r11, r1
    12d2:	08 f0       	brcs	.+2      	; 0x12d6 <__stack+0x1d7>
    12d4:	5b c0       	rjmp	.+182    	; 0x138c <__stack+0x28d>
    12d6:	8e eb       	ldi	r24, 0xBE	; 190
    12d8:	91 e0       	ldi	r25, 0x01	; 1
    12da:	82 cf       	rjmp	.-252    	; 0x11e0 <__stack+0xe1>
    12dc:	2d b7       	in	r18, 0x3d	; 61
    12de:	3e b7       	in	r19, 0x3e	; 62
    12e0:	2a 50       	subi	r18, 0x0A	; 10
    12e2:	30 40       	sbci	r19, 0x00	; 0
    12e4:	0f b6       	in	r0, 0x3f	; 63
    12e6:	f8 94       	cli
    12e8:	3e bf       	out	0x3e, r19	; 62
    12ea:	0f be       	out	0x3f, r0	; 63
    12ec:	2d bf       	out	0x3d, r18	; 61
    12ee:	ed b7       	in	r30, 0x3d	; 61
    12f0:	fe b7       	in	r31, 0x3e	; 62
    12f2:	31 96       	adiw	r30, 0x01	; 1
    12f4:	ad b7       	in	r26, 0x3d	; 61
    12f6:	be b7       	in	r27, 0x3e	; 62
    12f8:	12 96       	adiw	r26, 0x02	; 2
    12fa:	1c 92       	st	X, r1
    12fc:	1e 92       	st	-X, r1
    12fe:	11 97       	sbiw	r26, 0x01	; 1
    1300:	13 82       	std	Z+3, r1	; 0x03
    1302:	12 82       	std	Z+2, r1	; 0x02
    1304:	4a ea       	ldi	r20, 0xAA	; 170
    1306:	e4 2e       	mov	r14, r20
    1308:	41 e0       	ldi	r20, 0x01	; 1
    130a:	f4 2e       	mov	r15, r20
    130c:	f5 82       	std	Z+5, r15	; 0x05
    130e:	e4 82       	std	Z+4, r14	; 0x04
    1310:	06 eb       	ldi	r16, 0xB6	; 182
    1312:	11 e0       	ldi	r17, 0x01	; 1
    1314:	47 cf       	rjmp	.-370    	; 0x11a4 <__stack+0xa5>
    1316:	8d b7       	in	r24, 0x3d	; 61
    1318:	9e b7       	in	r25, 0x3e	; 62
    131a:	0a 97       	sbiw	r24, 0x0a	; 10
    131c:	0f b6       	in	r0, 0x3f	; 63
    131e:	f8 94       	cli
    1320:	9e bf       	out	0x3e, r25	; 62
    1322:	0f be       	out	0x3f, r0	; 63
    1324:	8d bf       	out	0x3d, r24	; 61
    1326:	ed b7       	in	r30, 0x3d	; 61
    1328:	fe b7       	in	r31, 0x3e	; 62
    132a:	31 96       	adiw	r30, 0x01	; 1
    132c:	ad b7       	in	r26, 0x3d	; 61
    132e:	be b7       	in	r27, 0x3e	; 62
    1330:	12 96       	adiw	r26, 0x02	; 2
    1332:	1c 92       	st	X, r1
    1334:	1e 92       	st	-X, r1
    1336:	11 97       	sbiw	r26, 0x01	; 1
    1338:	13 82       	std	Z+3, r1	; 0x03
    133a:	12 82       	std	Z+2, r1	; 0x02
    133c:	6a ea       	ldi	r22, 0xAA	; 170
    133e:	e6 2e       	mov	r14, r22
    1340:	61 e0       	ldi	r22, 0x01	; 1
    1342:	f6 2e       	mov	r15, r22
    1344:	f5 82       	std	Z+5, r15	; 0x05
    1346:	e4 82       	std	Z+4, r14	; 0x04
    1348:	83 ec       	ldi	r24, 0xC3	; 195
    134a:	91 e0       	ldi	r25, 0x01	; 1
    134c:	97 83       	std	Z+7, r25	; 0x07
    134e:	86 83       	std	Z+6, r24	; 0x06
    1350:	c0 86       	std	Z+8, r12	; 0x08
    1352:	d1 86       	std	Z+9, r13	; 0x09
    1354:	0e 94 f8 0d 	call	0x1bf0	; 0x1bf0 <snprintf>
    1358:	01 96       	adiw	r24, 0x01	; 1
    135a:	2d b7       	in	r18, 0x3d	; 61
    135c:	3e b7       	in	r19, 0x3e	; 62
    135e:	26 5f       	subi	r18, 0xF6	; 246
    1360:	3f 4f       	sbci	r19, 0xFF	; 255
    1362:	0f b6       	in	r0, 0x3f	; 63
    1364:	f8 94       	cli
    1366:	3e bf       	out	0x3e, r19	; 62
    1368:	0f be       	out	0x3f, r0	; 63
    136a:	2d bf       	out	0x3d, r18	; 61
    136c:	ad b7       	in	r26, 0x3d	; 61
    136e:	be b7       	in	r27, 0x3e	; 62
    1370:	a8 1b       	sub	r26, r24
    1372:	b9 0b       	sbc	r27, r25
    1374:	0f b6       	in	r0, 0x3f	; 63
    1376:	f8 94       	cli
    1378:	be bf       	out	0x3e, r27	; 62
    137a:	0f be       	out	0x3f, r0	; 63
    137c:	ad bf       	out	0x3d, r26	; 61
    137e:	8d b7       	in	r24, 0x3d	; 61
    1380:	9e b7       	in	r25, 0x3e	; 62
    1382:	01 96       	adiw	r24, 0x01	; 1
    1384:	6c 01       	movw	r12, r24
    1386:	83 ec       	ldi	r24, 0xC3	; 195
    1388:	91 e0       	ldi	r25, 0x01	; 1
    138a:	2a cf       	rjmp	.-428    	; 0x11e0 <__stack+0xe1>
    138c:	32 e0       	ldi	r19, 0x02	; 2
    138e:	a3 16       	cp	r10, r19
    1390:	b1 04       	cpc	r11, r1
    1392:	c9 f3       	breq	.-14     	; 0x1386 <__stack+0x287>
    1394:	c8 01       	movw	r24, r16
    1396:	24 cf       	rjmp	.-440    	; 0x11e0 <__stack+0xe1>
    1398:	86 eb       	ldi	r24, 0xB6	; 182
    139a:	91 e0       	ldi	r25, 0x01	; 1
    139c:	21 cf       	rjmp	.-446    	; 0x11e0 <__stack+0xe1>

0000139e <logger_init>:
    139e:	0e 94 df 09 	call	0x13be	; 0x13be <settings_logger_file>
    13a2:	0e 94 d4 09 	call	0x13a8	; 0x13a8 <logger_platform_init>
    13a6:	08 95       	ret

000013a8 <logger_platform_init>:
    13a8:	08 95       	ret

000013aa <logger_platform_trace>:
    13aa:	08 95       	ret

000013ac <logger_platform_out>:
    13ac:	08 95       	ret

000013ae <settings_dispatcher_max_time>:
    13ae:	6f ef       	ldi	r22, 0xFF	; 255
    13b0:	7f ef       	ldi	r23, 0xFF	; 255
    13b2:	8f ef       	ldi	r24, 0xFF	; 255
    13b4:	9f ef       	ldi	r25, 0xFF	; 255
    13b6:	08 95       	ret

000013b8 <settings_random_seed>:
    13b8:	80 e0       	ldi	r24, 0x00	; 0
    13ba:	90 e0       	ldi	r25, 0x00	; 0
    13bc:	08 95       	ret

000013be <settings_logger_file>:
    13be:	89 ec       	ldi	r24, 0xC9	; 201
    13c0:	91 e0       	ldi	r25, 0x01	; 1
    13c2:	08 95       	ret

000013c4 <dispatcher_quit>:
    13c4:	20 91 2e 0e 	lds	r18, 0x0E2E
    13c8:	30 91 2f 0e 	lds	r19, 0x0E2F
    13cc:	40 91 30 0e 	lds	r20, 0x0E30
    13d0:	50 91 31 0e 	lds	r21, 0x0E31
    13d4:	12 16       	cp	r1, r18
    13d6:	13 06       	cpc	r1, r19
    13d8:	14 06       	cpc	r1, r20
    13da:	15 06       	cpc	r1, r21
    13dc:	9c f4       	brge	.+38     	; 0x1404 <dispatcher_quit+0x40>
    13de:	60 e0       	ldi	r22, 0x00	; 0
    13e0:	80 91 86 0e 	lds	r24, 0x0E86
    13e4:	90 91 87 0e 	lds	r25, 0x0E87
    13e8:	a0 91 88 0e 	lds	r26, 0x0E88
    13ec:	b0 91 89 0e 	lds	r27, 0x0E89
    13f0:	28 17       	cp	r18, r24
    13f2:	39 07       	cpc	r19, r25
    13f4:	4a 07       	cpc	r20, r26
    13f6:	5b 07       	cpc	r21, r27
    13f8:	14 f0       	brlt	.+4      	; 0x13fe <dispatcher_quit+0x3a>
    13fa:	86 2f       	mov	r24, r22
    13fc:	08 95       	ret
    13fe:	61 e0       	ldi	r22, 0x01	; 1
    1400:	86 2f       	mov	r24, r22
    1402:	08 95       	ret
    1404:	60 e0       	ldi	r22, 0x00	; 0
    1406:	86 2f       	mov	r24, r22
    1408:	08 95       	ret

0000140a <dispatcher_now>:
    140a:	60 91 86 0e 	lds	r22, 0x0E86
    140e:	70 91 87 0e 	lds	r23, 0x0E87
    1412:	80 91 88 0e 	lds	r24, 0x0E88
    1416:	90 91 89 0e 	lds	r25, 0x0E89
    141a:	08 95       	ret

0000141c <dispatcher_run>:
    141c:	4f 92       	push	r4
    141e:	5f 92       	push	r5
    1420:	6f 92       	push	r6
    1422:	7f 92       	push	r7
    1424:	8f 92       	push	r8
    1426:	9f 92       	push	r9
    1428:	af 92       	push	r10
    142a:	bf 92       	push	r11
    142c:	cf 92       	push	r12
    142e:	df 92       	push	r13
    1430:	ef 92       	push	r14
    1432:	ff 92       	push	r15
    1434:	0f 93       	push	r16
    1436:	1f 93       	push	r17
    1438:	df 93       	push	r29
    143a:	cf 93       	push	r28
    143c:	cd b7       	in	r28, 0x3d	; 61
    143e:	de b7       	in	r29, 0x3e	; 62
    1440:	28 97       	sbiw	r28, 0x08	; 8
    1442:	0f b6       	in	r0, 0x3f	; 63
    1444:	f8 94       	cli
    1446:	de bf       	out	0x3e, r29	; 62
    1448:	0f be       	out	0x3f, r0	; 63
    144a:	cd bf       	out	0x3d, r28	; 61
    144c:	00 d0       	rcall	.+0      	; 0x144e <dispatcher_run+0x32>
    144e:	00 d0       	rcall	.+0      	; 0x1450 <dispatcher_run+0x34>
    1450:	ed b7       	in	r30, 0x3d	; 61
    1452:	fe b7       	in	r31, 0x3e	; 62
    1454:	12 82       	std	Z+2, r1	; 0x02
    1456:	11 82       	std	Z+1, r1	; 0x01
    1458:	8a ec       	ldi	r24, 0xCA	; 202
    145a:	91 e0       	ldi	r25, 0x01	; 1
    145c:	94 83       	std	Z+4, r25	; 0x04
    145e:	83 83       	std	Z+3, r24	; 0x03
    1460:	0e 94 75 08 	call	0x10ea	; 0x10ea <logger_log>
    1464:	0f 90       	pop	r0
    1466:	0f 90       	pop	r0
    1468:	0f 90       	pop	r0
    146a:	0f 90       	pop	r0
    146c:	2e 01       	movw	r4, r28
    146e:	08 94       	sec
    1470:	41 1c       	adc	r4, r1
    1472:	51 1c       	adc	r5, r1
    1474:	20 91 2e 0e 	lds	r18, 0x0E2E
    1478:	30 91 2f 0e 	lds	r19, 0x0E2F
    147c:	40 91 30 0e 	lds	r20, 0x0E30
    1480:	50 91 31 0e 	lds	r21, 0x0E31
    1484:	12 16       	cp	r1, r18
    1486:	13 06       	cpc	r1, r19
    1488:	14 06       	cpc	r1, r20
    148a:	15 06       	cpc	r1, r21
    148c:	a4 f5       	brge	.+104    	; 0x14f6 <dispatcher_run+0xda>
    148e:	80 91 86 0e 	lds	r24, 0x0E86
    1492:	90 91 87 0e 	lds	r25, 0x0E87
    1496:	a0 91 88 0e 	lds	r26, 0x0E88
    149a:	b0 91 89 0e 	lds	r27, 0x0E89
    149e:	28 17       	cp	r18, r24
    14a0:	39 07       	cpc	r19, r25
    14a2:	4a 07       	cpc	r20, r26
    14a4:	5b 07       	cpc	r21, r27
    14a6:	3c f5       	brge	.+78     	; 0x14f6 <dispatcher_run+0xda>
    14a8:	00 d0       	rcall	.+0      	; 0x14aa <dispatcher_run+0x8e>
    14aa:	00 d0       	rcall	.+0      	; 0x14ac <dispatcher_run+0x90>
    14ac:	ed b7       	in	r30, 0x3d	; 61
    14ae:	fe b7       	in	r31, 0x3e	; 62
    14b0:	12 82       	std	Z+2, r1	; 0x02
    14b2:	11 82       	std	Z+1, r1	; 0x01
    14b4:	8d ed       	ldi	r24, 0xDD	; 221
    14b6:	91 e0       	ldi	r25, 0x01	; 1
    14b8:	94 83       	std	Z+4, r25	; 0x04
    14ba:	83 83       	std	Z+3, r24	; 0x03
    14bc:	0e 94 75 08 	call	0x10ea	; 0x10ea <logger_log>
    14c0:	0f 90       	pop	r0
    14c2:	0f 90       	pop	r0
    14c4:	0f 90       	pop	r0
    14c6:	0f 90       	pop	r0
    14c8:	28 96       	adiw	r28, 0x08	; 8
    14ca:	0f b6       	in	r0, 0x3f	; 63
    14cc:	f8 94       	cli
    14ce:	de bf       	out	0x3e, r29	; 62
    14d0:	0f be       	out	0x3f, r0	; 63
    14d2:	cd bf       	out	0x3d, r28	; 61
    14d4:	cf 91       	pop	r28
    14d6:	df 91       	pop	r29
    14d8:	1f 91       	pop	r17
    14da:	0f 91       	pop	r16
    14dc:	ff 90       	pop	r15
    14de:	ef 90       	pop	r14
    14e0:	df 90       	pop	r13
    14e2:	cf 90       	pop	r12
    14e4:	bf 90       	pop	r11
    14e6:	af 90       	pop	r10
    14e8:	9f 90       	pop	r9
    14ea:	8f 90       	pop	r8
    14ec:	7f 90       	pop	r7
    14ee:	6f 90       	pop	r6
    14f0:	5f 90       	pop	r5
    14f2:	4f 90       	pop	r4
    14f4:	08 95       	ret
    14f6:	80 90 84 0e 	lds	r8, 0x0E84
    14fa:	90 90 85 0e 	lds	r9, 0x0E85
    14fe:	c0 90 82 0e 	lds	r12, 0x0E82
    1502:	d0 90 83 0e 	lds	r13, 0x0E83
    1506:	8c 14       	cp	r8, r12
    1508:	9d 04       	cpc	r9, r13
    150a:	09 f4       	brne	.+2      	; 0x150e <dispatcher_run+0xf2>
    150c:	8c c0       	rjmp	.+280    	; 0x1626 <dispatcher_run+0x20a>
    150e:	c4 01       	movw	r24, r8
    1510:	01 96       	adiw	r24, 0x01	; 1
    1512:	6a e0       	ldi	r22, 0x0A	; 10
    1514:	70 e0       	ldi	r23, 0x00	; 0
    1516:	0e 94 4a 0c 	call	0x1894	; 0x1894 <__divmodhi4>
    151a:	5c 01       	movw	r10, r24
    151c:	c8 16       	cp	r12, r24
    151e:	d9 06       	cpc	r13, r25
    1520:	09 f4       	brne	.+2      	; 0x1524 <dispatcher_run+0x108>
    1522:	71 c0       	rjmp	.+226    	; 0x1606 <dispatcher_run+0x1ea>
    1524:	bc 01       	movw	r22, r24
    1526:	34 01       	movw	r6, r8
    1528:	74 01       	movw	r14, r8
    152a:	ee 0c       	add	r14, r14
    152c:	ff 1c       	adc	r15, r15
    152e:	ee 0c       	add	r14, r14
    1530:	ff 1c       	adc	r15, r15
    1532:	ee 0c       	add	r14, r14
    1534:	ff 1c       	adc	r15, r15
    1536:	8b 01       	movw	r16, r22
    1538:	00 0f       	add	r16, r16
    153a:	11 1f       	adc	r17, r17
    153c:	00 0f       	add	r16, r16
    153e:	11 1f       	adc	r17, r17
    1540:	00 0f       	add	r16, r16
    1542:	11 1f       	adc	r17, r17
    1544:	f8 01       	movw	r30, r16
    1546:	ee 5c       	subi	r30, 0xCE	; 206
    1548:	f1 4f       	sbci	r31, 0xF1	; 241
    154a:	d7 01       	movw	r26, r14
    154c:	ae 5c       	subi	r26, 0xCE	; 206
    154e:	b1 4f       	sbci	r27, 0xF1	; 241
    1550:	20 81       	ld	r18, Z
    1552:	31 81       	ldd	r19, Z+1	; 0x01
    1554:	42 81       	ldd	r20, Z+2	; 0x02
    1556:	53 81       	ldd	r21, Z+3	; 0x03
    1558:	8d 91       	ld	r24, X+
    155a:	9d 91       	ld	r25, X+
    155c:	0d 90       	ld	r0, X+
    155e:	bc 91       	ld	r27, X
    1560:	a0 2d       	mov	r26, r0
    1562:	28 17       	cp	r18, r24
    1564:	39 07       	cpc	r19, r25
    1566:	4a 07       	cpc	r20, r26
    1568:	5b 07       	cpc	r21, r27
    156a:	10 f4       	brcc	.+4      	; 0x1570 <dispatcher_run+0x154>
    156c:	3b 01       	movw	r6, r22
    156e:	78 01       	movw	r14, r16
    1570:	cb 01       	movw	r24, r22
    1572:	01 96       	adiw	r24, 0x01	; 1
    1574:	6a e0       	ldi	r22, 0x0A	; 10
    1576:	70 e0       	ldi	r23, 0x00	; 0
    1578:	0e 94 4a 0c 	call	0x1894	; 0x1894 <__divmodhi4>
    157c:	bc 01       	movw	r22, r24
    157e:	c8 16       	cp	r12, r24
    1580:	d9 06       	cpc	r13, r25
    1582:	c9 f6       	brne	.-78     	; 0x1536 <dispatcher_run+0x11a>
    1584:	d2 01       	movw	r26, r4
    1586:	f7 01       	movw	r30, r14
    1588:	ee 5c       	subi	r30, 0xCE	; 206
    158a:	f1 4f       	sbci	r31, 0xF1	; 241
    158c:	88 e0       	ldi	r24, 0x08	; 8
    158e:	01 90       	ld	r0, Z+
    1590:	0d 92       	st	X+, r0
    1592:	81 50       	subi	r24, 0x01	; 1
    1594:	e1 f7       	brne	.-8      	; 0x158e <dispatcher_run+0x172>
    1596:	86 14       	cp	r8, r6
    1598:	97 04       	cpc	r9, r7
    159a:	89 f0       	breq	.+34     	; 0x15be <dispatcher_run+0x1a2>
    159c:	f4 01       	movw	r30, r8
    159e:	ee 0f       	add	r30, r30
    15a0:	ff 1f       	adc	r31, r31
    15a2:	ee 0f       	add	r30, r30
    15a4:	ff 1f       	adc	r31, r31
    15a6:	ee 0f       	add	r30, r30
    15a8:	ff 1f       	adc	r31, r31
    15aa:	d7 01       	movw	r26, r14
    15ac:	ae 5c       	subi	r26, 0xCE	; 206
    15ae:	b1 4f       	sbci	r27, 0xF1	; 241
    15b0:	ee 5c       	subi	r30, 0xCE	; 206
    15b2:	f1 4f       	sbci	r31, 0xF1	; 241
    15b4:	88 e0       	ldi	r24, 0x08	; 8
    15b6:	01 90       	ld	r0, Z+
    15b8:	0d 92       	st	X+, r0
    15ba:	81 50       	subi	r24, 0x01	; 1
    15bc:	e1 f7       	brne	.-8      	; 0x15b6 <dispatcher_run+0x19a>
    15be:	b0 92 85 0e 	sts	0x0E85, r11
    15c2:	a0 92 84 0e 	sts	0x0E84, r10
    15c6:	29 81       	ldd	r18, Y+1	; 0x01
    15c8:	3a 81       	ldd	r19, Y+2	; 0x02
    15ca:	4b 81       	ldd	r20, Y+3	; 0x03
    15cc:	5c 81       	ldd	r21, Y+4	; 0x04
    15ce:	ed 81       	ldd	r30, Y+5	; 0x05
    15d0:	fe 81       	ldd	r31, Y+6	; 0x06
    15d2:	6f 81       	ldd	r22, Y+7	; 0x07
    15d4:	78 85       	ldd	r23, Y+8	; 0x08
    15d6:	80 91 86 0e 	lds	r24, 0x0E86
    15da:	90 91 87 0e 	lds	r25, 0x0E87
    15de:	a0 91 88 0e 	lds	r26, 0x0E88
    15e2:	b0 91 89 0e 	lds	r27, 0x0E89
    15e6:	28 17       	cp	r18, r24
    15e8:	39 07       	cpc	r19, r25
    15ea:	4a 07       	cpc	r20, r26
    15ec:	5b 07       	cpc	r21, r27
    15ee:	d8 f0       	brcs	.+54     	; 0x1626 <dispatcher_run+0x20a>
    15f0:	20 93 86 0e 	sts	0x0E86, r18
    15f4:	30 93 87 0e 	sts	0x0E87, r19
    15f8:	40 93 88 0e 	sts	0x0E88, r20
    15fc:	50 93 89 0e 	sts	0x0E89, r21
    1600:	cb 01       	movw	r24, r22
    1602:	09 95       	icall
    1604:	37 cf       	rjmp	.-402    	; 0x1474 <dispatcher_run+0x58>
    1606:	f4 01       	movw	r30, r8
    1608:	ee 0f       	add	r30, r30
    160a:	ff 1f       	adc	r31, r31
    160c:	ee 0f       	add	r30, r30
    160e:	ff 1f       	adc	r31, r31
    1610:	ee 0f       	add	r30, r30
    1612:	ff 1f       	adc	r31, r31
    1614:	d2 01       	movw	r26, r4
    1616:	ee 5c       	subi	r30, 0xCE	; 206
    1618:	f1 4f       	sbci	r31, 0xF1	; 241
    161a:	88 e0       	ldi	r24, 0x08	; 8
    161c:	01 90       	ld	r0, Z+
    161e:	0d 92       	st	X+, r0
    1620:	81 50       	subi	r24, 0x01	; 1
    1622:	e1 f7       	brne	.-8      	; 0x161c <dispatcher_run+0x200>
    1624:	cc cf       	rjmp	.-104    	; 0x15be <dispatcher_run+0x1a2>
    1626:	0e 94 e1 0d 	call	0x1bc2	; 0x1bc2 <abort>

0000162a <dispatcher_enqueue>:
    162a:	8f 92       	push	r8
    162c:	9f 92       	push	r9
    162e:	af 92       	push	r10
    1630:	bf 92       	push	r11
    1632:	cf 92       	push	r12
    1634:	df 92       	push	r13
    1636:	ef 92       	push	r14
    1638:	ff 92       	push	r15
    163a:	0f 93       	push	r16
    163c:	1f 93       	push	r17
    163e:	cf 93       	push	r28
    1640:	df 93       	push	r29
    1642:	6b 01       	movw	r12, r22
    1644:	7c 01       	movw	r14, r24
    1646:	5a 01       	movw	r10, r20
    1648:	49 01       	movw	r8, r18
    164a:	00 91 86 0e 	lds	r16, 0x0E86
    164e:	10 91 87 0e 	lds	r17, 0x0E87
    1652:	20 91 88 0e 	lds	r18, 0x0E88
    1656:	30 91 89 0e 	lds	r19, 0x0E89
    165a:	c0 91 82 0e 	lds	r28, 0x0E82
    165e:	d0 91 83 0e 	lds	r29, 0x0E83
    1662:	ce 01       	movw	r24, r28
    1664:	01 96       	adiw	r24, 0x01	; 1
    1666:	6a e0       	ldi	r22, 0x0A	; 10
    1668:	70 e0       	ldi	r23, 0x00	; 0
    166a:	0e 94 4a 0c 	call	0x1894	; 0x1894 <__divmodhi4>
    166e:	bc 01       	movw	r22, r24
    1670:	80 91 84 0e 	lds	r24, 0x0E84
    1674:	90 91 85 0e 	lds	r25, 0x0E85
    1678:	68 17       	cp	r22, r24
    167a:	79 07       	cpc	r23, r25
    167c:	41 f1       	breq	.+80     	; 0x16ce <dispatcher_enqueue+0xa4>
    167e:	cc 0f       	add	r28, r28
    1680:	dd 1f       	adc	r29, r29
    1682:	cc 0f       	add	r28, r28
    1684:	dd 1f       	adc	r29, r29
    1686:	cc 0f       	add	r28, r28
    1688:	dd 1f       	adc	r29, r29
    168a:	fe 01       	movw	r30, r28
    168c:	ee 5c       	subi	r30, 0xCE	; 206
    168e:	f1 4f       	sbci	r31, 0xF1	; 241
    1690:	0c 0d       	add	r16, r12
    1692:	1d 1d       	adc	r17, r13
    1694:	2e 1d       	adc	r18, r14
    1696:	3f 1d       	adc	r19, r15
    1698:	00 83       	st	Z, r16
    169a:	11 83       	std	Z+1, r17	; 0x01
    169c:	22 83       	std	Z+2, r18	; 0x02
    169e:	33 83       	std	Z+3, r19	; 0x03
    16a0:	ca 5c       	subi	r28, 0xCA	; 202
    16a2:	d1 4f       	sbci	r29, 0xF1	; 241
    16a4:	b9 82       	std	Y+1, r11	; 0x01
    16a6:	a8 82       	st	Y, r10
    16a8:	97 82       	std	Z+7, r9	; 0x07
    16aa:	86 82       	std	Z+6, r8	; 0x06
    16ac:	70 93 83 0e 	sts	0x0E83, r23
    16b0:	60 93 82 0e 	sts	0x0E82, r22
    16b4:	df 91       	pop	r29
    16b6:	cf 91       	pop	r28
    16b8:	1f 91       	pop	r17
    16ba:	0f 91       	pop	r16
    16bc:	ff 90       	pop	r15
    16be:	ef 90       	pop	r14
    16c0:	df 90       	pop	r13
    16c2:	cf 90       	pop	r12
    16c4:	bf 90       	pop	r11
    16c6:	af 90       	pop	r10
    16c8:	9f 90       	pop	r9
    16ca:	8f 90       	pop	r8
    16cc:	08 95       	ret
    16ce:	0e 94 e1 0d 	call	0x1bc2	; 0x1bc2 <abort>

000016d2 <dispatcher_init>:
    16d2:	10 92 85 0e 	sts	0x0E85, r1
    16d6:	10 92 84 0e 	sts	0x0E84, r1
    16da:	10 92 83 0e 	sts	0x0E83, r1
    16de:	10 92 82 0e 	sts	0x0E82, r1
    16e2:	0e 94 d7 09 	call	0x13ae	; 0x13ae <settings_dispatcher_max_time>
    16e6:	60 93 2e 0e 	sts	0x0E2E, r22
    16ea:	70 93 2f 0e 	sts	0x0E2F, r23
    16ee:	80 93 30 0e 	sts	0x0E30, r24
    16f2:	90 93 31 0e 	sts	0x0E31, r25
    16f6:	10 92 86 0e 	sts	0x0E86, r1
    16fa:	10 92 87 0e 	sts	0x0E87, r1
    16fe:	10 92 88 0e 	sts	0x0E88, r1
    1702:	10 92 89 0e 	sts	0x0E89, r1
    1706:	08 95       	ret

00001708 <random_integer>:
    1708:	ef 92       	push	r14
    170a:	ff 92       	push	r15
    170c:	0f 93       	push	r16
    170e:	1f 93       	push	r17
    1710:	cf 93       	push	r28
    1712:	df 93       	push	r29
    1714:	8c 01       	movw	r16, r24
    1716:	97 fd       	sbrc	r25, 7
    1718:	23 c0       	rjmp	.+70     	; 0x1760 <random_integer+0x58>
    171a:	7c 01       	movw	r14, r24
    171c:	08 94       	sec
    171e:	e1 1c       	adc	r14, r1
    1720:	f1 1c       	adc	r15, r1
    1722:	2f ef       	ldi	r18, 0xFF	; 255
    1724:	3f e7       	ldi	r19, 0x7F	; 127
    1726:	c9 01       	movw	r24, r18
    1728:	80 1b       	sub	r24, r16
    172a:	91 0b       	sbc	r25, r17
    172c:	b7 01       	movw	r22, r14
    172e:	0e 94 4a 0c 	call	0x1894	; 0x1894 <__divmodhi4>
    1732:	e9 01       	movw	r28, r18
    1734:	c8 1b       	sub	r28, r24
    1736:	d9 0b       	sbc	r29, r25
    1738:	0e 94 d1 0d 	call	0x1ba2	; 0x1ba2 <rand>
    173c:	c8 17       	cp	r28, r24
    173e:	d9 07       	cpc	r29, r25
    1740:	dc f3       	brlt	.-10     	; 0x1738 <random_integer+0x30>
    1742:	b7 01       	movw	r22, r14
    1744:	0e 94 4a 0c 	call	0x1894	; 0x1894 <__divmodhi4>
    1748:	97 fd       	sbrc	r25, 7
    174a:	0a c0       	rjmp	.+20     	; 0x1760 <random_integer+0x58>
    174c:	08 17       	cp	r16, r24
    174e:	19 07       	cpc	r17, r25
    1750:	3c f0       	brlt	.+14     	; 0x1760 <random_integer+0x58>
    1752:	df 91       	pop	r29
    1754:	cf 91       	pop	r28
    1756:	1f 91       	pop	r17
    1758:	0f 91       	pop	r16
    175a:	ff 90       	pop	r15
    175c:	ef 90       	pop	r14
    175e:	08 95       	ret
    1760:	0e 94 e1 0d 	call	0x1bc2	; 0x1bc2 <abort>

00001764 <random_error>:
    1764:	81 e0       	ldi	r24, 0x01	; 1
    1766:	90 e0       	ldi	r25, 0x00	; 0
    1768:	0e 94 84 0b 	call	0x1708	; 0x1708 <random_integer>
    176c:	20 e0       	ldi	r18, 0x00	; 0
    176e:	30 e0       	ldi	r19, 0x00	; 0
    1770:	89 2b       	or	r24, r25
    1772:	11 f4       	brne	.+4      	; 0x1778 <random_error+0x14>
    1774:	21 e0       	ldi	r18, 0x01	; 1
    1776:	30 e0       	ldi	r19, 0x00	; 0
    1778:	c9 01       	movw	r24, r18
    177a:	08 95       	ret

0000177c <random_bytes>:
    177c:	ef 92       	push	r14
    177e:	ff 92       	push	r15
    1780:	0f 93       	push	r16
    1782:	1f 93       	push	r17
    1784:	cf 93       	push	r28
    1786:	df 93       	push	r29
    1788:	7c 01       	movw	r14, r24
    178a:	8b 01       	movw	r16, r22
    178c:	61 15       	cp	r22, r1
    178e:	71 05       	cpc	r23, r1
    1790:	71 f0       	breq	.+28     	; 0x17ae <random_bytes+0x32>
    1792:	c0 e0       	ldi	r28, 0x00	; 0
    1794:	d0 e0       	ldi	r29, 0x00	; 0
    1796:	8f ef       	ldi	r24, 0xFF	; 255
    1798:	90 e0       	ldi	r25, 0x00	; 0
    179a:	0e 94 84 0b 	call	0x1708	; 0x1708 <random_integer>
    179e:	f7 01       	movw	r30, r14
    17a0:	ec 0f       	add	r30, r28
    17a2:	fd 1f       	adc	r31, r29
    17a4:	80 83       	st	Z, r24
    17a6:	21 96       	adiw	r28, 0x01	; 1
    17a8:	c0 17       	cp	r28, r16
    17aa:	d1 07       	cpc	r29, r17
    17ac:	a0 f3       	brcs	.-24     	; 0x1796 <random_bytes+0x1a>
    17ae:	df 91       	pop	r29
    17b0:	cf 91       	pop	r28
    17b2:	1f 91       	pop	r17
    17b4:	0f 91       	pop	r16
    17b6:	ff 90       	pop	r15
    17b8:	ef 90       	pop	r14
    17ba:	08 95       	ret

000017bc <random_string>:
    17bc:	cf 92       	push	r12
    17be:	df 92       	push	r13
    17c0:	ef 92       	push	r14
    17c2:	ff 92       	push	r15
    17c4:	0f 93       	push	r16
    17c6:	1f 93       	push	r17
    17c8:	cf 93       	push	r28
    17ca:	df 93       	push	r29
    17cc:	8c 01       	movw	r16, r24
    17ce:	6b 01       	movw	r12, r22
    17d0:	7b 01       	movw	r14, r22
    17d2:	08 94       	sec
    17d4:	e1 08       	sbc	r14, r1
    17d6:	f1 08       	sbc	r15, r1
    17d8:	e1 14       	cp	r14, r1
    17da:	f1 04       	cpc	r15, r1
    17dc:	79 f0       	breq	.+30     	; 0x17fc <random_string+0x40>
    17de:	c0 e0       	ldi	r28, 0x00	; 0
    17e0:	d0 e0       	ldi	r29, 0x00	; 0
    17e2:	89 e1       	ldi	r24, 0x19	; 25
    17e4:	90 e0       	ldi	r25, 0x00	; 0
    17e6:	0e 94 84 0b 	call	0x1708	; 0x1708 <random_integer>
    17ea:	f8 01       	movw	r30, r16
    17ec:	ec 0f       	add	r30, r28
    17ee:	fd 1f       	adc	r31, r29
    17f0:	8f 59       	subi	r24, 0x9F	; 159
    17f2:	80 83       	st	Z, r24
    17f4:	21 96       	adiw	r28, 0x01	; 1
    17f6:	ce 15       	cp	r28, r14
    17f8:	df 05       	cpc	r29, r15
    17fa:	98 f3       	brcs	.-26     	; 0x17e2 <random_string+0x26>
    17fc:	0c 0d       	add	r16, r12
    17fe:	1d 1d       	adc	r17, r13
    1800:	01 50       	subi	r16, 0x01	; 1
    1802:	10 40       	sbci	r17, 0x00	; 0
    1804:	f8 01       	movw	r30, r16
    1806:	10 82       	st	Z, r1
    1808:	df 91       	pop	r29
    180a:	cf 91       	pop	r28
    180c:	1f 91       	pop	r17
    180e:	0f 91       	pop	r16
    1810:	ff 90       	pop	r15
    1812:	ef 90       	pop	r14
    1814:	df 90       	pop	r13
    1816:	cf 90       	pop	r12
    1818:	08 95       	ret

0000181a <random_integer_range>:
    181a:	cf 93       	push	r28
    181c:	df 93       	push	r29
    181e:	ec 01       	movw	r28, r24
    1820:	97 fd       	sbrc	r25, 7
    1822:	0f c0       	rjmp	.+30     	; 0x1842 <random_integer_range+0x28>
    1824:	68 17       	cp	r22, r24
    1826:	79 07       	cpc	r23, r25
    1828:	64 f0       	brlt	.+24     	; 0x1842 <random_integer_range+0x28>
    182a:	cb 01       	movw	r24, r22
    182c:	8c 1b       	sub	r24, r28
    182e:	9d 0b       	sbc	r25, r29
    1830:	0e 94 84 0b 	call	0x1708	; 0x1708 <random_integer>
    1834:	9e 01       	movw	r18, r28
    1836:	28 0f       	add	r18, r24
    1838:	39 1f       	adc	r19, r25
    183a:	c9 01       	movw	r24, r18
    183c:	df 91       	pop	r29
    183e:	cf 91       	pop	r28
    1840:	08 95       	ret
    1842:	0e 94 e1 0d 	call	0x1bc2	; 0x1bc2 <abort>

00001846 <random_init>:
    1846:	0f 93       	push	r16
    1848:	1f 93       	push	r17
    184a:	0e 94 dc 09 	call	0x13b8	; 0x13b8 <settings_random_seed>
    184e:	8c 01       	movw	r16, r24
    1850:	00 d0       	rcall	.+0      	; 0x1852 <random_init+0xc>
    1852:	00 d0       	rcall	.+0      	; 0x1854 <random_init+0xe>
    1854:	00 d0       	rcall	.+0      	; 0x1856 <random_init+0x10>
    1856:	ed b7       	in	r30, 0x3d	; 61
    1858:	fe b7       	in	r31, 0x3e	; 62
    185a:	31 96       	adiw	r30, 0x01	; 1
    185c:	ad b7       	in	r26, 0x3d	; 61
    185e:	be b7       	in	r27, 0x3e	; 62
    1860:	12 96       	adiw	r26, 0x02	; 2
    1862:	1c 92       	st	X, r1
    1864:	1e 92       	st	-X, r1
    1866:	11 97       	sbiw	r26, 0x01	; 1
    1868:	88 e0       	ldi	r24, 0x08	; 8
    186a:	92 e0       	ldi	r25, 0x02	; 2
    186c:	93 83       	std	Z+3, r25	; 0x03
    186e:	82 83       	std	Z+2, r24	; 0x02
    1870:	15 83       	std	Z+5, r17	; 0x05
    1872:	04 83       	std	Z+4, r16	; 0x04
    1874:	0e 94 75 08 	call	0x10ea	; 0x10ea <logger_log>
    1878:	8d b7       	in	r24, 0x3d	; 61
    187a:	9e b7       	in	r25, 0x3e	; 62
    187c:	06 96       	adiw	r24, 0x06	; 6
    187e:	0f b6       	in	r0, 0x3f	; 63
    1880:	f8 94       	cli
    1882:	9e bf       	out	0x3e, r25	; 62
    1884:	0f be       	out	0x3f, r0	; 63
    1886:	8d bf       	out	0x3d, r24	; 61
    1888:	c8 01       	movw	r24, r16
    188a:	0e 94 d6 0d 	call	0x1bac	; 0x1bac <srand>
    188e:	1f 91       	pop	r17
    1890:	0f 91       	pop	r16
    1892:	08 95       	ret

00001894 <__divmodhi4>:
    1894:	97 fb       	bst	r25, 7
    1896:	09 2e       	mov	r0, r25
    1898:	07 26       	eor	r0, r23
    189a:	0a d0       	rcall	.+20     	; 0x18b0 <__divmodhi4_neg1>
    189c:	77 fd       	sbrc	r23, 7
    189e:	04 d0       	rcall	.+8      	; 0x18a8 <__divmodhi4_neg2>
    18a0:	0c d0       	rcall	.+24     	; 0x18ba <__udivmodhi4>
    18a2:	06 d0       	rcall	.+12     	; 0x18b0 <__divmodhi4_neg1>
    18a4:	00 20       	and	r0, r0
    18a6:	1a f4       	brpl	.+6      	; 0x18ae <__divmodhi4_exit>

000018a8 <__divmodhi4_neg2>:
    18a8:	70 95       	com	r23
    18aa:	61 95       	neg	r22
    18ac:	7f 4f       	sbci	r23, 0xFF	; 255

000018ae <__divmodhi4_exit>:
    18ae:	08 95       	ret

000018b0 <__divmodhi4_neg1>:
    18b0:	f6 f7       	brtc	.-4      	; 0x18ae <__divmodhi4_exit>
    18b2:	90 95       	com	r25
    18b4:	81 95       	neg	r24
    18b6:	9f 4f       	sbci	r25, 0xFF	; 255
    18b8:	08 95       	ret

000018ba <__udivmodhi4>:
    18ba:	aa 1b       	sub	r26, r26
    18bc:	bb 1b       	sub	r27, r27
    18be:	51 e1       	ldi	r21, 0x11	; 17
    18c0:	07 c0       	rjmp	.+14     	; 0x18d0 <__udivmodhi4_ep>

000018c2 <__udivmodhi4_loop>:
    18c2:	aa 1f       	adc	r26, r26
    18c4:	bb 1f       	adc	r27, r27
    18c6:	a6 17       	cp	r26, r22
    18c8:	b7 07       	cpc	r27, r23
    18ca:	10 f0       	brcs	.+4      	; 0x18d0 <__udivmodhi4_ep>
    18cc:	a6 1b       	sub	r26, r22
    18ce:	b7 0b       	sbc	r27, r23

000018d0 <__udivmodhi4_ep>:
    18d0:	88 1f       	adc	r24, r24
    18d2:	99 1f       	adc	r25, r25
    18d4:	5a 95       	dec	r21
    18d6:	a9 f7       	brne	.-22     	; 0x18c2 <__udivmodhi4_loop>
    18d8:	80 95       	com	r24
    18da:	90 95       	com	r25
    18dc:	bc 01       	movw	r22, r24
    18de:	cd 01       	movw	r24, r26
    18e0:	08 95       	ret

000018e2 <malloc>:
    18e2:	cf 93       	push	r28
    18e4:	df 93       	push	r29
    18e6:	bc 01       	movw	r22, r24
    18e8:	82 30       	cpi	r24, 0x02	; 2
    18ea:	91 05       	cpc	r25, r1
    18ec:	10 f4       	brcc	.+4      	; 0x18f2 <malloc+0x10>
    18ee:	62 e0       	ldi	r22, 0x02	; 2
    18f0:	70 e0       	ldi	r23, 0x00	; 0
    18f2:	a0 91 8c 0e 	lds	r26, 0x0E8C
    18f6:	b0 91 8d 0e 	lds	r27, 0x0E8D
    18fa:	ed 01       	movw	r28, r26
    18fc:	e0 e0       	ldi	r30, 0x00	; 0
    18fe:	f0 e0       	ldi	r31, 0x00	; 0
    1900:	40 e0       	ldi	r20, 0x00	; 0
    1902:	50 e0       	ldi	r21, 0x00	; 0
    1904:	21 c0       	rjmp	.+66     	; 0x1948 <malloc+0x66>
    1906:	88 81       	ld	r24, Y
    1908:	99 81       	ldd	r25, Y+1	; 0x01
    190a:	86 17       	cp	r24, r22
    190c:	97 07       	cpc	r25, r23
    190e:	69 f4       	brne	.+26     	; 0x192a <malloc+0x48>
    1910:	8a 81       	ldd	r24, Y+2	; 0x02
    1912:	9b 81       	ldd	r25, Y+3	; 0x03
    1914:	30 97       	sbiw	r30, 0x00	; 0
    1916:	19 f0       	breq	.+6      	; 0x191e <malloc+0x3c>
    1918:	93 83       	std	Z+3, r25	; 0x03
    191a:	82 83       	std	Z+2, r24	; 0x02
    191c:	04 c0       	rjmp	.+8      	; 0x1926 <malloc+0x44>
    191e:	90 93 8d 0e 	sts	0x0E8D, r25
    1922:	80 93 8c 0e 	sts	0x0E8C, r24
    1926:	fe 01       	movw	r30, r28
    1928:	34 c0       	rjmp	.+104    	; 0x1992 <malloc+0xb0>
    192a:	68 17       	cp	r22, r24
    192c:	79 07       	cpc	r23, r25
    192e:	38 f4       	brcc	.+14     	; 0x193e <malloc+0x5c>
    1930:	41 15       	cp	r20, r1
    1932:	51 05       	cpc	r21, r1
    1934:	19 f0       	breq	.+6      	; 0x193c <malloc+0x5a>
    1936:	84 17       	cp	r24, r20
    1938:	95 07       	cpc	r25, r21
    193a:	08 f4       	brcc	.+2      	; 0x193e <malloc+0x5c>
    193c:	ac 01       	movw	r20, r24
    193e:	fe 01       	movw	r30, r28
    1940:	8a 81       	ldd	r24, Y+2	; 0x02
    1942:	9b 81       	ldd	r25, Y+3	; 0x03
    1944:	9c 01       	movw	r18, r24
    1946:	e9 01       	movw	r28, r18
    1948:	20 97       	sbiw	r28, 0x00	; 0
    194a:	e9 f6       	brne	.-70     	; 0x1906 <malloc+0x24>
    194c:	41 15       	cp	r20, r1
    194e:	51 05       	cpc	r21, r1
    1950:	a9 f1       	breq	.+106    	; 0x19bc <malloc+0xda>
    1952:	ca 01       	movw	r24, r20
    1954:	86 1b       	sub	r24, r22
    1956:	97 0b       	sbc	r25, r23
    1958:	04 97       	sbiw	r24, 0x04	; 4
    195a:	08 f4       	brcc	.+2      	; 0x195e <malloc+0x7c>
    195c:	ba 01       	movw	r22, r20
    195e:	e0 e0       	ldi	r30, 0x00	; 0
    1960:	f0 e0       	ldi	r31, 0x00	; 0
    1962:	2a c0       	rjmp	.+84     	; 0x19b8 <malloc+0xd6>
    1964:	8d 91       	ld	r24, X+
    1966:	9c 91       	ld	r25, X
    1968:	11 97       	sbiw	r26, 0x01	; 1
    196a:	84 17       	cp	r24, r20
    196c:	95 07       	cpc	r25, r21
    196e:	f9 f4       	brne	.+62     	; 0x19ae <malloc+0xcc>
    1970:	64 17       	cp	r22, r20
    1972:	75 07       	cpc	r23, r21
    1974:	81 f4       	brne	.+32     	; 0x1996 <malloc+0xb4>
    1976:	12 96       	adiw	r26, 0x02	; 2
    1978:	8d 91       	ld	r24, X+
    197a:	9c 91       	ld	r25, X
    197c:	13 97       	sbiw	r26, 0x03	; 3
    197e:	30 97       	sbiw	r30, 0x00	; 0
    1980:	19 f0       	breq	.+6      	; 0x1988 <malloc+0xa6>
    1982:	93 83       	std	Z+3, r25	; 0x03
    1984:	82 83       	std	Z+2, r24	; 0x02
    1986:	04 c0       	rjmp	.+8      	; 0x1990 <malloc+0xae>
    1988:	90 93 8d 0e 	sts	0x0E8D, r25
    198c:	80 93 8c 0e 	sts	0x0E8C, r24
    1990:	fd 01       	movw	r30, r26
    1992:	32 96       	adiw	r30, 0x02	; 2
    1994:	4f c0       	rjmp	.+158    	; 0x1a34 <malloc+0x152>
    1996:	ca 01       	movw	r24, r20
    1998:	86 1b       	sub	r24, r22
    199a:	97 0b       	sbc	r25, r23
    199c:	fd 01       	movw	r30, r26
    199e:	e8 0f       	add	r30, r24
    19a0:	f9 1f       	adc	r31, r25
    19a2:	61 93       	st	Z+, r22
    19a4:	71 93       	st	Z+, r23
    19a6:	02 97       	sbiw	r24, 0x02	; 2
    19a8:	8d 93       	st	X+, r24
    19aa:	9c 93       	st	X, r25
    19ac:	43 c0       	rjmp	.+134    	; 0x1a34 <malloc+0x152>
    19ae:	fd 01       	movw	r30, r26
    19b0:	82 81       	ldd	r24, Z+2	; 0x02
    19b2:	93 81       	ldd	r25, Z+3	; 0x03
    19b4:	9c 01       	movw	r18, r24
    19b6:	d9 01       	movw	r26, r18
    19b8:	10 97       	sbiw	r26, 0x00	; 0
    19ba:	a1 f6       	brne	.-88     	; 0x1964 <malloc+0x82>
    19bc:	80 91 8a 0e 	lds	r24, 0x0E8A
    19c0:	90 91 8b 0e 	lds	r25, 0x0E8B
    19c4:	89 2b       	or	r24, r25
    19c6:	41 f4       	brne	.+16     	; 0x19d8 <malloc+0xf6>
    19c8:	80 91 18 02 	lds	r24, 0x0218
    19cc:	90 91 19 02 	lds	r25, 0x0219
    19d0:	90 93 8b 0e 	sts	0x0E8B, r25
    19d4:	80 93 8a 0e 	sts	0x0E8A, r24
    19d8:	40 91 1a 02 	lds	r20, 0x021A
    19dc:	50 91 1b 02 	lds	r21, 0x021B
    19e0:	41 15       	cp	r20, r1
    19e2:	51 05       	cpc	r21, r1
    19e4:	41 f4       	brne	.+16     	; 0x19f6 <malloc+0x114>
    19e6:	4d b7       	in	r20, 0x3d	; 61
    19e8:	5e b7       	in	r21, 0x3e	; 62
    19ea:	80 91 16 02 	lds	r24, 0x0216
    19ee:	90 91 17 02 	lds	r25, 0x0217
    19f2:	48 1b       	sub	r20, r24
    19f4:	59 0b       	sbc	r21, r25
    19f6:	20 91 8a 0e 	lds	r18, 0x0E8A
    19fa:	30 91 8b 0e 	lds	r19, 0x0E8B
    19fe:	24 17       	cp	r18, r20
    1a00:	35 07       	cpc	r19, r21
    1a02:	b0 f4       	brcc	.+44     	; 0x1a30 <malloc+0x14e>
    1a04:	ca 01       	movw	r24, r20
    1a06:	82 1b       	sub	r24, r18
    1a08:	93 0b       	sbc	r25, r19
    1a0a:	86 17       	cp	r24, r22
    1a0c:	97 07       	cpc	r25, r23
    1a0e:	80 f0       	brcs	.+32     	; 0x1a30 <malloc+0x14e>
    1a10:	ab 01       	movw	r20, r22
    1a12:	4e 5f       	subi	r20, 0xFE	; 254
    1a14:	5f 4f       	sbci	r21, 0xFF	; 255
    1a16:	84 17       	cp	r24, r20
    1a18:	95 07       	cpc	r25, r21
    1a1a:	50 f0       	brcs	.+20     	; 0x1a30 <malloc+0x14e>
    1a1c:	42 0f       	add	r20, r18
    1a1e:	53 1f       	adc	r21, r19
    1a20:	50 93 8b 0e 	sts	0x0E8B, r21
    1a24:	40 93 8a 0e 	sts	0x0E8A, r20
    1a28:	f9 01       	movw	r30, r18
    1a2a:	61 93       	st	Z+, r22
    1a2c:	71 93       	st	Z+, r23
    1a2e:	02 c0       	rjmp	.+4      	; 0x1a34 <malloc+0x152>
    1a30:	e0 e0       	ldi	r30, 0x00	; 0
    1a32:	f0 e0       	ldi	r31, 0x00	; 0
    1a34:	cf 01       	movw	r24, r30
    1a36:	df 91       	pop	r29
    1a38:	cf 91       	pop	r28
    1a3a:	08 95       	ret

00001a3c <free>:
    1a3c:	cf 93       	push	r28
    1a3e:	df 93       	push	r29
    1a40:	00 97       	sbiw	r24, 0x00	; 0
    1a42:	09 f4       	brne	.+2      	; 0x1a46 <free+0xa>
    1a44:	50 c0       	rjmp	.+160    	; 0x1ae6 <free+0xaa>
    1a46:	ec 01       	movw	r28, r24
    1a48:	22 97       	sbiw	r28, 0x02	; 2
    1a4a:	1b 82       	std	Y+3, r1	; 0x03
    1a4c:	1a 82       	std	Y+2, r1	; 0x02
    1a4e:	a0 91 8c 0e 	lds	r26, 0x0E8C
    1a52:	b0 91 8d 0e 	lds	r27, 0x0E8D
    1a56:	10 97       	sbiw	r26, 0x00	; 0
    1a58:	09 f1       	breq	.+66     	; 0x1a9c <free+0x60>
    1a5a:	40 e0       	ldi	r20, 0x00	; 0
    1a5c:	50 e0       	ldi	r21, 0x00	; 0
    1a5e:	ac 17       	cp	r26, r28
    1a60:	bd 07       	cpc	r27, r29
    1a62:	08 f1       	brcs	.+66     	; 0x1aa6 <free+0x6a>
    1a64:	bb 83       	std	Y+3, r27	; 0x03
    1a66:	aa 83       	std	Y+2, r26	; 0x02
    1a68:	fe 01       	movw	r30, r28
    1a6a:	21 91       	ld	r18, Z+
    1a6c:	31 91       	ld	r19, Z+
    1a6e:	e2 0f       	add	r30, r18
    1a70:	f3 1f       	adc	r31, r19
    1a72:	ae 17       	cp	r26, r30
    1a74:	bf 07       	cpc	r27, r31
    1a76:	79 f4       	brne	.+30     	; 0x1a96 <free+0x5a>
    1a78:	8d 91       	ld	r24, X+
    1a7a:	9c 91       	ld	r25, X
    1a7c:	11 97       	sbiw	r26, 0x01	; 1
    1a7e:	28 0f       	add	r18, r24
    1a80:	39 1f       	adc	r19, r25
    1a82:	2e 5f       	subi	r18, 0xFE	; 254
    1a84:	3f 4f       	sbci	r19, 0xFF	; 255
    1a86:	39 83       	std	Y+1, r19	; 0x01
    1a88:	28 83       	st	Y, r18
    1a8a:	12 96       	adiw	r26, 0x02	; 2
    1a8c:	8d 91       	ld	r24, X+
    1a8e:	9c 91       	ld	r25, X
    1a90:	13 97       	sbiw	r26, 0x03	; 3
    1a92:	9b 83       	std	Y+3, r25	; 0x03
    1a94:	8a 83       	std	Y+2, r24	; 0x02
    1a96:	41 15       	cp	r20, r1
    1a98:	51 05       	cpc	r21, r1
    1a9a:	71 f4       	brne	.+28     	; 0x1ab8 <free+0x7c>
    1a9c:	d0 93 8d 0e 	sts	0x0E8D, r29
    1aa0:	c0 93 8c 0e 	sts	0x0E8C, r28
    1aa4:	20 c0       	rjmp	.+64     	; 0x1ae6 <free+0xaa>
    1aa6:	12 96       	adiw	r26, 0x02	; 2
    1aa8:	8d 91       	ld	r24, X+
    1aaa:	9c 91       	ld	r25, X
    1aac:	13 97       	sbiw	r26, 0x03	; 3
    1aae:	ad 01       	movw	r20, r26
    1ab0:	00 97       	sbiw	r24, 0x00	; 0
    1ab2:	11 f0       	breq	.+4      	; 0x1ab8 <free+0x7c>
    1ab4:	dc 01       	movw	r26, r24
    1ab6:	d3 cf       	rjmp	.-90     	; 0x1a5e <free+0x22>
    1ab8:	fa 01       	movw	r30, r20
    1aba:	d3 83       	std	Z+3, r29	; 0x03
    1abc:	c2 83       	std	Z+2, r28	; 0x02
    1abe:	21 91       	ld	r18, Z+
    1ac0:	31 91       	ld	r19, Z+
    1ac2:	e2 0f       	add	r30, r18
    1ac4:	f3 1f       	adc	r31, r19
    1ac6:	ce 17       	cp	r28, r30
    1ac8:	df 07       	cpc	r29, r31
    1aca:	69 f4       	brne	.+26     	; 0x1ae6 <free+0xaa>
    1acc:	88 81       	ld	r24, Y
    1ace:	99 81       	ldd	r25, Y+1	; 0x01
    1ad0:	28 0f       	add	r18, r24
    1ad2:	39 1f       	adc	r19, r25
    1ad4:	2e 5f       	subi	r18, 0xFE	; 254
    1ad6:	3f 4f       	sbci	r19, 0xFF	; 255
    1ad8:	fa 01       	movw	r30, r20
    1ada:	31 83       	std	Z+1, r19	; 0x01
    1adc:	20 83       	st	Z, r18
    1ade:	8a 81       	ldd	r24, Y+2	; 0x02
    1ae0:	9b 81       	ldd	r25, Y+3	; 0x03
    1ae2:	93 83       	std	Z+3, r25	; 0x03
    1ae4:	82 83       	std	Z+2, r24	; 0x02
    1ae6:	df 91       	pop	r29
    1ae8:	cf 91       	pop	r28
    1aea:	08 95       	ret

00001aec <do_rand>:
    1aec:	af 92       	push	r10
    1aee:	bf 92       	push	r11
    1af0:	cf 92       	push	r12
    1af2:	df 92       	push	r13
    1af4:	ef 92       	push	r14
    1af6:	ff 92       	push	r15
    1af8:	0f 93       	push	r16
    1afa:	1f 93       	push	r17
    1afc:	cf 93       	push	r28
    1afe:	df 93       	push	r29
    1b00:	ec 01       	movw	r28, r24
    1b02:	a8 80       	ld	r10, Y
    1b04:	b9 80       	ldd	r11, Y+1	; 0x01
    1b06:	ca 80       	ldd	r12, Y+2	; 0x02
    1b08:	db 80       	ldd	r13, Y+3	; 0x03
    1b0a:	a1 14       	cp	r10, r1
    1b0c:	b1 04       	cpc	r11, r1
    1b0e:	c1 04       	cpc	r12, r1
    1b10:	d1 04       	cpc	r13, r1
    1b12:	41 f4       	brne	.+16     	; 0x1b24 <do_rand+0x38>
    1b14:	84 e2       	ldi	r24, 0x24	; 36
    1b16:	a8 2e       	mov	r10, r24
    1b18:	89 ed       	ldi	r24, 0xD9	; 217
    1b1a:	b8 2e       	mov	r11, r24
    1b1c:	8b e5       	ldi	r24, 0x5B	; 91
    1b1e:	c8 2e       	mov	r12, r24
    1b20:	87 e0       	ldi	r24, 0x07	; 7
    1b22:	d8 2e       	mov	r13, r24
    1b24:	c6 01       	movw	r24, r12
    1b26:	b5 01       	movw	r22, r10
    1b28:	2d e1       	ldi	r18, 0x1D	; 29
    1b2a:	33 ef       	ldi	r19, 0xF3	; 243
    1b2c:	41 e0       	ldi	r20, 0x01	; 1
    1b2e:	50 e0       	ldi	r21, 0x00	; 0
    1b30:	0e 94 8c 11 	call	0x2318	; 0x2318 <__divmodsi4>
    1b34:	27 ea       	ldi	r18, 0xA7	; 167
    1b36:	31 e4       	ldi	r19, 0x41	; 65
    1b38:	40 e0       	ldi	r20, 0x00	; 0
    1b3a:	50 e0       	ldi	r21, 0x00	; 0
    1b3c:	0e 94 6d 11 	call	0x22da	; 0x22da <__mulsi3>
    1b40:	7b 01       	movw	r14, r22
    1b42:	8c 01       	movw	r16, r24
    1b44:	c6 01       	movw	r24, r12
    1b46:	b5 01       	movw	r22, r10
    1b48:	2d e1       	ldi	r18, 0x1D	; 29
    1b4a:	33 ef       	ldi	r19, 0xF3	; 243
    1b4c:	41 e0       	ldi	r20, 0x01	; 1
    1b4e:	50 e0       	ldi	r21, 0x00	; 0
    1b50:	0e 94 8c 11 	call	0x2318	; 0x2318 <__divmodsi4>
    1b54:	ca 01       	movw	r24, r20
    1b56:	b9 01       	movw	r22, r18
    1b58:	2c ee       	ldi	r18, 0xEC	; 236
    1b5a:	34 ef       	ldi	r19, 0xF4	; 244
    1b5c:	4f ef       	ldi	r20, 0xFF	; 255
    1b5e:	5f ef       	ldi	r21, 0xFF	; 255
    1b60:	0e 94 6d 11 	call	0x22da	; 0x22da <__mulsi3>
    1b64:	6e 0d       	add	r22, r14
    1b66:	7f 1d       	adc	r23, r15
    1b68:	80 1f       	adc	r24, r16
    1b6a:	91 1f       	adc	r25, r17
    1b6c:	97 ff       	sbrs	r25, 7
    1b6e:	04 c0       	rjmp	.+8      	; 0x1b78 <do_rand+0x8c>
    1b70:	61 50       	subi	r22, 0x01	; 1
    1b72:	70 40       	sbci	r23, 0x00	; 0
    1b74:	80 40       	sbci	r24, 0x00	; 0
    1b76:	90 48       	sbci	r25, 0x80	; 128
    1b78:	68 83       	st	Y, r22
    1b7a:	79 83       	std	Y+1, r23	; 0x01
    1b7c:	8a 83       	std	Y+2, r24	; 0x02
    1b7e:	9b 83       	std	Y+3, r25	; 0x03
    1b80:	9b 01       	movw	r18, r22
    1b82:	3f 77       	andi	r19, 0x7F	; 127
    1b84:	c9 01       	movw	r24, r18
    1b86:	df 91       	pop	r29
    1b88:	cf 91       	pop	r28
    1b8a:	1f 91       	pop	r17
    1b8c:	0f 91       	pop	r16
    1b8e:	ff 90       	pop	r15
    1b90:	ef 90       	pop	r14
    1b92:	df 90       	pop	r13
    1b94:	cf 90       	pop	r12
    1b96:	bf 90       	pop	r11
    1b98:	af 90       	pop	r10
    1b9a:	08 95       	ret

00001b9c <rand_r>:
    1b9c:	0e 94 76 0d 	call	0x1aec	; 0x1aec <do_rand>
    1ba0:	08 95       	ret

00001ba2 <rand>:
    1ba2:	8c e1       	ldi	r24, 0x1C	; 28
    1ba4:	92 e0       	ldi	r25, 0x02	; 2
    1ba6:	0e 94 76 0d 	call	0x1aec	; 0x1aec <do_rand>
    1baa:	08 95       	ret

00001bac <srand>:
    1bac:	a0 e0       	ldi	r26, 0x00	; 0
    1bae:	b0 e0       	ldi	r27, 0x00	; 0
    1bb0:	80 93 1c 02 	sts	0x021C, r24
    1bb4:	90 93 1d 02 	sts	0x021D, r25
    1bb8:	a0 93 1e 02 	sts	0x021E, r26
    1bbc:	b0 93 1f 02 	sts	0x021F, r27
    1bc0:	08 95       	ret

00001bc2 <abort>:
    1bc2:	81 e0       	ldi	r24, 0x01	; 1
    1bc4:	90 e0       	ldi	r25, 0x00	; 0
    1bc6:	f8 94       	cli
    1bc8:	0c 94 c9 11 	jmp	0x2392	; 0x2392 <_exit>

00001bcc <memcpy>:
    1bcc:	fb 01       	movw	r30, r22
    1bce:	dc 01       	movw	r26, r24
    1bd0:	02 c0       	rjmp	.+4      	; 0x1bd6 <memcpy+0xa>
    1bd2:	01 90       	ld	r0, Z+
    1bd4:	0d 92       	st	X+, r0
    1bd6:	41 50       	subi	r20, 0x01	; 1
    1bd8:	50 40       	sbci	r21, 0x00	; 0
    1bda:	d8 f7       	brcc	.-10     	; 0x1bd2 <memcpy+0x6>
    1bdc:	08 95       	ret

00001bde <strcmp>:
    1bde:	fb 01       	movw	r30, r22
    1be0:	dc 01       	movw	r26, r24
    1be2:	8d 91       	ld	r24, X+
    1be4:	01 90       	ld	r0, Z+
    1be6:	80 19       	sub	r24, r0
    1be8:	01 10       	cpse	r0, r1
    1bea:	d9 f3       	breq	.-10     	; 0x1be2 <strcmp+0x4>
    1bec:	99 0b       	sbc	r25, r25
    1bee:	08 95       	ret

00001bf0 <snprintf>:
    1bf0:	0f 93       	push	r16
    1bf2:	1f 93       	push	r17
    1bf4:	df 93       	push	r29
    1bf6:	cf 93       	push	r28
    1bf8:	cd b7       	in	r28, 0x3d	; 61
    1bfa:	de b7       	in	r29, 0x3e	; 62
    1bfc:	2e 97       	sbiw	r28, 0x0e	; 14
    1bfe:	0f b6       	in	r0, 0x3f	; 63
    1c00:	f8 94       	cli
    1c02:	de bf       	out	0x3e, r29	; 62
    1c04:	0f be       	out	0x3f, r0	; 63
    1c06:	cd bf       	out	0x3d, r28	; 61
    1c08:	0d 89       	ldd	r16, Y+21	; 0x15
    1c0a:	1e 89       	ldd	r17, Y+22	; 0x16
    1c0c:	8f 89       	ldd	r24, Y+23	; 0x17
    1c0e:	98 8d       	ldd	r25, Y+24	; 0x18
    1c10:	97 ff       	sbrs	r25, 7
    1c12:	02 c0       	rjmp	.+4      	; 0x1c18 <snprintf+0x28>
    1c14:	80 e0       	ldi	r24, 0x00	; 0
    1c16:	90 e8       	ldi	r25, 0x80	; 128
    1c18:	01 97       	sbiw	r24, 0x01	; 1
    1c1a:	9e 83       	std	Y+6, r25	; 0x06
    1c1c:	8d 83       	std	Y+5, r24	; 0x05
    1c1e:	1a 83       	std	Y+2, r17	; 0x02
    1c20:	09 83       	std	Y+1, r16	; 0x01
    1c22:	86 e0       	ldi	r24, 0x06	; 6
    1c24:	8c 83       	std	Y+4, r24	; 0x04
    1c26:	9e 01       	movw	r18, r28
    1c28:	25 5e       	subi	r18, 0xE5	; 229
    1c2a:	3f 4f       	sbci	r19, 0xFF	; 255
    1c2c:	ce 01       	movw	r24, r28
    1c2e:	01 96       	adiw	r24, 0x01	; 1
    1c30:	69 8d       	ldd	r22, Y+25	; 0x19
    1c32:	7a 8d       	ldd	r23, Y+26	; 0x1a
    1c34:	a9 01       	movw	r20, r18
    1c36:	0e 94 c7 0e 	call	0x1d8e	; 0x1d8e <vfprintf>
    1c3a:	4d 81       	ldd	r20, Y+5	; 0x05
    1c3c:	5e 81       	ldd	r21, Y+6	; 0x06
    1c3e:	57 fd       	sbrc	r21, 7
    1c40:	0a c0       	rjmp	.+20     	; 0x1c56 <snprintf+0x66>
    1c42:	2f 81       	ldd	r18, Y+7	; 0x07
    1c44:	38 85       	ldd	r19, Y+8	; 0x08
    1c46:	42 17       	cp	r20, r18
    1c48:	53 07       	cpc	r21, r19
    1c4a:	0c f4       	brge	.+2      	; 0x1c4e <snprintf+0x5e>
    1c4c:	9a 01       	movw	r18, r20
    1c4e:	02 0f       	add	r16, r18
    1c50:	13 1f       	adc	r17, r19
    1c52:	f8 01       	movw	r30, r16
    1c54:	10 82       	st	Z, r1
    1c56:	2e 96       	adiw	r28, 0x0e	; 14
    1c58:	0f b6       	in	r0, 0x3f	; 63
    1c5a:	f8 94       	cli
    1c5c:	de bf       	out	0x3e, r29	; 62
    1c5e:	0f be       	out	0x3f, r0	; 63
    1c60:	cd bf       	out	0x3d, r28	; 61
    1c62:	cf 91       	pop	r28
    1c64:	df 91       	pop	r29
    1c66:	1f 91       	pop	r17
    1c68:	0f 91       	pop	r16
    1c6a:	08 95       	ret

00001c6c <sprintf>:
    1c6c:	0f 93       	push	r16
    1c6e:	1f 93       	push	r17
    1c70:	df 93       	push	r29
    1c72:	cf 93       	push	r28
    1c74:	cd b7       	in	r28, 0x3d	; 61
    1c76:	de b7       	in	r29, 0x3e	; 62
    1c78:	2e 97       	sbiw	r28, 0x0e	; 14
    1c7a:	0f b6       	in	r0, 0x3f	; 63
    1c7c:	f8 94       	cli
    1c7e:	de bf       	out	0x3e, r29	; 62
    1c80:	0f be       	out	0x3f, r0	; 63
    1c82:	cd bf       	out	0x3d, r28	; 61
    1c84:	0d 89       	ldd	r16, Y+21	; 0x15
    1c86:	1e 89       	ldd	r17, Y+22	; 0x16
    1c88:	86 e0       	ldi	r24, 0x06	; 6
    1c8a:	8c 83       	std	Y+4, r24	; 0x04
    1c8c:	1a 83       	std	Y+2, r17	; 0x02
    1c8e:	09 83       	std	Y+1, r16	; 0x01
    1c90:	8f ef       	ldi	r24, 0xFF	; 255
    1c92:	9f e7       	ldi	r25, 0x7F	; 127
    1c94:	9e 83       	std	Y+6, r25	; 0x06
    1c96:	8d 83       	std	Y+5, r24	; 0x05
    1c98:	9e 01       	movw	r18, r28
    1c9a:	27 5e       	subi	r18, 0xE7	; 231
    1c9c:	3f 4f       	sbci	r19, 0xFF	; 255
    1c9e:	ce 01       	movw	r24, r28
    1ca0:	01 96       	adiw	r24, 0x01	; 1
    1ca2:	6f 89       	ldd	r22, Y+23	; 0x17
    1ca4:	78 8d       	ldd	r23, Y+24	; 0x18
    1ca6:	a9 01       	movw	r20, r18
    1ca8:	0e 94 c7 0e 	call	0x1d8e	; 0x1d8e <vfprintf>
    1cac:	2f 81       	ldd	r18, Y+7	; 0x07
    1cae:	38 85       	ldd	r19, Y+8	; 0x08
    1cb0:	02 0f       	add	r16, r18
    1cb2:	13 1f       	adc	r17, r19
    1cb4:	f8 01       	movw	r30, r16
    1cb6:	10 82       	st	Z, r1
    1cb8:	2e 96       	adiw	r28, 0x0e	; 14
    1cba:	0f b6       	in	r0, 0x3f	; 63
    1cbc:	f8 94       	cli
    1cbe:	de bf       	out	0x3e, r29	; 62
    1cc0:	0f be       	out	0x3f, r0	; 63
    1cc2:	cd bf       	out	0x3d, r28	; 61
    1cc4:	cf 91       	pop	r28
    1cc6:	df 91       	pop	r29
    1cc8:	1f 91       	pop	r17
    1cca:	0f 91       	pop	r16
    1ccc:	08 95       	ret

00001cce <vsnprintf>:
    1cce:	0f 93       	push	r16
    1cd0:	1f 93       	push	r17
    1cd2:	df 93       	push	r29
    1cd4:	cf 93       	push	r28
    1cd6:	cd b7       	in	r28, 0x3d	; 61
    1cd8:	de b7       	in	r29, 0x3e	; 62
    1cda:	2e 97       	sbiw	r28, 0x0e	; 14
    1cdc:	0f b6       	in	r0, 0x3f	; 63
    1cde:	f8 94       	cli
    1ce0:	de bf       	out	0x3e, r29	; 62
    1ce2:	0f be       	out	0x3f, r0	; 63
    1ce4:	cd bf       	out	0x3d, r28	; 61
    1ce6:	8c 01       	movw	r16, r24
    1ce8:	77 ff       	sbrs	r23, 7
    1cea:	02 c0       	rjmp	.+4      	; 0x1cf0 <vsnprintf+0x22>
    1cec:	60 e0       	ldi	r22, 0x00	; 0
    1cee:	70 e8       	ldi	r23, 0x80	; 128
    1cf0:	61 50       	subi	r22, 0x01	; 1
    1cf2:	70 40       	sbci	r23, 0x00	; 0
    1cf4:	7e 83       	std	Y+6, r23	; 0x06
    1cf6:	6d 83       	std	Y+5, r22	; 0x05
    1cf8:	1a 83       	std	Y+2, r17	; 0x02
    1cfa:	09 83       	std	Y+1, r16	; 0x01
    1cfc:	86 e0       	ldi	r24, 0x06	; 6
    1cfe:	8c 83       	std	Y+4, r24	; 0x04
    1d00:	ce 01       	movw	r24, r28
    1d02:	01 96       	adiw	r24, 0x01	; 1
    1d04:	ba 01       	movw	r22, r20
    1d06:	a9 01       	movw	r20, r18
    1d08:	0e 94 c7 0e 	call	0x1d8e	; 0x1d8e <vfprintf>
    1d0c:	2d 81       	ldd	r18, Y+5	; 0x05
    1d0e:	3e 81       	ldd	r19, Y+6	; 0x06
    1d10:	37 fd       	sbrc	r19, 7
    1d12:	09 c0       	rjmp	.+18     	; 0x1d26 <vsnprintf+0x58>
    1d14:	ef 81       	ldd	r30, Y+7	; 0x07
    1d16:	f8 85       	ldd	r31, Y+8	; 0x08
    1d18:	2e 17       	cp	r18, r30
    1d1a:	3f 07       	cpc	r19, r31
    1d1c:	0c f4       	brge	.+2      	; 0x1d20 <vsnprintf+0x52>
    1d1e:	f9 01       	movw	r30, r18
    1d20:	e0 0f       	add	r30, r16
    1d22:	f1 1f       	adc	r31, r17
    1d24:	10 82       	st	Z, r1
    1d26:	2e 96       	adiw	r28, 0x0e	; 14
    1d28:	0f b6       	in	r0, 0x3f	; 63
    1d2a:	f8 94       	cli
    1d2c:	de bf       	out	0x3e, r29	; 62
    1d2e:	0f be       	out	0x3f, r0	; 63
    1d30:	cd bf       	out	0x3d, r28	; 61
    1d32:	cf 91       	pop	r28
    1d34:	df 91       	pop	r29
    1d36:	1f 91       	pop	r17
    1d38:	0f 91       	pop	r16
    1d3a:	08 95       	ret

00001d3c <vsprintf>:
    1d3c:	0f 93       	push	r16
    1d3e:	1f 93       	push	r17
    1d40:	df 93       	push	r29
    1d42:	cf 93       	push	r28
    1d44:	cd b7       	in	r28, 0x3d	; 61
    1d46:	de b7       	in	r29, 0x3e	; 62
    1d48:	2e 97       	sbiw	r28, 0x0e	; 14
    1d4a:	0f b6       	in	r0, 0x3f	; 63
    1d4c:	f8 94       	cli
    1d4e:	de bf       	out	0x3e, r29	; 62
    1d50:	0f be       	out	0x3f, r0	; 63
    1d52:	cd bf       	out	0x3d, r28	; 61
    1d54:	8c 01       	movw	r16, r24
    1d56:	86 e0       	ldi	r24, 0x06	; 6
    1d58:	8c 83       	std	Y+4, r24	; 0x04
    1d5a:	1a 83       	std	Y+2, r17	; 0x02
    1d5c:	09 83       	std	Y+1, r16	; 0x01
    1d5e:	8f ef       	ldi	r24, 0xFF	; 255
    1d60:	9f e7       	ldi	r25, 0x7F	; 127
    1d62:	9e 83       	std	Y+6, r25	; 0x06
    1d64:	8d 83       	std	Y+5, r24	; 0x05
    1d66:	ce 01       	movw	r24, r28
    1d68:	01 96       	adiw	r24, 0x01	; 1
    1d6a:	0e 94 c7 0e 	call	0x1d8e	; 0x1d8e <vfprintf>
    1d6e:	ef 81       	ldd	r30, Y+7	; 0x07
    1d70:	f8 85       	ldd	r31, Y+8	; 0x08
    1d72:	e0 0f       	add	r30, r16
    1d74:	f1 1f       	adc	r31, r17
    1d76:	10 82       	st	Z, r1
    1d78:	2e 96       	adiw	r28, 0x0e	; 14
    1d7a:	0f b6       	in	r0, 0x3f	; 63
    1d7c:	f8 94       	cli
    1d7e:	de bf       	out	0x3e, r29	; 62
    1d80:	0f be       	out	0x3f, r0	; 63
    1d82:	cd bf       	out	0x3d, r28	; 61
    1d84:	cf 91       	pop	r28
    1d86:	df 91       	pop	r29
    1d88:	1f 91       	pop	r17
    1d8a:	0f 91       	pop	r16
    1d8c:	08 95       	ret

00001d8e <vfprintf>:
    1d8e:	2f 92       	push	r2
    1d90:	3f 92       	push	r3
    1d92:	4f 92       	push	r4
    1d94:	5f 92       	push	r5
    1d96:	6f 92       	push	r6
    1d98:	7f 92       	push	r7
    1d9a:	8f 92       	push	r8
    1d9c:	9f 92       	push	r9
    1d9e:	af 92       	push	r10
    1da0:	bf 92       	push	r11
    1da2:	cf 92       	push	r12
    1da4:	df 92       	push	r13
    1da6:	ef 92       	push	r14
    1da8:	ff 92       	push	r15
    1daa:	0f 93       	push	r16
    1dac:	1f 93       	push	r17
    1dae:	df 93       	push	r29
    1db0:	cf 93       	push	r28
    1db2:	cd b7       	in	r28, 0x3d	; 61
    1db4:	de b7       	in	r29, 0x3e	; 62
    1db6:	2b 97       	sbiw	r28, 0x0b	; 11
    1db8:	0f b6       	in	r0, 0x3f	; 63
    1dba:	f8 94       	cli
    1dbc:	de bf       	out	0x3e, r29	; 62
    1dbe:	0f be       	out	0x3f, r0	; 63
    1dc0:	cd bf       	out	0x3d, r28	; 61
    1dc2:	3c 01       	movw	r6, r24
    1dc4:	2b 01       	movw	r4, r22
    1dc6:	5a 01       	movw	r10, r20
    1dc8:	fc 01       	movw	r30, r24
    1dca:	17 82       	std	Z+7, r1	; 0x07
    1dcc:	16 82       	std	Z+6, r1	; 0x06
    1dce:	83 81       	ldd	r24, Z+3	; 0x03
    1dd0:	81 fd       	sbrc	r24, 1
    1dd2:	03 c0       	rjmp	.+6      	; 0x1dda <vfprintf+0x4c>
    1dd4:	6f ef       	ldi	r22, 0xFF	; 255
    1dd6:	7f ef       	ldi	r23, 0xFF	; 255
    1dd8:	c6 c1       	rjmp	.+908    	; 0x2166 <vfprintf+0x3d8>
    1dda:	9a e0       	ldi	r25, 0x0A	; 10
    1ddc:	89 2e       	mov	r8, r25
    1dde:	1e 01       	movw	r2, r28
    1de0:	08 94       	sec
    1de2:	21 1c       	adc	r2, r1
    1de4:	31 1c       	adc	r3, r1
    1de6:	f3 01       	movw	r30, r6
    1de8:	23 81       	ldd	r18, Z+3	; 0x03
    1dea:	f2 01       	movw	r30, r4
    1dec:	23 fd       	sbrc	r18, 3
    1dee:	85 91       	lpm	r24, Z+
    1df0:	23 ff       	sbrs	r18, 3
    1df2:	81 91       	ld	r24, Z+
    1df4:	2f 01       	movw	r4, r30
    1df6:	88 23       	and	r24, r24
    1df8:	09 f4       	brne	.+2      	; 0x1dfc <vfprintf+0x6e>
    1dfa:	b2 c1       	rjmp	.+868    	; 0x2160 <vfprintf+0x3d2>
    1dfc:	85 32       	cpi	r24, 0x25	; 37
    1dfe:	39 f4       	brne	.+14     	; 0x1e0e <vfprintf+0x80>
    1e00:	23 fd       	sbrc	r18, 3
    1e02:	85 91       	lpm	r24, Z+
    1e04:	23 ff       	sbrs	r18, 3
    1e06:	81 91       	ld	r24, Z+
    1e08:	2f 01       	movw	r4, r30
    1e0a:	85 32       	cpi	r24, 0x25	; 37
    1e0c:	29 f4       	brne	.+10     	; 0x1e18 <vfprintf+0x8a>
    1e0e:	90 e0       	ldi	r25, 0x00	; 0
    1e10:	b3 01       	movw	r22, r6
    1e12:	0e 94 e3 10 	call	0x21c6	; 0x21c6 <fputc>
    1e16:	e7 cf       	rjmp	.-50     	; 0x1de6 <vfprintf+0x58>
    1e18:	98 2f       	mov	r25, r24
    1e1a:	ff 24       	eor	r15, r15
    1e1c:	ee 24       	eor	r14, r14
    1e1e:	99 24       	eor	r9, r9
    1e20:	ff e1       	ldi	r31, 0x1F	; 31
    1e22:	ff 15       	cp	r31, r15
    1e24:	d0 f0       	brcs	.+52     	; 0x1e5a <vfprintf+0xcc>
    1e26:	9b 32       	cpi	r25, 0x2B	; 43
    1e28:	69 f0       	breq	.+26     	; 0x1e44 <vfprintf+0xb6>
    1e2a:	9c 32       	cpi	r25, 0x2C	; 44
    1e2c:	28 f4       	brcc	.+10     	; 0x1e38 <vfprintf+0xaa>
    1e2e:	90 32       	cpi	r25, 0x20	; 32
    1e30:	59 f0       	breq	.+22     	; 0x1e48 <vfprintf+0xba>
    1e32:	93 32       	cpi	r25, 0x23	; 35
    1e34:	91 f4       	brne	.+36     	; 0x1e5a <vfprintf+0xcc>
    1e36:	0e c0       	rjmp	.+28     	; 0x1e54 <vfprintf+0xc6>
    1e38:	9d 32       	cpi	r25, 0x2D	; 45
    1e3a:	49 f0       	breq	.+18     	; 0x1e4e <vfprintf+0xc0>
    1e3c:	90 33       	cpi	r25, 0x30	; 48
    1e3e:	69 f4       	brne	.+26     	; 0x1e5a <vfprintf+0xcc>
    1e40:	41 e0       	ldi	r20, 0x01	; 1
    1e42:	24 c0       	rjmp	.+72     	; 0x1e8c <vfprintf+0xfe>
    1e44:	52 e0       	ldi	r21, 0x02	; 2
    1e46:	f5 2a       	or	r15, r21
    1e48:	84 e0       	ldi	r24, 0x04	; 4
    1e4a:	f8 2a       	or	r15, r24
    1e4c:	28 c0       	rjmp	.+80     	; 0x1e9e <vfprintf+0x110>
    1e4e:	98 e0       	ldi	r25, 0x08	; 8
    1e50:	f9 2a       	or	r15, r25
    1e52:	25 c0       	rjmp	.+74     	; 0x1e9e <vfprintf+0x110>
    1e54:	e0 e1       	ldi	r30, 0x10	; 16
    1e56:	fe 2a       	or	r15, r30
    1e58:	22 c0       	rjmp	.+68     	; 0x1e9e <vfprintf+0x110>
    1e5a:	f7 fc       	sbrc	r15, 7
    1e5c:	29 c0       	rjmp	.+82     	; 0x1eb0 <vfprintf+0x122>
    1e5e:	89 2f       	mov	r24, r25
    1e60:	80 53       	subi	r24, 0x30	; 48
    1e62:	8a 30       	cpi	r24, 0x0A	; 10
    1e64:	70 f4       	brcc	.+28     	; 0x1e82 <vfprintf+0xf4>
    1e66:	f6 fe       	sbrs	r15, 6
    1e68:	05 c0       	rjmp	.+10     	; 0x1e74 <vfprintf+0xe6>
    1e6a:	98 9c       	mul	r9, r8
    1e6c:	90 2c       	mov	r9, r0
    1e6e:	11 24       	eor	r1, r1
    1e70:	98 0e       	add	r9, r24
    1e72:	15 c0       	rjmp	.+42     	; 0x1e9e <vfprintf+0x110>
    1e74:	e8 9c       	mul	r14, r8
    1e76:	e0 2c       	mov	r14, r0
    1e78:	11 24       	eor	r1, r1
    1e7a:	e8 0e       	add	r14, r24
    1e7c:	f0 e2       	ldi	r31, 0x20	; 32
    1e7e:	ff 2a       	or	r15, r31
    1e80:	0e c0       	rjmp	.+28     	; 0x1e9e <vfprintf+0x110>
    1e82:	9e 32       	cpi	r25, 0x2E	; 46
    1e84:	29 f4       	brne	.+10     	; 0x1e90 <vfprintf+0x102>
    1e86:	f6 fc       	sbrc	r15, 6
    1e88:	6b c1       	rjmp	.+726    	; 0x2160 <vfprintf+0x3d2>
    1e8a:	40 e4       	ldi	r20, 0x40	; 64
    1e8c:	f4 2a       	or	r15, r20
    1e8e:	07 c0       	rjmp	.+14     	; 0x1e9e <vfprintf+0x110>
    1e90:	9c 36       	cpi	r25, 0x6C	; 108
    1e92:	19 f4       	brne	.+6      	; 0x1e9a <vfprintf+0x10c>
    1e94:	50 e8       	ldi	r21, 0x80	; 128
    1e96:	f5 2a       	or	r15, r21
    1e98:	02 c0       	rjmp	.+4      	; 0x1e9e <vfprintf+0x110>
    1e9a:	98 36       	cpi	r25, 0x68	; 104
    1e9c:	49 f4       	brne	.+18     	; 0x1eb0 <vfprintf+0x122>
    1e9e:	f2 01       	movw	r30, r4
    1ea0:	23 fd       	sbrc	r18, 3
    1ea2:	95 91       	lpm	r25, Z+
    1ea4:	23 ff       	sbrs	r18, 3
    1ea6:	91 91       	ld	r25, Z+
    1ea8:	2f 01       	movw	r4, r30
    1eaa:	99 23       	and	r25, r25
    1eac:	09 f0       	breq	.+2      	; 0x1eb0 <vfprintf+0x122>
    1eae:	b8 cf       	rjmp	.-144    	; 0x1e20 <vfprintf+0x92>
    1eb0:	89 2f       	mov	r24, r25
    1eb2:	85 54       	subi	r24, 0x45	; 69
    1eb4:	83 30       	cpi	r24, 0x03	; 3
    1eb6:	18 f0       	brcs	.+6      	; 0x1ebe <vfprintf+0x130>
    1eb8:	80 52       	subi	r24, 0x20	; 32
    1eba:	83 30       	cpi	r24, 0x03	; 3
    1ebc:	38 f4       	brcc	.+14     	; 0x1ecc <vfprintf+0x13e>
    1ebe:	44 e0       	ldi	r20, 0x04	; 4
    1ec0:	50 e0       	ldi	r21, 0x00	; 0
    1ec2:	a4 0e       	add	r10, r20
    1ec4:	b5 1e       	adc	r11, r21
    1ec6:	5f e3       	ldi	r21, 0x3F	; 63
    1ec8:	59 83       	std	Y+1, r21	; 0x01
    1eca:	0f c0       	rjmp	.+30     	; 0x1eea <vfprintf+0x15c>
    1ecc:	93 36       	cpi	r25, 0x63	; 99
    1ece:	31 f0       	breq	.+12     	; 0x1edc <vfprintf+0x14e>
    1ed0:	93 37       	cpi	r25, 0x73	; 115
    1ed2:	79 f0       	breq	.+30     	; 0x1ef2 <vfprintf+0x164>
    1ed4:	93 35       	cpi	r25, 0x53	; 83
    1ed6:	09 f0       	breq	.+2      	; 0x1eda <vfprintf+0x14c>
    1ed8:	56 c0       	rjmp	.+172    	; 0x1f86 <vfprintf+0x1f8>
    1eda:	20 c0       	rjmp	.+64     	; 0x1f1c <vfprintf+0x18e>
    1edc:	f5 01       	movw	r30, r10
    1ede:	80 81       	ld	r24, Z
    1ee0:	89 83       	std	Y+1, r24	; 0x01
    1ee2:	42 e0       	ldi	r20, 0x02	; 2
    1ee4:	50 e0       	ldi	r21, 0x00	; 0
    1ee6:	a4 0e       	add	r10, r20
    1ee8:	b5 1e       	adc	r11, r21
    1eea:	61 01       	movw	r12, r2
    1eec:	01 e0       	ldi	r16, 0x01	; 1
    1eee:	10 e0       	ldi	r17, 0x00	; 0
    1ef0:	12 c0       	rjmp	.+36     	; 0x1f16 <vfprintf+0x188>
    1ef2:	f5 01       	movw	r30, r10
    1ef4:	c0 80       	ld	r12, Z
    1ef6:	d1 80       	ldd	r13, Z+1	; 0x01
    1ef8:	f6 fc       	sbrc	r15, 6
    1efa:	03 c0       	rjmp	.+6      	; 0x1f02 <vfprintf+0x174>
    1efc:	6f ef       	ldi	r22, 0xFF	; 255
    1efe:	7f ef       	ldi	r23, 0xFF	; 255
    1f00:	02 c0       	rjmp	.+4      	; 0x1f06 <vfprintf+0x178>
    1f02:	69 2d       	mov	r22, r9
    1f04:	70 e0       	ldi	r23, 0x00	; 0
    1f06:	42 e0       	ldi	r20, 0x02	; 2
    1f08:	50 e0       	ldi	r21, 0x00	; 0
    1f0a:	a4 0e       	add	r10, r20
    1f0c:	b5 1e       	adc	r11, r21
    1f0e:	c6 01       	movw	r24, r12
    1f10:	0e 94 d8 10 	call	0x21b0	; 0x21b0 <strnlen>
    1f14:	8c 01       	movw	r16, r24
    1f16:	5f e7       	ldi	r21, 0x7F	; 127
    1f18:	f5 22       	and	r15, r21
    1f1a:	14 c0       	rjmp	.+40     	; 0x1f44 <vfprintf+0x1b6>
    1f1c:	f5 01       	movw	r30, r10
    1f1e:	c0 80       	ld	r12, Z
    1f20:	d1 80       	ldd	r13, Z+1	; 0x01
    1f22:	f6 fc       	sbrc	r15, 6
    1f24:	03 c0       	rjmp	.+6      	; 0x1f2c <vfprintf+0x19e>
    1f26:	6f ef       	ldi	r22, 0xFF	; 255
    1f28:	7f ef       	ldi	r23, 0xFF	; 255
    1f2a:	02 c0       	rjmp	.+4      	; 0x1f30 <vfprintf+0x1a2>
    1f2c:	69 2d       	mov	r22, r9
    1f2e:	70 e0       	ldi	r23, 0x00	; 0
    1f30:	42 e0       	ldi	r20, 0x02	; 2
    1f32:	50 e0       	ldi	r21, 0x00	; 0
    1f34:	a4 0e       	add	r10, r20
    1f36:	b5 1e       	adc	r11, r21
    1f38:	c6 01       	movw	r24, r12
    1f3a:	0e 94 cd 10 	call	0x219a	; 0x219a <strnlen_P>
    1f3e:	8c 01       	movw	r16, r24
    1f40:	50 e8       	ldi	r21, 0x80	; 128
    1f42:	f5 2a       	or	r15, r21
    1f44:	f3 fe       	sbrs	r15, 3
    1f46:	07 c0       	rjmp	.+14     	; 0x1f56 <vfprintf+0x1c8>
    1f48:	1a c0       	rjmp	.+52     	; 0x1f7e <vfprintf+0x1f0>
    1f4a:	80 e2       	ldi	r24, 0x20	; 32
    1f4c:	90 e0       	ldi	r25, 0x00	; 0
    1f4e:	b3 01       	movw	r22, r6
    1f50:	0e 94 e3 10 	call	0x21c6	; 0x21c6 <fputc>
    1f54:	ea 94       	dec	r14
    1f56:	8e 2d       	mov	r24, r14
    1f58:	90 e0       	ldi	r25, 0x00	; 0
    1f5a:	08 17       	cp	r16, r24
    1f5c:	19 07       	cpc	r17, r25
    1f5e:	a8 f3       	brcs	.-22     	; 0x1f4a <vfprintf+0x1bc>
    1f60:	0e c0       	rjmp	.+28     	; 0x1f7e <vfprintf+0x1f0>
    1f62:	f6 01       	movw	r30, r12
    1f64:	f7 fc       	sbrc	r15, 7
    1f66:	85 91       	lpm	r24, Z+
    1f68:	f7 fe       	sbrs	r15, 7
    1f6a:	81 91       	ld	r24, Z+
    1f6c:	6f 01       	movw	r12, r30
    1f6e:	90 e0       	ldi	r25, 0x00	; 0
    1f70:	b3 01       	movw	r22, r6
    1f72:	0e 94 e3 10 	call	0x21c6	; 0x21c6 <fputc>
    1f76:	e1 10       	cpse	r14, r1
    1f78:	ea 94       	dec	r14
    1f7a:	01 50       	subi	r16, 0x01	; 1
    1f7c:	10 40       	sbci	r17, 0x00	; 0
    1f7e:	01 15       	cp	r16, r1
    1f80:	11 05       	cpc	r17, r1
    1f82:	79 f7       	brne	.-34     	; 0x1f62 <vfprintf+0x1d4>
    1f84:	ea c0       	rjmp	.+468    	; 0x215a <vfprintf+0x3cc>
    1f86:	94 36       	cpi	r25, 0x64	; 100
    1f88:	11 f0       	breq	.+4      	; 0x1f8e <vfprintf+0x200>
    1f8a:	99 36       	cpi	r25, 0x69	; 105
    1f8c:	69 f5       	brne	.+90     	; 0x1fe8 <vfprintf+0x25a>
    1f8e:	f7 fe       	sbrs	r15, 7
    1f90:	08 c0       	rjmp	.+16     	; 0x1fa2 <vfprintf+0x214>
    1f92:	f5 01       	movw	r30, r10
    1f94:	20 81       	ld	r18, Z
    1f96:	31 81       	ldd	r19, Z+1	; 0x01
    1f98:	42 81       	ldd	r20, Z+2	; 0x02
    1f9a:	53 81       	ldd	r21, Z+3	; 0x03
    1f9c:	84 e0       	ldi	r24, 0x04	; 4
    1f9e:	90 e0       	ldi	r25, 0x00	; 0
    1fa0:	0a c0       	rjmp	.+20     	; 0x1fb6 <vfprintf+0x228>
    1fa2:	f5 01       	movw	r30, r10
    1fa4:	80 81       	ld	r24, Z
    1fa6:	91 81       	ldd	r25, Z+1	; 0x01
    1fa8:	9c 01       	movw	r18, r24
    1faa:	44 27       	eor	r20, r20
    1fac:	37 fd       	sbrc	r19, 7
    1fae:	40 95       	com	r20
    1fb0:	54 2f       	mov	r21, r20
    1fb2:	82 e0       	ldi	r24, 0x02	; 2
    1fb4:	90 e0       	ldi	r25, 0x00	; 0
    1fb6:	a8 0e       	add	r10, r24
    1fb8:	b9 1e       	adc	r11, r25
    1fba:	9f e6       	ldi	r25, 0x6F	; 111
    1fbc:	f9 22       	and	r15, r25
    1fbe:	57 ff       	sbrs	r21, 7
    1fc0:	09 c0       	rjmp	.+18     	; 0x1fd4 <vfprintf+0x246>
    1fc2:	50 95       	com	r21
    1fc4:	40 95       	com	r20
    1fc6:	30 95       	com	r19
    1fc8:	21 95       	neg	r18
    1fca:	3f 4f       	sbci	r19, 0xFF	; 255
    1fcc:	4f 4f       	sbci	r20, 0xFF	; 255
    1fce:	5f 4f       	sbci	r21, 0xFF	; 255
    1fd0:	e0 e8       	ldi	r30, 0x80	; 128
    1fd2:	fe 2a       	or	r15, r30
    1fd4:	ca 01       	movw	r24, r20
    1fd6:	b9 01       	movw	r22, r18
    1fd8:	a1 01       	movw	r20, r2
    1fda:	2a e0       	ldi	r18, 0x0A	; 10
    1fdc:	30 e0       	ldi	r19, 0x00	; 0
    1fde:	0e 94 0f 11 	call	0x221e	; 0x221e <__ultoa_invert>
    1fe2:	d8 2e       	mov	r13, r24
    1fe4:	d2 18       	sub	r13, r2
    1fe6:	40 c0       	rjmp	.+128    	; 0x2068 <vfprintf+0x2da>
    1fe8:	95 37       	cpi	r25, 0x75	; 117
    1fea:	29 f4       	brne	.+10     	; 0x1ff6 <vfprintf+0x268>
    1fec:	1f 2d       	mov	r17, r15
    1fee:	1f 7e       	andi	r17, 0xEF	; 239
    1ff0:	2a e0       	ldi	r18, 0x0A	; 10
    1ff2:	30 e0       	ldi	r19, 0x00	; 0
    1ff4:	1d c0       	rjmp	.+58     	; 0x2030 <vfprintf+0x2a2>
    1ff6:	1f 2d       	mov	r17, r15
    1ff8:	19 7f       	andi	r17, 0xF9	; 249
    1ffa:	9f 36       	cpi	r25, 0x6F	; 111
    1ffc:	61 f0       	breq	.+24     	; 0x2016 <vfprintf+0x288>
    1ffe:	90 37       	cpi	r25, 0x70	; 112
    2000:	20 f4       	brcc	.+8      	; 0x200a <vfprintf+0x27c>
    2002:	98 35       	cpi	r25, 0x58	; 88
    2004:	09 f0       	breq	.+2      	; 0x2008 <vfprintf+0x27a>
    2006:	ac c0       	rjmp	.+344    	; 0x2160 <vfprintf+0x3d2>
    2008:	0f c0       	rjmp	.+30     	; 0x2028 <vfprintf+0x29a>
    200a:	90 37       	cpi	r25, 0x70	; 112
    200c:	39 f0       	breq	.+14     	; 0x201c <vfprintf+0x28e>
    200e:	98 37       	cpi	r25, 0x78	; 120
    2010:	09 f0       	breq	.+2      	; 0x2014 <vfprintf+0x286>
    2012:	a6 c0       	rjmp	.+332    	; 0x2160 <vfprintf+0x3d2>
    2014:	04 c0       	rjmp	.+8      	; 0x201e <vfprintf+0x290>
    2016:	28 e0       	ldi	r18, 0x08	; 8
    2018:	30 e0       	ldi	r19, 0x00	; 0
    201a:	0a c0       	rjmp	.+20     	; 0x2030 <vfprintf+0x2a2>
    201c:	10 61       	ori	r17, 0x10	; 16
    201e:	14 fd       	sbrc	r17, 4
    2020:	14 60       	ori	r17, 0x04	; 4
    2022:	20 e1       	ldi	r18, 0x10	; 16
    2024:	30 e0       	ldi	r19, 0x00	; 0
    2026:	04 c0       	rjmp	.+8      	; 0x2030 <vfprintf+0x2a2>
    2028:	14 fd       	sbrc	r17, 4
    202a:	16 60       	ori	r17, 0x06	; 6
    202c:	20 e1       	ldi	r18, 0x10	; 16
    202e:	32 e0       	ldi	r19, 0x02	; 2
    2030:	17 ff       	sbrs	r17, 7
    2032:	08 c0       	rjmp	.+16     	; 0x2044 <vfprintf+0x2b6>
    2034:	f5 01       	movw	r30, r10
    2036:	60 81       	ld	r22, Z
    2038:	71 81       	ldd	r23, Z+1	; 0x01
    203a:	82 81       	ldd	r24, Z+2	; 0x02
    203c:	93 81       	ldd	r25, Z+3	; 0x03
    203e:	44 e0       	ldi	r20, 0x04	; 4
    2040:	50 e0       	ldi	r21, 0x00	; 0
    2042:	08 c0       	rjmp	.+16     	; 0x2054 <vfprintf+0x2c6>
    2044:	f5 01       	movw	r30, r10
    2046:	80 81       	ld	r24, Z
    2048:	91 81       	ldd	r25, Z+1	; 0x01
    204a:	bc 01       	movw	r22, r24
    204c:	80 e0       	ldi	r24, 0x00	; 0
    204e:	90 e0       	ldi	r25, 0x00	; 0
    2050:	42 e0       	ldi	r20, 0x02	; 2
    2052:	50 e0       	ldi	r21, 0x00	; 0
    2054:	a4 0e       	add	r10, r20
    2056:	b5 1e       	adc	r11, r21
    2058:	a1 01       	movw	r20, r2
    205a:	0e 94 0f 11 	call	0x221e	; 0x221e <__ultoa_invert>
    205e:	d8 2e       	mov	r13, r24
    2060:	d2 18       	sub	r13, r2
    2062:	8f e7       	ldi	r24, 0x7F	; 127
    2064:	f8 2e       	mov	r15, r24
    2066:	f1 22       	and	r15, r17
    2068:	f6 fe       	sbrs	r15, 6
    206a:	0b c0       	rjmp	.+22     	; 0x2082 <vfprintf+0x2f4>
    206c:	5e ef       	ldi	r21, 0xFE	; 254
    206e:	f5 22       	and	r15, r21
    2070:	d9 14       	cp	r13, r9
    2072:	38 f4       	brcc	.+14     	; 0x2082 <vfprintf+0x2f4>
    2074:	f4 fe       	sbrs	r15, 4
    2076:	07 c0       	rjmp	.+14     	; 0x2086 <vfprintf+0x2f8>
    2078:	f2 fc       	sbrc	r15, 2
    207a:	05 c0       	rjmp	.+10     	; 0x2086 <vfprintf+0x2f8>
    207c:	8f ee       	ldi	r24, 0xEF	; 239
    207e:	f8 22       	and	r15, r24
    2080:	02 c0       	rjmp	.+4      	; 0x2086 <vfprintf+0x2f8>
    2082:	1d 2d       	mov	r17, r13
    2084:	01 c0       	rjmp	.+2      	; 0x2088 <vfprintf+0x2fa>
    2086:	19 2d       	mov	r17, r9
    2088:	f4 fe       	sbrs	r15, 4
    208a:	0d c0       	rjmp	.+26     	; 0x20a6 <vfprintf+0x318>
    208c:	fe 01       	movw	r30, r28
    208e:	ed 0d       	add	r30, r13
    2090:	f1 1d       	adc	r31, r1
    2092:	80 81       	ld	r24, Z
    2094:	80 33       	cpi	r24, 0x30	; 48
    2096:	19 f4       	brne	.+6      	; 0x209e <vfprintf+0x310>
    2098:	99 ee       	ldi	r25, 0xE9	; 233
    209a:	f9 22       	and	r15, r25
    209c:	08 c0       	rjmp	.+16     	; 0x20ae <vfprintf+0x320>
    209e:	1f 5f       	subi	r17, 0xFF	; 255
    20a0:	f2 fe       	sbrs	r15, 2
    20a2:	05 c0       	rjmp	.+10     	; 0x20ae <vfprintf+0x320>
    20a4:	03 c0       	rjmp	.+6      	; 0x20ac <vfprintf+0x31e>
    20a6:	8f 2d       	mov	r24, r15
    20a8:	86 78       	andi	r24, 0x86	; 134
    20aa:	09 f0       	breq	.+2      	; 0x20ae <vfprintf+0x320>
    20ac:	1f 5f       	subi	r17, 0xFF	; 255
    20ae:	0f 2d       	mov	r16, r15
    20b0:	f3 fc       	sbrc	r15, 3
    20b2:	14 c0       	rjmp	.+40     	; 0x20dc <vfprintf+0x34e>
    20b4:	f0 fe       	sbrs	r15, 0
    20b6:	0f c0       	rjmp	.+30     	; 0x20d6 <vfprintf+0x348>
    20b8:	1e 15       	cp	r17, r14
    20ba:	10 f0       	brcs	.+4      	; 0x20c0 <vfprintf+0x332>
    20bc:	9d 2c       	mov	r9, r13
    20be:	0b c0       	rjmp	.+22     	; 0x20d6 <vfprintf+0x348>
    20c0:	9d 2c       	mov	r9, r13
    20c2:	9e 0c       	add	r9, r14
    20c4:	91 1a       	sub	r9, r17
    20c6:	1e 2d       	mov	r17, r14
    20c8:	06 c0       	rjmp	.+12     	; 0x20d6 <vfprintf+0x348>
    20ca:	80 e2       	ldi	r24, 0x20	; 32
    20cc:	90 e0       	ldi	r25, 0x00	; 0
    20ce:	b3 01       	movw	r22, r6
    20d0:	0e 94 e3 10 	call	0x21c6	; 0x21c6 <fputc>
    20d4:	1f 5f       	subi	r17, 0xFF	; 255
    20d6:	1e 15       	cp	r17, r14
    20d8:	c0 f3       	brcs	.-16     	; 0x20ca <vfprintf+0x33c>
    20da:	04 c0       	rjmp	.+8      	; 0x20e4 <vfprintf+0x356>
    20dc:	1e 15       	cp	r17, r14
    20de:	10 f4       	brcc	.+4      	; 0x20e4 <vfprintf+0x356>
    20e0:	e1 1a       	sub	r14, r17
    20e2:	01 c0       	rjmp	.+2      	; 0x20e6 <vfprintf+0x358>
    20e4:	ee 24       	eor	r14, r14
    20e6:	04 ff       	sbrs	r16, 4
    20e8:	0f c0       	rjmp	.+30     	; 0x2108 <vfprintf+0x37a>
    20ea:	80 e3       	ldi	r24, 0x30	; 48
    20ec:	90 e0       	ldi	r25, 0x00	; 0
    20ee:	b3 01       	movw	r22, r6
    20f0:	0e 94 e3 10 	call	0x21c6	; 0x21c6 <fputc>
    20f4:	02 ff       	sbrs	r16, 2
    20f6:	1d c0       	rjmp	.+58     	; 0x2132 <vfprintf+0x3a4>
    20f8:	01 fd       	sbrc	r16, 1
    20fa:	03 c0       	rjmp	.+6      	; 0x2102 <vfprintf+0x374>
    20fc:	88 e7       	ldi	r24, 0x78	; 120
    20fe:	90 e0       	ldi	r25, 0x00	; 0
    2100:	0e c0       	rjmp	.+28     	; 0x211e <vfprintf+0x390>
    2102:	88 e5       	ldi	r24, 0x58	; 88
    2104:	90 e0       	ldi	r25, 0x00	; 0
    2106:	0b c0       	rjmp	.+22     	; 0x211e <vfprintf+0x390>
    2108:	80 2f       	mov	r24, r16
    210a:	86 78       	andi	r24, 0x86	; 134
    210c:	91 f0       	breq	.+36     	; 0x2132 <vfprintf+0x3a4>
    210e:	01 ff       	sbrs	r16, 1
    2110:	02 c0       	rjmp	.+4      	; 0x2116 <vfprintf+0x388>
    2112:	8b e2       	ldi	r24, 0x2B	; 43
    2114:	01 c0       	rjmp	.+2      	; 0x2118 <vfprintf+0x38a>
    2116:	80 e2       	ldi	r24, 0x20	; 32
    2118:	f7 fc       	sbrc	r15, 7
    211a:	8d e2       	ldi	r24, 0x2D	; 45
    211c:	90 e0       	ldi	r25, 0x00	; 0
    211e:	b3 01       	movw	r22, r6
    2120:	0e 94 e3 10 	call	0x21c6	; 0x21c6 <fputc>
    2124:	06 c0       	rjmp	.+12     	; 0x2132 <vfprintf+0x3a4>
    2126:	80 e3       	ldi	r24, 0x30	; 48
    2128:	90 e0       	ldi	r25, 0x00	; 0
    212a:	b3 01       	movw	r22, r6
    212c:	0e 94 e3 10 	call	0x21c6	; 0x21c6 <fputc>
    2130:	9a 94       	dec	r9
    2132:	d9 14       	cp	r13, r9
    2134:	c0 f3       	brcs	.-16     	; 0x2126 <vfprintf+0x398>
    2136:	da 94       	dec	r13
    2138:	f1 01       	movw	r30, r2
    213a:	ed 0d       	add	r30, r13
    213c:	f1 1d       	adc	r31, r1
    213e:	80 81       	ld	r24, Z
    2140:	90 e0       	ldi	r25, 0x00	; 0
    2142:	b3 01       	movw	r22, r6
    2144:	0e 94 e3 10 	call	0x21c6	; 0x21c6 <fputc>
    2148:	dd 20       	and	r13, r13
    214a:	a9 f7       	brne	.-22     	; 0x2136 <vfprintf+0x3a8>
    214c:	06 c0       	rjmp	.+12     	; 0x215a <vfprintf+0x3cc>
    214e:	80 e2       	ldi	r24, 0x20	; 32
    2150:	90 e0       	ldi	r25, 0x00	; 0
    2152:	b3 01       	movw	r22, r6
    2154:	0e 94 e3 10 	call	0x21c6	; 0x21c6 <fputc>
    2158:	ea 94       	dec	r14
    215a:	ee 20       	and	r14, r14
    215c:	c1 f7       	brne	.-16     	; 0x214e <vfprintf+0x3c0>
    215e:	43 ce       	rjmp	.-890    	; 0x1de6 <vfprintf+0x58>
    2160:	f3 01       	movw	r30, r6
    2162:	66 81       	ldd	r22, Z+6	; 0x06
    2164:	77 81       	ldd	r23, Z+7	; 0x07
    2166:	cb 01       	movw	r24, r22
    2168:	2b 96       	adiw	r28, 0x0b	; 11
    216a:	0f b6       	in	r0, 0x3f	; 63
    216c:	f8 94       	cli
    216e:	de bf       	out	0x3e, r29	; 62
    2170:	0f be       	out	0x3f, r0	; 63
    2172:	cd bf       	out	0x3d, r28	; 61
    2174:	cf 91       	pop	r28
    2176:	df 91       	pop	r29
    2178:	1f 91       	pop	r17
    217a:	0f 91       	pop	r16
    217c:	ff 90       	pop	r15
    217e:	ef 90       	pop	r14
    2180:	df 90       	pop	r13
    2182:	cf 90       	pop	r12
    2184:	bf 90       	pop	r11
    2186:	af 90       	pop	r10
    2188:	9f 90       	pop	r9
    218a:	8f 90       	pop	r8
    218c:	7f 90       	pop	r7
    218e:	6f 90       	pop	r6
    2190:	5f 90       	pop	r5
    2192:	4f 90       	pop	r4
    2194:	3f 90       	pop	r3
    2196:	2f 90       	pop	r2
    2198:	08 95       	ret

0000219a <strnlen_P>:
    219a:	fc 01       	movw	r30, r24
    219c:	05 90       	lpm	r0, Z+
    219e:	61 50       	subi	r22, 0x01	; 1
    21a0:	70 40       	sbci	r23, 0x00	; 0
    21a2:	01 10       	cpse	r0, r1
    21a4:	d8 f7       	brcc	.-10     	; 0x219c <strnlen_P+0x2>
    21a6:	80 95       	com	r24
    21a8:	90 95       	com	r25
    21aa:	8e 0f       	add	r24, r30
    21ac:	9f 1f       	adc	r25, r31
    21ae:	08 95       	ret

000021b0 <strnlen>:
    21b0:	fc 01       	movw	r30, r24
    21b2:	61 50       	subi	r22, 0x01	; 1
    21b4:	70 40       	sbci	r23, 0x00	; 0
    21b6:	01 90       	ld	r0, Z+
    21b8:	01 10       	cpse	r0, r1
    21ba:	d8 f7       	brcc	.-10     	; 0x21b2 <strnlen+0x2>
    21bc:	80 95       	com	r24
    21be:	90 95       	com	r25
    21c0:	8e 0f       	add	r24, r30
    21c2:	9f 1f       	adc	r25, r31
    21c4:	08 95       	ret

000021c6 <fputc>:
    21c6:	0f 93       	push	r16
    21c8:	1f 93       	push	r17
    21ca:	cf 93       	push	r28
    21cc:	df 93       	push	r29
    21ce:	8c 01       	movw	r16, r24
    21d0:	eb 01       	movw	r28, r22
    21d2:	8b 81       	ldd	r24, Y+3	; 0x03
    21d4:	81 ff       	sbrs	r24, 1
    21d6:	1b c0       	rjmp	.+54     	; 0x220e <fputc+0x48>
    21d8:	82 ff       	sbrs	r24, 2
    21da:	0d c0       	rjmp	.+26     	; 0x21f6 <fputc+0x30>
    21dc:	2e 81       	ldd	r18, Y+6	; 0x06
    21de:	3f 81       	ldd	r19, Y+7	; 0x07
    21e0:	8c 81       	ldd	r24, Y+4	; 0x04
    21e2:	9d 81       	ldd	r25, Y+5	; 0x05
    21e4:	28 17       	cp	r18, r24
    21e6:	39 07       	cpc	r19, r25
    21e8:	64 f4       	brge	.+24     	; 0x2202 <fputc+0x3c>
    21ea:	e8 81       	ld	r30, Y
    21ec:	f9 81       	ldd	r31, Y+1	; 0x01
    21ee:	01 93       	st	Z+, r16
    21f0:	f9 83       	std	Y+1, r31	; 0x01
    21f2:	e8 83       	st	Y, r30
    21f4:	06 c0       	rjmp	.+12     	; 0x2202 <fputc+0x3c>
    21f6:	e8 85       	ldd	r30, Y+8	; 0x08
    21f8:	f9 85       	ldd	r31, Y+9	; 0x09
    21fa:	80 2f       	mov	r24, r16
    21fc:	09 95       	icall
    21fe:	89 2b       	or	r24, r25
    2200:	31 f4       	brne	.+12     	; 0x220e <fputc+0x48>
    2202:	8e 81       	ldd	r24, Y+6	; 0x06
    2204:	9f 81       	ldd	r25, Y+7	; 0x07
    2206:	01 96       	adiw	r24, 0x01	; 1
    2208:	9f 83       	std	Y+7, r25	; 0x07
    220a:	8e 83       	std	Y+6, r24	; 0x06
    220c:	02 c0       	rjmp	.+4      	; 0x2212 <fputc+0x4c>
    220e:	0f ef       	ldi	r16, 0xFF	; 255
    2210:	1f ef       	ldi	r17, 0xFF	; 255
    2212:	c8 01       	movw	r24, r16
    2214:	df 91       	pop	r29
    2216:	cf 91       	pop	r28
    2218:	1f 91       	pop	r17
    221a:	0f 91       	pop	r16
    221c:	08 95       	ret

0000221e <__ultoa_invert>:
    221e:	fa 01       	movw	r30, r20
    2220:	aa 27       	eor	r26, r26
    2222:	28 30       	cpi	r18, 0x08	; 8
    2224:	51 f1       	breq	.+84     	; 0x227a <__ultoa_invert+0x5c>
    2226:	20 31       	cpi	r18, 0x10	; 16
    2228:	81 f1       	breq	.+96     	; 0x228a <__ultoa_invert+0x6c>
    222a:	e8 94       	clt
    222c:	6f 93       	push	r22
    222e:	6e 7f       	andi	r22, 0xFE	; 254
    2230:	6e 5f       	subi	r22, 0xFE	; 254
    2232:	7f 4f       	sbci	r23, 0xFF	; 255
    2234:	8f 4f       	sbci	r24, 0xFF	; 255
    2236:	9f 4f       	sbci	r25, 0xFF	; 255
    2238:	af 4f       	sbci	r26, 0xFF	; 255
    223a:	b1 e0       	ldi	r27, 0x01	; 1
    223c:	3e d0       	rcall	.+124    	; 0x22ba <__ultoa_invert+0x9c>
    223e:	b4 e0       	ldi	r27, 0x04	; 4
    2240:	3c d0       	rcall	.+120    	; 0x22ba <__ultoa_invert+0x9c>
    2242:	67 0f       	add	r22, r23
    2244:	78 1f       	adc	r23, r24
    2246:	89 1f       	adc	r24, r25
    2248:	9a 1f       	adc	r25, r26
    224a:	a1 1d       	adc	r26, r1
    224c:	68 0f       	add	r22, r24
    224e:	79 1f       	adc	r23, r25
    2250:	8a 1f       	adc	r24, r26
    2252:	91 1d       	adc	r25, r1
    2254:	a1 1d       	adc	r26, r1
    2256:	6a 0f       	add	r22, r26
    2258:	71 1d       	adc	r23, r1
    225a:	81 1d       	adc	r24, r1
    225c:	91 1d       	adc	r25, r1
    225e:	a1 1d       	adc	r26, r1
    2260:	20 d0       	rcall	.+64     	; 0x22a2 <__ultoa_invert+0x84>
    2262:	09 f4       	brne	.+2      	; 0x2266 <__ultoa_invert+0x48>
    2264:	68 94       	set
    2266:	3f 91       	pop	r19
    2268:	2a e0       	ldi	r18, 0x0A	; 10
    226a:	26 9f       	mul	r18, r22
    226c:	11 24       	eor	r1, r1
    226e:	30 19       	sub	r19, r0
    2270:	30 5d       	subi	r19, 0xD0	; 208
    2272:	31 93       	st	Z+, r19
    2274:	de f6       	brtc	.-74     	; 0x222c <__ultoa_invert+0xe>
    2276:	cf 01       	movw	r24, r30
    2278:	08 95       	ret
    227a:	46 2f       	mov	r20, r22
    227c:	47 70       	andi	r20, 0x07	; 7
    227e:	40 5d       	subi	r20, 0xD0	; 208
    2280:	41 93       	st	Z+, r20
    2282:	b3 e0       	ldi	r27, 0x03	; 3
    2284:	0f d0       	rcall	.+30     	; 0x22a4 <__ultoa_invert+0x86>
    2286:	c9 f7       	brne	.-14     	; 0x227a <__ultoa_invert+0x5c>
    2288:	f6 cf       	rjmp	.-20     	; 0x2276 <__ultoa_invert+0x58>
    228a:	46 2f       	mov	r20, r22
    228c:	4f 70       	andi	r20, 0x0F	; 15
    228e:	40 5d       	subi	r20, 0xD0	; 208
    2290:	4a 33       	cpi	r20, 0x3A	; 58
    2292:	18 f0       	brcs	.+6      	; 0x229a <__ultoa_invert+0x7c>
    2294:	49 5d       	subi	r20, 0xD9	; 217
    2296:	31 fd       	sbrc	r19, 1
    2298:	40 52       	subi	r20, 0x20	; 32
    229a:	41 93       	st	Z+, r20
    229c:	02 d0       	rcall	.+4      	; 0x22a2 <__ultoa_invert+0x84>
    229e:	a9 f7       	brne	.-22     	; 0x228a <__ultoa_invert+0x6c>
    22a0:	ea cf       	rjmp	.-44     	; 0x2276 <__ultoa_invert+0x58>
    22a2:	b4 e0       	ldi	r27, 0x04	; 4
    22a4:	a6 95       	lsr	r26
    22a6:	97 95       	ror	r25
    22a8:	87 95       	ror	r24
    22aa:	77 95       	ror	r23
    22ac:	67 95       	ror	r22
    22ae:	ba 95       	dec	r27
    22b0:	c9 f7       	brne	.-14     	; 0x22a4 <__ultoa_invert+0x86>
    22b2:	00 97       	sbiw	r24, 0x00	; 0
    22b4:	61 05       	cpc	r22, r1
    22b6:	71 05       	cpc	r23, r1
    22b8:	08 95       	ret
    22ba:	9b 01       	movw	r18, r22
    22bc:	ac 01       	movw	r20, r24
    22be:	0a 2e       	mov	r0, r26
    22c0:	06 94       	lsr	r0
    22c2:	57 95       	ror	r21
    22c4:	47 95       	ror	r20
    22c6:	37 95       	ror	r19
    22c8:	27 95       	ror	r18
    22ca:	ba 95       	dec	r27
    22cc:	c9 f7       	brne	.-14     	; 0x22c0 <__ultoa_invert+0xa2>
    22ce:	62 0f       	add	r22, r18
    22d0:	73 1f       	adc	r23, r19
    22d2:	84 1f       	adc	r24, r20
    22d4:	95 1f       	adc	r25, r21
    22d6:	a0 1d       	adc	r26, r0
    22d8:	08 95       	ret

000022da <__mulsi3>:
    22da:	62 9f       	mul	r22, r18
    22dc:	d0 01       	movw	r26, r0
    22de:	73 9f       	mul	r23, r19
    22e0:	f0 01       	movw	r30, r0
    22e2:	82 9f       	mul	r24, r18
    22e4:	e0 0d       	add	r30, r0
    22e6:	f1 1d       	adc	r31, r1
    22e8:	64 9f       	mul	r22, r20
    22ea:	e0 0d       	add	r30, r0
    22ec:	f1 1d       	adc	r31, r1
    22ee:	92 9f       	mul	r25, r18
    22f0:	f0 0d       	add	r31, r0
    22f2:	83 9f       	mul	r24, r19
    22f4:	f0 0d       	add	r31, r0
    22f6:	74 9f       	mul	r23, r20
    22f8:	f0 0d       	add	r31, r0
    22fa:	65 9f       	mul	r22, r21
    22fc:	f0 0d       	add	r31, r0
    22fe:	99 27       	eor	r25, r25
    2300:	72 9f       	mul	r23, r18
    2302:	b0 0d       	add	r27, r0
    2304:	e1 1d       	adc	r30, r1
    2306:	f9 1f       	adc	r31, r25
    2308:	63 9f       	mul	r22, r19
    230a:	b0 0d       	add	r27, r0
    230c:	e1 1d       	adc	r30, r1
    230e:	f9 1f       	adc	r31, r25
    2310:	bd 01       	movw	r22, r26
    2312:	cf 01       	movw	r24, r30
    2314:	11 24       	eor	r1, r1
    2316:	08 95       	ret

00002318 <__divmodsi4>:
    2318:	97 fb       	bst	r25, 7
    231a:	09 2e       	mov	r0, r25
    231c:	05 26       	eor	r0, r21
    231e:	0e d0       	rcall	.+28     	; 0x233c <__divmodsi4_neg1>
    2320:	57 fd       	sbrc	r21, 7
    2322:	04 d0       	rcall	.+8      	; 0x232c <__divmodsi4_neg2>
    2324:	14 d0       	rcall	.+40     	; 0x234e <__udivmodsi4>
    2326:	0a d0       	rcall	.+20     	; 0x233c <__divmodsi4_neg1>
    2328:	00 1c       	adc	r0, r0
    232a:	38 f4       	brcc	.+14     	; 0x233a <__divmodsi4_exit>

0000232c <__divmodsi4_neg2>:
    232c:	50 95       	com	r21
    232e:	40 95       	com	r20
    2330:	30 95       	com	r19
    2332:	21 95       	neg	r18
    2334:	3f 4f       	sbci	r19, 0xFF	; 255
    2336:	4f 4f       	sbci	r20, 0xFF	; 255
    2338:	5f 4f       	sbci	r21, 0xFF	; 255

0000233a <__divmodsi4_exit>:
    233a:	08 95       	ret

0000233c <__divmodsi4_neg1>:
    233c:	f6 f7       	brtc	.-4      	; 0x233a <__divmodsi4_exit>
    233e:	90 95       	com	r25
    2340:	80 95       	com	r24
    2342:	70 95       	com	r23
    2344:	61 95       	neg	r22
    2346:	7f 4f       	sbci	r23, 0xFF	; 255
    2348:	8f 4f       	sbci	r24, 0xFF	; 255
    234a:	9f 4f       	sbci	r25, 0xFF	; 255
    234c:	08 95       	ret

0000234e <__udivmodsi4>:
    234e:	a1 e2       	ldi	r26, 0x21	; 33
    2350:	1a 2e       	mov	r1, r26
    2352:	aa 1b       	sub	r26, r26
    2354:	bb 1b       	sub	r27, r27
    2356:	fd 01       	movw	r30, r26
    2358:	0d c0       	rjmp	.+26     	; 0x2374 <__udivmodsi4_ep>

0000235a <__udivmodsi4_loop>:
    235a:	aa 1f       	adc	r26, r26
    235c:	bb 1f       	adc	r27, r27
    235e:	ee 1f       	adc	r30, r30
    2360:	ff 1f       	adc	r31, r31
    2362:	a2 17       	cp	r26, r18
    2364:	b3 07       	cpc	r27, r19
    2366:	e4 07       	cpc	r30, r20
    2368:	f5 07       	cpc	r31, r21
    236a:	20 f0       	brcs	.+8      	; 0x2374 <__udivmodsi4_ep>
    236c:	a2 1b       	sub	r26, r18
    236e:	b3 0b       	sbc	r27, r19
    2370:	e4 0b       	sbc	r30, r20
    2372:	f5 0b       	sbc	r31, r21

00002374 <__udivmodsi4_ep>:
    2374:	66 1f       	adc	r22, r22
    2376:	77 1f       	adc	r23, r23
    2378:	88 1f       	adc	r24, r24
    237a:	99 1f       	adc	r25, r25
    237c:	1a 94       	dec	r1
    237e:	69 f7       	brne	.-38     	; 0x235a <__udivmodsi4_loop>
    2380:	60 95       	com	r22
    2382:	70 95       	com	r23
    2384:	80 95       	com	r24
    2386:	90 95       	com	r25
    2388:	9b 01       	movw	r18, r22
    238a:	ac 01       	movw	r20, r24
    238c:	bd 01       	movw	r22, r26
    238e:	cf 01       	movw	r24, r30
    2390:	08 95       	ret

00002392 <_exit>:
    2392:	f8 94       	cli

00002394 <__stop_program>:
    2394:	ff cf       	rjmp	.-2      	; 0x2394 <__stop_program>
